 serialport

 Timestamp is 578d172a (Mon Jul 18 11:51:38 2016)

 Preferred load address is 0000000180000000

 Start         Length     Name                   Class
 0001:00000000 000001e0H .text                   CODE
 0001:000001e0 00000060H .text$di                CODE
 0001:00000240 00020700H .text$mn                CODE
 0001:00020940 00000020H .text$mn$00             CODE
 0001:00020960 00001050H .text$x                 CODE
 0001:000219b0 0000007eH .text$yd                CODE
 0002:00000000 00000570H .idata$5                DATA
 0002:00000570 00000010H .00cfg                  DATA
 0002:00000580 00000008H .CRT$XCA                DATA
 0002:00000588 00000010H .CRT$XCU                DATA
 0002:00000598 00000008H .CRT$XCZ                DATA
 0002:000005a0 00000008H .CRT$XIA                DATA
 0002:000005a8 00000020H .CRT$XIC                DATA
 0002:000005c8 00000008H .CRT$XIZ                DATA
 0002:000005d0 00000008H .CRT$XPA                DATA
 0002:000005d8 00000010H .CRT$XPX                DATA
 0002:000005e8 00000008H .CRT$XPXA               DATA
 0002:000005f0 00000008H .CRT$XPZ                DATA
 0002:000005f8 00000008H .CRT$XTA                DATA
 0002:00000600 00000010H .CRT$XTZ                DATA
 0002:00000610 00009908H .rdata                  DATA
 0002:00009f18 00000408H .rdata$r                DATA
 0002:0000a320 00000010H .rdata$zETW0            DATA
 0002:0000a330 00000077H .rdata$zETW1            DATA
 0002:0000a3a7 0000002cH .rdata$zETW2            DATA
 0002:0000a3d3 00000001H .rdata$zETW9            DATA
 0002:0000a3d4 00000404H .rdata$zzzdbg           DATA
 0002:0000a7d8 00000008H .rtc$IAA                DATA
 0002:0000a7e0 00000008H .rtc$IZZ                DATA
 0002:0000a7e8 00000008H .rtc$TAA                DATA
 0002:0000a7f0 00000010H .rtc$TZZ                DATA
 0002:0000a800 000028f0H .xdata                  DATA
 0002:0000d0f0 00000250H .xdata$x                DATA
 0002:0000d340 00000058H .edata                  DATA
 0002:0000d398 00000078H .idata$2                DATA
 0002:0000d410 00000018H .idata$3                DATA
 0002:0000d428 00000570H .idata$4                DATA
 0002:0000d998 00001628H .idata$6                DATA
 0003:00000000 00000a90H .data                   DATA
 0003:00000a90 00000140H .data$r                 DATA
 0003:00000bd0 000012f8H .bss                    DATA
 0004:00000000 00001dacH .pdata                  DATA
 0005:00000000 00000088H .gfids$x                DATA
 0005:00000088 00000060H .gfids$y                DATA
 0006:00000000 00000060H .rsrc$01                DATA
 0006:00000060 00000180H .rsrc$02                DATA

  Address         Publics by Value              Rva+Base               Lib:Object

 0000:00000000       __guard_iat_table          0000000000000000     <absolute>
 0000:00000000       __dynamic_value_reloc_table 0000000000000000     <absolute>
 0000:00000000       __guard_iat_count          0000000000000000     <absolute>
 0000:00000000       __guard_longjmp_table      0000000000000000     <absolute>
 0000:00000000       __guard_longjmp_count      0000000000000000     <absolute>
 0000:00000000       __guard_fids_count         0000000000000000     <absolute>
 0000:00000000       ___safe_se_handler_table   0000000000000000     <absolute>
 0000:00000000       ___safe_se_handler_count   0000000000000000     <absolute>
 0000:00000000       __guard_fids_table         0000000000000000     <absolute>
 0000:00000100       __guard_flags              0000000000000100     <absolute>
 0000:00000000       __ImageBase                0000000180000000     <linker-defined>
 0001:00000000       ?TraceLoggingRegister@__vcrt_trace_logging_provider@@YAJPEBU_TlgProvider_t@1@PEBU_GUID@@P6AX1KE_K2PEAU_EVENT_FILTER_DESCRIPTOR@@PEAX@Z4@Z 0000000180001000 f i libvcruntime:telemetry.obj
 0001:0000007c       ?_TlgEnableCallback@__vcrt_trace_logging_provider@@YAXPEBU_GUID@@KE_K1PEAU_EVENT_FILTER_DESCRIPTOR@@PEAX@Z 000000018000107c f i libvcruntime:telemetry.obj
 0001:00000140       ?_TlgWrite@__vcrt_trace_logging_provider@@YAJPEBU_TlgProvider_t@1@PEFBXPEBU_GUID@@2IPEAU_EVENT_DATA_DESCRIPTOR@@@Z 0000000180001140 f i libvcruntime:telemetry.obj
 0001:000002f0       ?New@?$Factory@VFunctionTemplate@v8@@@imp@Nan@@SA?AV?$Local@VFunctionTemplate@v8@@@v8@@P6AXAEBV?$FunctionCallbackInfo@VValue@v8@@@3@@ZV?$Local@VValue@v8@@@5@V?$Local@VSignature@v8@@@5@@Z 00000001800012f0 f i serialport.obj
 0001:00000480       ??1EscapableHandleScope@Nan@@QEAA@XZ 0000000180001480 f i serialport.obj
 0001:000004b0       ??1HandleScope@Nan@@QEAA@XZ 00000001800014b0 f i serialport.obj
 0001:000004d0       ?ThrowTypeError@Nan@@YAXPEBD@Z 00000001800014d0 f i serialport.obj
 0001:00000570       ??0Utf8String@Nan@@QEAA@V?$Local@VValue@v8@@@v8@@@Z 0000000180001570 f i serialport.obj
 0001:00000660       ?Call_@Callback@Nan@@AEBA?AV?$Local@VValue@v8@@@v8@@PEAVIsolate@4@V?$Local@VObject@v8@@@4@HQEAV34@@Z 0000000180001660 f i serialport.obj
 0001:00000720       ??1?$Persistent@VObject@v8@@V?$NonCopyablePersistentTraits@VObject@v8@@@2@@Nan@@QEAA@XZ 0000000180001720 f i serialport.obj
 0001:00000720       ??1?$Persistent@VFunction@v8@@V?$NonCopyablePersistentTraits@VFunction@v8@@@2@@Nan@@QEAA@XZ 0000000180001720 f i serialport.obj
 0001:00000740       ??1QueuedWrite@@QEAA@XZ    0000000180001740 f i serialport.obj
 0001:000008a0       ??_G_WriteQueue@@QEAAPEAXI@Z 00000001800018a0 f i serialport.obj
 0001:00000910       ?getValueFromObject@@YA?AV?$Local@VValue@v8@@@v8@@V?$Local@VObject@v8@@@2@V?$basic_string@DU?$char_traits@D@std@@V?$allocator@D@2@@std@@@Z 0000000180001910 f   serialport.obj
 0001:00000a10       ?getIntFromObject@@YAHV?$Local@VObject@v8@@@v8@@V?$basic_string@DU?$char_traits@D@std@@V?$allocator@D@2@@std@@@Z 0000000180001a10 f   serialport.obj
 0001:00000ad0       ?getBoolFromObject@@YA_NV?$Local@VObject@v8@@@v8@@V?$basic_string@DU?$char_traits@D@std@@V?$allocator@D@2@@std@@@Z 0000000180001ad0 f   serialport.obj
 0001:00000b90       ?getStringFromObj@@YA?AV?$Local@VString@v8@@@v8@@V?$Local@VObject@v8@@@2@V?$basic_string@DU?$char_traits@D@std@@V?$allocator@D@2@@std@@@Z 0000000180001b90 f   serialport.obj
 0001:00000c40       ?getDoubleFromObject@@YANV?$Local@VObject@v8@@@v8@@V?$basic_string@DU?$char_traits@D@std@@V?$allocator@D@2@@std@@@Z 0000000180001c40 f   serialport.obj
 0001:00000d00       ?Open@@YAXAEBV?$FunctionCallbackInfo@VValue@v8@@@Nan@@@Z 0000000180001d00 f   serialport.obj
 0001:00001420       ?EIO_AfterOpen@@YAXPEAUuv_work_s@@@Z 0000000180002420 f   serialport.obj
 0001:000016d0       ?Update@@YAXAEBV?$FunctionCallbackInfo@VValue@v8@@@Nan@@@Z 00000001800026d0 f   serialport.obj
 0001:000019e0       ?EIO_AfterUpdate@@YAXPEAUuv_work_s@@@Z 00000001800029e0 f   serialport.obj
 0001:00001b60       ?Write@@YAXAEBV?$FunctionCallbackInfo@VValue@v8@@@Nan@@@Z 0000000180002b60 f   serialport.obj
 0001:00001ea0       ?EIO_AfterWrite@@YAXPEAUuv_work_s@@@Z 0000000180002ea0 f   serialport.obj
 0001:00002170       ?Close@@YAXAEBV?$FunctionCallbackInfo@VValue@v8@@@Nan@@@Z 0000000180003170 f   serialport.obj
 0001:000022f0       ?EIO_AfterClose@@YAXPEAUuv_work_s@@@Z 00000001800032f0 f   serialport.obj
 0001:00002590       ?List@@YAXAEBV?$FunctionCallbackInfo@VValue@v8@@@Nan@@@Z 0000000180003590 f   serialport.obj
 0001:000026e0       ?setIfNotEmpty@@YAXV?$Local@VObject@v8@@@v8@@V?$basic_string@DU?$char_traits@D@std@@V?$allocator@D@2@@std@@PEBD@Z 00000001800036e0 f   serialport.obj
 0001:00002850       ?EIO_AfterList@@YAXPEAUuv_work_s@@@Z 0000000180003850 f   serialport.obj
 0001:00003070       ??_GListBaton@@QEAAPEAXI@Z 0000000180004070 f i serialport.obj
 0001:00003100       ?Flush@@YAXAEBV?$FunctionCallbackInfo@VValue@v8@@@Nan@@@Z 0000000180004100 f   serialport.obj
 0001:00003280       ?EIO_AfterFlush@@YAXPEAUuv_work_s@@@Z 0000000180004280 f   serialport.obj
 0001:00003430       ?Set@@YAXAEBV?$FunctionCallbackInfo@VValue@v8@@@Nan@@@Z 0000000180004430 f   serialport.obj
 0001:00003760       ?EIO_AfterSet@@YAXPEAUuv_work_s@@@Z 0000000180004760 f   serialport.obj
 0001:000038e0       ?Drain@@YAXAEBV?$FunctionCallbackInfo@VValue@v8@@@Nan@@@Z 00000001800048e0 f   serialport.obj
 0001:00003a60       ?EIO_AfterDrain@@YAXPEAUuv_work_s@@@Z 0000000180004a60 f   serialport.obj
 0001:00003be0       ?ToParityEnum@@YA?AW4SerialPortParity@@AEBV?$Local@VString@v8@@@v8@@@Z 0000000180004be0 f i serialport.obj
 0001:00003cf0       init                       0000000180004cf0 f   serialport.obj
 0001:000041b0       _register_serialport       00000001800051b0 f   serialport.obj
 0001:000041c0       ??1?$list@PEAUListResultItem@@V?$allocator@PEAUListResultItem@@@std@@@std@@QEAA@XZ 00000001800051c0 f i serialport.obj
 0001:00004220       ??1?$Persistent@VFunction@v8@@V?$NonCopyablePersistentTraits@VFunction@v8@@@2@@v8@@QEAA@XZ 0000000180005220 f i serialport.obj
 0001:00004220       ??1?$Persistent@VObject@v8@@V?$NonCopyablePersistentTraits@VObject@v8@@@2@@v8@@QEAA@XZ 0000000180005220 f i serialport.obj
 0001:00004240       ??1?$basic_string@DU?$char_traits@D@std@@V?$allocator@D@2@@std@@QEAA@XZ 0000000180005240 f i serialport.obj
 0001:000042d0       ??1?$_List_buy@PEAUListResultItem@@V?$allocator@PEAUListResultItem@@@std@@@std@@QEAA@XZ 00000001800052d0 f i serialport.obj
 0001:000042f0       ??1?$_List_alloc@U?$_List_base_types@PEAUListResultItem@@V?$allocator@PEAUListResultItem@@@std@@@std@@@std@@QEAA@XZ 00000001800052f0 f i serialport.obj
 0001:00004300       ?assign@?$basic_string@DU?$char_traits@D@std@@V?$allocator@D@2@@std@@QEAAAEAV12@PEBD_K@Z 0000000180005300 f i serialport.obj
 0001:00004440       ?assign@?$basic_string@DU?$char_traits@D@std@@V?$allocator@D@2@@std@@QEAAAEAV12@AEBV12@_K1@Z 0000000180005440 f i serialport.obj
 0001:00004570       ?erase@?$basic_string@DU?$char_traits@D@std@@V?$allocator@D@2@@std@@QEAAAEAV12@_K0@Z 0000000180005570 f i serialport.obj
 0001:00004620       ?_Copy@?$basic_string@DU?$char_traits@D@std@@V?$allocator@D@2@@std@@QEAAX_K0@Z 0000000180005620 f i serialport.obj
 0001:000047b0       ??$New@VString@v8@@V?$basic_string@DU?$char_traits@D@std@@V?$allocator@D@2@@std@@@Nan@@YA?AV?$MaybeLocal@VString@v8@@@v8@@V?$basic_string@DU?$char_traits@D@std@@V?$allocator@D@2@@std@@@Z 00000001800057b0 f i serialport.obj
 0001:00004860       ??$SetMethodAux@V?$Local@VObject@v8@@@v8@@@imp@Nan@@YAXV?$Local@VObject@v8@@@v8@@V?$Local@VString@v8@@@3@V?$Local@VFunctionTemplate@v8@@@3@ZZ 0000000180005860 f i serialport.obj
 0001:000048d0       __local_stdio_printf_options 00000001800058d0 f i serialport_win.obj
 0001:000048e0       _snprintf_s                00000001800058e0 f i serialport_win.obj
 0001:00004940       ?Error@Nan@@YA?AV?$Local@VValue@v8@@@v8@@PEBD@Z 0000000180005940 f i serialport_win.obj
 0001:000049f0       ?ErrorCodeToString@@YAXPEBDHPEAD@Z 00000001800059f0 f   serialport_win.obj
 0001:00004a80       ?EIO_Open@@YAXPEAUuv_work_s@@@Z 0000000180005a80 f   serialport_win.obj
 0001:00004e50       ?EIO_Update@@YAXPEAUuv_work_s@@@Z 0000000180005e50 f   serialport_win.obj
 0001:00004f90       ?EIO_Set@@YAXPEAUuv_work_s@@@Z 0000000180005f90 f   serialport_win.obj
 0001:000050e0       ?EIO_WatchPort@@YAXPEAUuv_work_s@@@Z 00000001800060e0 f   serialport_win.obj
 0001:00005200       ?IsClosingHandle@@YA_NH@Z  0000000180006200 f   serialport_win.obj
 0001:000052d0       ?DisposeWatchPortCallbacks@@YAXPEAUWatchPortBaton@@@Z 00000001800062d0 f   serialport_win.obj
 0001:000053d0       ?EIO_AfterWatchPort@@YAXPEAUuv_work_s@@@Z 00000001800063d0 f   serialport_win.obj
 0001:00005670       ?AfterOpenSuccess@@YAXHPEAVCallback@Nan@@00@Z 0000000180006670 f   serialport_win.obj
 0001:00005730       ?EIO_Write@@YAXPEAUuv_work_s@@@Z 0000000180006730 f   serialport_win.obj
 0001:00005920       ?EIO_Close@@YAXPEAUuv_work_s@@@Z 0000000180006920 f   serialport_win.obj
 0001:00005a10       ?EIO_List@@YAXPEAUuv_work_s@@@Z 0000000180006a10 f   serialport_win.obj
 0001:00005fc0       ?EIO_Flush@@YAXPEAUuv_work_s@@@Z 0000000180006fc0 f   serialport_win.obj
 0001:00006070       ?EIO_Drain@@YAXPEAUuv_work_s@@@Z 0000000180007070 f   serialport_win.obj
 0001:00006120       ??1?$vector@IV?$allocator@I@std@@@std@@QEAA@XZ 0000000180007120 f i serialport_win.obj
 0001:00006130       ??1?$CDhComPtr@UIEnumVARIANT@@@@QEAA@XZ 0000000180007130 f i serialport_win.obj
 0001:00006130       ??1?$CDhComPtr@UIDispatch@@@@QEAA@XZ 0000000180007130 f i serialport_win.obj
 0001:00006160       ??1?$_List_buy@HV?$allocator@H@std@@@std@@QEAA@XZ 0000000180007160 f i serialport_win.obj
 0001:00006190       ??1?$_List_alloc@U?$_List_base_types@HV?$allocator@H@std@@@std@@@std@@QEAA@XZ 0000000180007190 f i serialport_win.obj
 0001:000061a0       ?_Tidy@?$vector@IV?$allocator@I@std@@@std@@IEAAXXZ 00000001800071a0 f i serialport_win.obj
 0001:00006240       ??$_Insert@AEBH@?$list@HV?$allocator@H@std@@@std@@QEAAXV?$_List_unchecked_const_iterator@V?$_List_val@U?$_List_simple_types@H@std@@@std@@U_Iterator_base0@2@@1@AEBH@Z 0000000180007240 f i serialport_win.obj
 0001:00006300       ??$_Insert@AEBQEAUListResultItem@@@?$list@PEAUListResultItem@@V?$allocator@PEAUListResultItem@@@std@@@std@@QEAAXV?$_List_unchecked_const_iterator@V?$_List_val@U?$_List_simple_types@PEAUListResultItem@@@std@@@std@@U_Iterator_base0@2@@1@AEBQEAUListResultItem@@@Z 0000000180007300 f i serialport_win.obj
 0001:000063c0       ??$destroy@H@?$_Wrap_alloc@V?$allocator@U?$_List_node@HPEAX@std@@@std@@@std@@QEAAXPEAH@Z 00000001800073c0 f i serialport_win.obj
 0001:000063c0       ??$destroy@PEAU?$_List_node@HPEAX@std@@@?$_Wrap_alloc@V?$allocator@U?$_List_node@HPEAX@std@@@std@@@std@@QEAAXPEAPEAU?$_List_node@HPEAX@1@@Z 00000001800073c0 f i serialport_win.obj
 0001:000063c0       _guard_check_icall_nop     00000001800073c0 f i LIBCMT:guard_support.obj
 0001:000063c0       __except_validate_context_record 00000001800073c0 f i libvcruntime:jbcxrval.obj
 0001:000063d0       ??0?$_Wrap_alloc@V?$allocator@U?$_List_node@HPEAX@std@@@std@@@std@@QEAA@XZ 00000001800073d0 f i serialport_win.obj
 0001:000063e0       _snwprintf                 00000001800073e0 f i disphelper.obj
 0001:00006440       dhGetObjectEx              0000000180007440 f   disphelper.obj
 0001:00006520       dhGetObject                0000000180007520 f   disphelper.obj
 0001:000065e0       dhGetValue                 00000001800075e0 f   disphelper.obj
 0001:000066d0       dhInvokeArray              00000001800076d0 f   disphelper.obj
 0001:000068d0       dhGetValueV                00000001800078d0 f   disphelper.obj
 0001:00006c60       dhInvokeV                  0000000180007c60 f   disphelper.obj
 0001:00007730       dhEnumBeginV               0000000180008730 f   disphelper.obj
 0001:00007970       dhEnumNextObject           0000000180008970 f   disphelper.obj
 0001:00007c20       dhEnumBegin                0000000180008c20 f   disphelper.obj
 0001:00007d10       ConvertFileTimeToVariantTime 0000000180008d10 f   disphelper.obj
 0001:00007db0       ConvertVariantTimeToFileTime 0000000180008db0 f   disphelper.obj
 0001:00007e70       ConvertVariantTimeToSystemTime 0000000180008e70 f   disphelper.obj
 0001:00007f70       ConvertVariantTimeToTimeT  0000000180008f70 f   disphelper.obj
 0001:00007ff0       ConvertTimeTToVariantTime  0000000180008ff0 f   disphelper.obj
 0001:00008110       ConvertAnsiStrToBStr       0000000180009110 f   disphelper.obj
 0001:00008200       ConvertBStrToAnsiStr       0000000180009200 f   disphelper.obj
 0001:000082f0       dhExitEx                   00000001800092f0 f   disphelper.obj
 0001:000085a0       dhFormatExceptionW         00000001800095a0 f   disphelper.obj
 0001:000088c0       dhCleanupThreadException   00000001800098c0 f   disphelper.obj
 0001:00008990       ??1CAutoHeapAlloc@@QEAA@XZ 0000000180009990 f i enumser.obj
 0001:000089d0       ?UsingQueryDosDevice@CEnumerateSerial@@SAHAEAV?$vector@IV?$allocator@I@std@@@std@@@Z 00000001800099d0 f   enumser.obj
 0001:00008c90       ?_Reserve@?$vector@IV?$allocator@I@std@@@std@@IEAAX_K@Z 0000000180009c90 f i enumser.obj
 0001:00008d20       ?_Reallocate@?$vector@IV?$allocator@I@std@@@std@@IEAAX_K@Z 0000000180009d20 f i enumser.obj
 0001:00008e84       ??0bad_alloc@std@@QEAA@AEBV01@@Z 0000000180009e84 f i libcpmt:xthrow.obj
 0001:00008ec4       ??0bad_alloc@std@@QEAA@XZ  0000000180009ec4 f i libcpmt:xthrow.obj
 0001:00008ee4       ??0exception@std@@QEAA@AEBV01@@Z 0000000180009ee4 f i libcpmt:xthrow.obj
 0001:00008f1c       ??0length_error@std@@QEAA@AEBV01@@Z 0000000180009f1c f i libcpmt:xthrow.obj
 0001:00008f5c       ??0length_error@std@@QEAA@PEBD@Z 0000000180009f5c f i libcpmt:xthrow.obj
 0001:00008fa8       ??0logic_error@std@@QEAA@AEBV01@@Z 0000000180009fa8 f i libcpmt:xthrow.obj
 0001:00008fe8       ??0out_of_range@std@@QEAA@AEBV01@@Z 0000000180009fe8 f i libcpmt:xthrow.obj
 0001:00009028       ??0out_of_range@std@@QEAA@PEBD@Z 000000018000a028 f i libcpmt:xthrow.obj
 0001:00009074       ??_Ebad_exception@std@@UEAAPEAXI@Z 000000018000a074 f i libvcruntime:frame.obj
 0001:00009074       ??_Gbad_exception@std@@UEAAPEAXI@Z 000000018000a074 f i libvcruntime:frame.obj
 0001:00009074       ??_Glength_error@std@@UEAAPEAXI@Z 000000018000a074 f i libcpmt:xthrow.obj
 0001:00009074       ??_Elength_error@std@@UEAAPEAXI@Z 000000018000a074 f i libcpmt:xthrow.obj
 0001:00009074       ??_Gbad_alloc@std@@UEAAPEAXI@Z 000000018000a074 f i libcpmt:xthrow.obj
 0001:00009074       ??_Glogic_error@std@@UEAAPEAXI@Z 000000018000a074 f i libcpmt:xthrow.obj
 0001:00009074       ??_Gout_of_range@std@@UEAAPEAXI@Z 000000018000a074 f i libcpmt:xthrow.obj
 0001:00009074       ??_Elogic_error@std@@UEAAPEAXI@Z 000000018000a074 f i libcpmt:xthrow.obj
 0001:00009074       ??_Gbad_array_new_length@std@@UEAAPEAXI@Z 000000018000a074 f i LIBCMT:throw_bad_alloc.obj
 0001:00009074       ??_Eout_of_range@std@@UEAAPEAXI@Z 000000018000a074 f i libcpmt:xthrow.obj
 0001:00009074       ??_Gexception@std@@UEAAPEAXI@Z 000000018000a074 f i libcpmt:xthrow.obj
 0001:00009074       ??_Ebad_alloc@std@@UEAAPEAXI@Z 000000018000a074 f i libcpmt:xthrow.obj
 0001:00009074       ??_Eexception@std@@UEAAPEAXI@Z 000000018000a074 f i libcpmt:xthrow.obj
 0001:00009074       ??_Ebad_array_new_length@std@@UEAAPEAXI@Z 000000018000a074 f i LIBCMT:throw_bad_alloc.obj
 0001:000090b8       ?_Xbad_alloc@std@@YAXXZ    000000018000a0b8 f   libcpmt:xthrow.obj
 0001:000090b8       ?__scrt_throw_std_bad_alloc@@YAXXZ 000000018000a0b8 f   LIBCMT:throw_bad_alloc.obj
 0001:000090d8       ?_Xlength_error@std@@YAXPEBD@Z 000000018000a0d8 f   libcpmt:xthrow.obj
 0001:000090fc       ?_Xout_of_range@std@@YAXPEBD@Z 000000018000a0fc f   libcpmt:xthrow.obj
 0001:00009120       ?what@exception@std@@UEBAPEBDXZ 000000018000a120 f i libcpmt:xthrow.obj
 0001:00009150       __security_check_cookie    000000018000a150 f   LIBCMT:_amdsecgs_.obj
 0001:00009174       ??2@YAPEAX_K@Z             000000018000a174 f   LIBCMT:new_scalar.obj
 0001:000091b0       ??3@YAXPEAX@Z              000000018000a1b0 f   LIBCMT:delete_scalar.obj
 0001:000091b8       ??3@YAXPEAX_K@Z            000000018000a1b8 f   LIBCMT:delete_scalar_size.obj
 0001:000091c0       __scrt_acquire_startup_lock 000000018000a1c0 f   LIBCMT:utility.obj
 0001:000091fc       __scrt_dllmain_after_initialize_c 000000018000a1fc f   LIBCMT:utility.obj
 0001:00009230       __scrt_dllmain_before_initialize_c 000000018000a230 f   LIBCMT:utility.obj
 0001:00009248       __scrt_dllmain_crt_thread_attach 000000018000a248 f   LIBCMT:utility.obj
 0001:00009270       __scrt_dllmain_crt_thread_detach 000000018000a270 f   LIBCMT:utility.obj
 0001:00009288       __scrt_dllmain_exception_filter 000000018000a288 f   LIBCMT:utility.obj
 0001:000092ec       __scrt_dllmain_uninitialize_c 000000018000a2ec f   LIBCMT:utility.obj
 0001:0000931c       __scrt_dllmain_uninitialize_critical 000000018000a31c f   LIBCMT:utility.obj
 0001:00009330       __scrt_initialize_crt      000000018000a330 f   LIBCMT:utility.obj
 0001:0000937c       __scrt_initialize_onexit_tables 000000018000a37c f   LIBCMT:utility.obj
 0001:00009448       __scrt_is_nonwritable_in_current_image 000000018000a448 f   LIBCMT:utility.obj
 0001:000094e4       __scrt_release_startup_lock 000000018000a4e4 f   LIBCMT:utility.obj
 0001:00009508       __scrt_uninitialize_crt    000000018000a508 f   LIBCMT:utility.obj
 0001:00009534       _onexit                    000000018000a534 f   LIBCMT:utility.obj
 0001:00009584       atexit                     000000018000a584 f   LIBCMT:utility.obj
 0001:0000990c       _DllMainCRTStartup         000000018000a90c f   LIBCMT:dll_dllmain.obj
 0001:0000994c       ??_Etype_info@@UEAAPEAXI@Z 000000018000a94c f i LIBCMT:std_type_info_static.obj
 0001:0000994c       ??_Gtype_info@@UEAAPEAXI@Z 000000018000a94c f i LIBCMT:std_type_info_static.obj
 0001:00009978       __raise_securityfailure    000000018000a978 f   LIBCMT:gs_report.obj
 0001:000099ac       __report_gsfailure         000000018000a9ac f   LIBCMT:gs_report.obj
 0001:00009a80       __report_rangecheckfailure 000000018000aa80 f   LIBCMT:gs_report.obj
 0001:00009a94       __report_securityfailure   000000018000aa94 f   LIBCMT:gs_report.obj
 0001:00009c14       ??0bad_array_new_length@std@@QEAA@AEBV01@@Z 000000018000ac14 f i LIBCMT:throw_bad_alloc.obj
 0001:00009c54       ??0bad_array_new_length@std@@QEAA@XZ 000000018000ac54 f i LIBCMT:throw_bad_alloc.obj
 0001:00009c74       ?__scrt_throw_std_bad_array_new_length@@YAXXZ 000000018000ac74 f   LIBCMT:throw_bad_alloc.obj
 0001:00009c94       __isa_available_init       000000018000ac94 f   LIBCMT:_cpu_disp_.obj
 0001:00009e58       DllMain                    000000018000ae58 f   LIBCMT:dll_dllmain_stub.obj
 0001:00009e58       _get_startup_argv_mode     000000018000ae58 f   LIBCMT:argv_mode.obj
 0001:00009e60       __scrt_is_ucrt_dll_in_use  000000018000ae60 f   LIBCMT:ucrt_detection.obj
 0001:00009e6c       __crt_debugger_hook        000000018000ae6c f   LIBCMT:utility_desktop.obj
 0001:00009e74       __scrt_fastfail            000000018000ae74 f   LIBCMT:utility_desktop.obj
 0001:00009fbc       _guard_check_icall         000000018000afbc f i LIBCMT:checkcfg.obj
 0001:00009fc4       __security_init_cookie     000000018000afc4 f   LIBCMT:gs_support.obj
 0001:0000a070       ?__scrt_initialize_type_info@@YAXXZ 000000018000b070 f   LIBCMT:tncleanup.obj
 0001:0000a080       ?__scrt_uninitialize_type_info@@YAXXZ 000000018000b080 f   LIBCMT:tncleanup.obj
 0001:0000a08c       __local_stdio_scanf_options 000000018000b08c f i LIBCMT:default_local_stdio_options.obj
 0001:0000a094       __scrt_initialize_default_local_stdio_options 000000018000b094 f   LIBCMT:default_local_stdio_options.obj
 0001:0000a0b0       __scrt_get_dyn_tls_init_callback 000000018000b0b0 f   LIBCMT:dyn_tls_init.obj
 0001:0000a0b8       _RTC_Initialize            000000018000b0b8 f   LIBCMT:_initsect_.obj
 0001:0000a104       _RTC_Terminate             000000018000b104 f   LIBCMT:_initsect_.obj
 0001:0000a160       memcpy                     000000018000b160 f   libvcruntime:memcpy.obj
 0001:0000a160       memmove                    000000018000b160 f   libvcruntime:memcpy.obj
 0001:0000a598       strstr                     000000018000b598 f   libvcruntime:strstr.obj
 0001:0000a778       wcschr                     000000018000b778 f   libvcruntime:wcschr.obj
 0001:0000a804       __std_exception_copy       000000018000b804 f   libvcruntime:std_exception.obj
 0001:0000a894       __std_exception_destroy    000000018000b894 f   libvcruntime:std_exception.obj
 0001:0000a8bc       _CxxThrowException         000000018000b8bc f   libvcruntime:throw.obj
 0001:0000a994       __vcrt_initialize          000000018000b994 f   libvcruntime:initialization.obj
 0001:0000a9cc       __vcrt_thread_attach       000000018000b9cc f   libvcruntime:initialization.obj
 0001:0000a9e0       __vcrt_thread_detach       000000018000b9e0 f   libvcruntime:initialization.obj
 0001:0000a9f4       __vcrt_uninitialize        000000018000b9f4 f   libvcruntime:initialization.obj
 0001:0000aa20       __vcrt_uninitialize_critical 000000018000ba20 f   libvcruntime:initialization.obj
 0001:0000aa30       __C_specific_handler       000000018000ba30 f   libvcruntime:_chandler_.obj
 0001:0000ac30       __telemetry_main_invoke_trigger 000000018000bc30 f   libvcruntime:telemetry.obj
 0001:0000ad48       __telemetry_main_return_trigger 000000018000bd48 f   libvcruntime:telemetry.obj
 0001:0000ae60       __vcrt_initialize_telemetry_provider 000000018000be60 f   libvcruntime:telemetry.obj
 0001:0000ae74       __vcrt_uninitialize_telemetry_provider 000000018000be74 f   libvcruntime:telemetry.obj
 0001:0000aeb0       memset                     000000018000beb0 f   libvcruntime:memset.obj
 0001:0000b050       __std_type_info_compare    000000018000c050 f   libvcruntime:std_type_info.obj
 0001:0000b078       __std_type_info_destroy_list 000000018000c078 f   libvcruntime:std_type_info.obj
 0001:0000b0a4       __vcrt_freefls             000000018000c0a4 f   libvcruntime:per_thread_data.obj
 0001:0000b0c4       __vcrt_freeptd             000000018000c0c4 f   libvcruntime:per_thread_data.obj
 0001:0000b114       __vcrt_getptd              000000018000c114 f   libvcruntime:per_thread_data.obj
 0001:0000b130       __vcrt_getptd_noexit       000000018000c130 f   libvcruntime:per_thread_data.obj
 0001:0000b1e8       __vcrt_initialize_ptd      000000018000c1e8 f   libvcruntime:per_thread_data.obj
 0001:0000b228       __vcrt_uninitialize_ptd    000000018000c228 f   libvcruntime:per_thread_data.obj
 0001:0000b24c       __vcrt_initialize_locks    000000018000c24c f   libvcruntime:locks.obj
 0001:0000b294       __vcrt_uninitialize_locks  000000018000c294 f   libvcruntime:locks.obj
 0001:0000b494       __vcrt_EventRegister       000000018000c494 f   libvcruntime:winapi_downlevel.obj
 0001:0000b518       __vcrt_EventSetInformation 000000018000c518 f   libvcruntime:winapi_downlevel.obj
 0001:0000b59c       __vcrt_EventUnregister     000000018000c59c f   libvcruntime:winapi_downlevel.obj
 0001:0000b5f0       __vcrt_EventWriteTransfer  000000018000c5f0 f   libvcruntime:winapi_downlevel.obj
 0001:0000b688       __vcrt_FlsAlloc            000000018000c688 f   libvcruntime:winapi_downlevel.obj
 0001:0000b6dc       __vcrt_FlsFree             000000018000c6dc f   libvcruntime:winapi_downlevel.obj
 0001:0000b730       __vcrt_FlsGetValue         000000018000c730 f   libvcruntime:winapi_downlevel.obj
 0001:0000b784       __vcrt_FlsSetValue         000000018000c784 f   libvcruntime:winapi_downlevel.obj
 0001:0000b7ec       __vcrt_InitializeCriticalSectionEx 000000018000c7ec f   libvcruntime:winapi_downlevel.obj
 0001:0000b864       __vcrt_initialize_winapi_thunks 000000018000c864 f   libvcruntime:winapi_downlevel.obj
 0001:0000b89c       __vcrt_uninitialize_winapi_thunks 000000018000c89c f   libvcruntime:winapi_downlevel.obj
 0001:0000b8dc       __vcrt_initialize_pure_virtual_call_handler 000000018000c8dc f   libvcruntime:purevirt_data.obj
 0001:0000b910       _local_unwind              000000018000c910 f   libvcruntime:_jmpuwind_.obj
 0001:0000b940       _NLG_Notify                000000018000c940 f   libvcruntime:_jmpuwind_.obj
 0001:0000b960       __NLG_Dispatch2            000000018000c960 f   libvcruntime:_jmpuwind_.obj
 0001:0000b970       __NLG_Return2              000000018000c970 f   libvcruntime:_jmpuwind_.obj
 0001:0000c35c       ??$ftprintf@PEAU_iobuf@@PEB_WAEBQEB_WAEBQEB_WAEBI@?$__crt_char_traits@_W@@SAH$$QEAPEAU_iobuf@@$$QEAPEB_WAEBQEB_W2AEBI@Z 000000018000d35c f i libucrt:assert.obj
 0001:0000c384       _wassert                   000000018000d384 f   libucrt:assert.obj
 0001:0000c408       fwprintf                   000000018000d408 f i libucrt:assert.obj
 0001:0000c44c       swprintf                   000000018000d44c f i libucrt:assert.obj
 0001:0000c4a0       __acrt_call_reportfault    000000018000d4a0 f   libucrt:invalid_parameter.obj
 0001:0000c5fc       __acrt_initialize_invalid_parameter_handler 000000018000d5fc f   libucrt:invalid_parameter.obj
 0001:0000c604       _invalid_parameter         000000018000d604 f   libucrt:invalid_parameter.obj
 0001:0000c6ac       _invalid_parameter_noinfo  000000018000d6ac f   libucrt:invalid_parameter.obj
 0001:0000c6cc       _invalid_parameter_noinfo_noreturn 000000018000d6cc f   libucrt:invalid_parameter.obj
 0001:0000c6fc       _invoke_watson             000000018000d6fc f   libucrt:invalid_parameter.obj
 0001:0000c744       malloc                     000000018000d744 f   libucrt:malloc.obj
 0001:0000c74c       strtok                     000000018000d74c f   libucrt:strtok.obj
 0001:0000c77c       strncpy_s                  000000018000d77c f   libucrt:strncpy_s.obj
 0001:0000c850       ??$?RV<lambda_7b91131dde12e1c3dfc74ff76b3f2eac>@@AEAV<lambda_dd75445284c072d0bd3768540cc698fa>@@V<lambda_16bc4ecb55b4718497c16bceaea2ceaf>@@@?$__crt_seh_guarded_call@H@@QEAAH$$QEAV<lambda_7b91131dde12e1c3dfc74ff76b3f2eac>@@AEAV<lambda_dd75445284c072d0bd3768540cc698fa>@@$$QEAV<lambda_16bc4ecb55b4718497c16bceaea2ceaf>@@@Z 000000018000d850 f i libucrt:output.obj
 0001:0000ca38       ??$ensure_buffer_is_big_enough@D@formatting_buffer@__crt_stdio_output@@QEAA_N_K@Z 000000018000da38 f i libucrt:output.obj
 0001:0000cae4       ??$is_wide_character_specifier@D@__crt_stdio_output@@YA_N_KDW4length_modifier@0@@Z 000000018000dae4 f i libucrt:output.obj
 0001:0000cb14       ??$is_wide_character_specifier@_W@__crt_stdio_output@@YA_N_K_WW4length_modifier@0@@Z 000000018000db14 f i libucrt:output.obj
 0001:0000cb58       ??$type_case_integer_parse_into_buffer@I@?$output_processor@_WV?$string_output_adapter@_W@__crt_stdio_output@@V?$standard_base@_WV?$string_output_adapter@_W@__crt_stdio_output@@@2@@__crt_stdio_output@@AEAAXII_N@Z 000000018000db58 f i libucrt:output.obj
 0001:0000cb58       ??$type_case_integer_parse_into_buffer@I@?$output_processor@DV?$string_output_adapter@D@__crt_stdio_output@@V?$format_validation_base@DV?$string_output_adapter@D@__crt_stdio_output@@@2@@__crt_stdio_output@@AEAAXII_N@Z 000000018000db58 f i libucrt:output.obj
 0001:0000cb58       ??$type_case_integer_parse_into_buffer@I@?$output_processor@_WV?$stream_output_adapter@_W@__crt_stdio_output@@V?$standard_base@_WV?$stream_output_adapter@_W@__crt_stdio_output@@@2@@__crt_stdio_output@@AEAAXII_N@Z 000000018000db58 f i libucrt:output.obj
 0001:0000cbf4       ??$type_case_integer_parse_into_buffer@_K@?$output_processor@_WV?$stream_output_adapter@_W@__crt_stdio_output@@V?$standard_base@_WV?$stream_output_adapter@_W@__crt_stdio_output@@@2@@__crt_stdio_output@@AEAAX_KI_N@Z 000000018000dbf4 f i libucrt:output.obj
 0001:0000cbf4       ??$type_case_integer_parse_into_buffer@_K@?$output_processor@DV?$string_output_adapter@D@__crt_stdio_output@@V?$format_validation_base@DV?$string_output_adapter@D@__crt_stdio_output@@@2@@__crt_stdio_output@@AEAAX_KI_N@Z 000000018000dbf4 f i libucrt:output.obj
 0001:0000cbf4       ??$type_case_integer_parse_into_buffer@_K@?$output_processor@_WV?$string_output_adapter@_W@__crt_stdio_output@@V?$standard_base@_WV?$string_output_adapter@_W@__crt_stdio_output@@@2@@__crt_stdio_output@@AEAAX_KI_N@Z 000000018000dbf4 f i libucrt:output.obj
 0001:0000cc90       ??$write_multiple_characters@V?$stream_output_adapter@_W@__crt_stdio_output@@D@__crt_stdio_output@@YAXAEBV?$stream_output_adapter@_W@0@DHQEAH@Z 000000018000dc90 f i libucrt:output.obj
 0001:0000cd20       ??$write_multiple_characters@V?$string_output_adapter@D@__crt_stdio_output@@D@__crt_stdio_output@@YAXAEBV?$string_output_adapter@D@0@DHQEAH@Z 000000018000dd20 f i libucrt:output.obj
 0001:0000cd7c       ??$write_multiple_characters@V?$string_output_adapter@_W@__crt_stdio_output@@D@__crt_stdio_output@@YAXAEBV?$string_output_adapter@_W@0@DHQEAH@Z 000000018000dd7c f i libucrt:output.obj
 0001:0000cdec       ??0?$output_processor@DV?$string_output_adapter@D@__crt_stdio_output@@V?$format_validation_base@DV?$string_output_adapter@D@__crt_stdio_output@@@2@@__crt_stdio_output@@QEAA@AEBV?$string_output_adapter@D@1@_KQEBDQEAU__crt_locale_pointers@@QEAD@Z 000000018000ddec f i libucrt:output.obj
 0001:0000ce68       ??0?$output_processor@_WV?$stream_output_adapter@_W@__crt_stdio_output@@V?$standard_base@_WV?$stream_output_adapter@_W@__crt_stdio_output@@@2@@__crt_stdio_output@@QEAA@AEBV?$stream_output_adapter@_W@1@_KQEB_WQEAU__crt_locale_pointers@@QEAD@Z 000000018000de68 f i libucrt:output.obj
 0001:0000ce68       ??0?$output_processor@_WV?$string_output_adapter@_W@__crt_stdio_output@@V?$standard_base@_WV?$string_output_adapter@_W@__crt_stdio_output@@@2@@__crt_stdio_output@@QEAA@AEBV?$string_output_adapter@_W@1@_KQEB_WQEAU__crt_locale_pointers@@QEAD@Z 000000018000de68 f i libucrt:output.obj
 0001:0000cee8       ??0_LocaleUpdate@@QEAA@QEAU__crt_locale_pointers@@@Z 000000018000dee8 f i libucrt:output.obj
 0001:0000d068       ?force_decimal_point@__crt_stdio_output@@YAXPEADQEAU__crt_locale_pointers@@@Z 000000018000e068 f i libucrt:output.obj
 0001:0000d0d8       ?parse_int_from_format_string@?$output_processor@DV?$string_output_adapter@D@__crt_stdio_output@@V?$format_validation_base@DV?$string_output_adapter@D@__crt_stdio_output@@@2@@__crt_stdio_output@@AEAA_NQEAH@Z 000000018000e0d8 f i libucrt:output.obj
 0001:0000d15c       ?parse_int_from_format_string@?$output_processor@_WV?$stream_output_adapter@_W@__crt_stdio_output@@V?$standard_base@_WV?$stream_output_adapter@_W@__crt_stdio_output@@@2@@__crt_stdio_output@@AEAA_NQEAH@Z 000000018000e15c f i libucrt:output.obj
 0001:0000d15c       ?parse_int_from_format_string@?$output_processor@_WV?$string_output_adapter@_W@__crt_stdio_output@@V?$standard_base@_WV?$string_output_adapter@_W@__crt_stdio_output@@@2@@__crt_stdio_output@@AEAA_NQEAH@Z 000000018000e15c f i libucrt:output.obj
 0001:0000d1dc       ?process@?$output_processor@DV?$string_output_adapter@D@__crt_stdio_output@@V?$format_validation_base@DV?$string_output_adapter@D@__crt_stdio_output@@@2@@__crt_stdio_output@@QEAAHXZ 000000018000e1dc f i libucrt:output.obj
 0001:0000d3f0       ?process@?$output_processor@_WV?$stream_output_adapter@_W@__crt_stdio_output@@V?$standard_base@_WV?$stream_output_adapter@_W@__crt_stdio_output@@@2@@__crt_stdio_output@@QEAAHXZ 000000018000e3f0 f i libucrt:output.obj
 0001:0000d668       ?process@?$output_processor@_WV?$string_output_adapter@_W@__crt_stdio_output@@V?$standard_base@_WV?$string_output_adapter@_W@__crt_stdio_output@@@2@@__crt_stdio_output@@QEAAHXZ 000000018000e668 f i libucrt:output.obj
 0001:0000d8e4       ?state_case_normal@?$output_processor@DV?$string_output_adapter@D@__crt_stdio_output@@V?$format_validation_base@DV?$string_output_adapter@D@__crt_stdio_output@@@2@@__crt_stdio_output@@AEAA_NXZ 000000018000e8e4 f i libucrt:output.obj
 0001:0000d958       ?state_case_normal_tchar@?$output_processor@DV?$string_output_adapter@D@__crt_stdio_output@@V?$format_validation_base@DV?$string_output_adapter@D@__crt_stdio_output@@@2@@__crt_stdio_output@@AEAA_ND@Z 000000018000e958 f i libucrt:output.obj
 0001:0000d9f0       ?state_case_size@?$output_processor@DV?$string_output_adapter@D@__crt_stdio_output@@V?$format_validation_base@DV?$string_output_adapter@D@__crt_stdio_output@@@2@@__crt_stdio_output@@AEAA_NXZ 000000018000e9f0 f i libucrt:output.obj
 0001:0000db6c       ?state_case_size@?$output_processor@_WV?$stream_output_adapter@_W@__crt_stdio_output@@V?$standard_base@_WV?$stream_output_adapter@_W@__crt_stdio_output@@@2@@__crt_stdio_output@@AEAA_NXZ 000000018000eb6c f i libucrt:output.obj
 0001:0000dd10       ?state_case_size@?$output_processor@_WV?$string_output_adapter@_W@__crt_stdio_output@@V?$standard_base@_WV?$string_output_adapter@_W@__crt_stdio_output@@@2@@__crt_stdio_output@@AEAA_NXZ 000000018000ed10 f i libucrt:output.obj
 0001:0000deb4       ?state_case_type@?$output_processor@DV?$string_output_adapter@D@__crt_stdio_output@@V?$format_validation_base@DV?$string_output_adapter@D@__crt_stdio_output@@@2@@__crt_stdio_output@@AEAA_NXZ 000000018000eeb4 f i libucrt:output.obj
 0001:0000e130       ?state_case_type@?$output_processor@_WV?$stream_output_adapter@_W@__crt_stdio_output@@V?$standard_base@_WV?$stream_output_adapter@_W@__crt_stdio_output@@@2@@__crt_stdio_output@@AEAA_NXZ 000000018000f130 f i libucrt:output.obj
 0001:0000e3fc       ?state_case_type@?$output_processor@_WV?$string_output_adapter@_W@__crt_stdio_output@@V?$standard_base@_WV?$string_output_adapter@_W@__crt_stdio_output@@@2@@__crt_stdio_output@@AEAA_NXZ 000000018000f3fc f i libucrt:output.obj
 0001:0000e6c8       ?type_case_Z@?$output_processor@DV?$string_output_adapter@D@__crt_stdio_output@@V?$format_validation_base@DV?$string_output_adapter@D@__crt_stdio_output@@@2@@__crt_stdio_output@@AEAA_NXZ 000000018000f6c8 f i libucrt:output.obj
 0001:0000e748       ?type_case_Z@?$output_processor@_WV?$stream_output_adapter@_W@__crt_stdio_output@@V?$standard_base@_WV?$stream_output_adapter@_W@__crt_stdio_output@@@2@@__crt_stdio_output@@AEAA_NXZ 000000018000f748 f i libucrt:output.obj
 0001:0000e748       ?type_case_Z@?$output_processor@_WV?$string_output_adapter@_W@__crt_stdio_output@@V?$standard_base@_WV?$string_output_adapter@_W@__crt_stdio_output@@@2@@__crt_stdio_output@@AEAA_NXZ 000000018000f748 f i libucrt:output.obj
 0001:0000e7c8       ?type_case_a@?$output_processor@DV?$string_output_adapter@D@__crt_stdio_output@@V?$format_validation_base@DV?$string_output_adapter@D@__crt_stdio_output@@@2@@__crt_stdio_output@@AEAA_NXZ 000000018000f7c8 f i libucrt:output.obj
 0001:0000e9e4       ?type_case_a@?$output_processor@_WV?$stream_output_adapter@_W@__crt_stdio_output@@V?$standard_base@_WV?$stream_output_adapter@_W@__crt_stdio_output@@@2@@__crt_stdio_output@@AEAA_NXZ 000000018000f9e4 f i libucrt:output.obj
 0001:0000e9e4       ?type_case_a@?$output_processor@_WV?$string_output_adapter@_W@__crt_stdio_output@@V?$standard_base@_WV?$string_output_adapter@_W@__crt_stdio_output@@@2@@__crt_stdio_output@@AEAA_NXZ 000000018000f9e4 f i libucrt:output.obj
 0001:0000ec28       ?type_case_c_tchar@?$output_processor@DV?$string_output_adapter@D@__crt_stdio_output@@V?$format_validation_base@DV?$string_output_adapter@D@__crt_stdio_output@@@2@@__crt_stdio_output@@AEAA_ND@Z 000000018000fc28 f i libucrt:output.obj
 0001:0000ecdc       ?type_case_c_tchar@?$output_processor@_WV?$string_output_adapter@_W@__crt_stdio_output@@V?$standard_base@_WV?$string_output_adapter@_W@__crt_stdio_output@@@2@@__crt_stdio_output@@AEAA_N_W@Z 000000018000fcdc f i libucrt:output.obj
 0001:0000ecdc       ?type_case_c_tchar@?$output_processor@_WV?$stream_output_adapter@_W@__crt_stdio_output@@V?$standard_base@_WV?$stream_output_adapter@_W@__crt_stdio_output@@@2@@__crt_stdio_output@@AEAA_N_W@Z 000000018000fcdc f i libucrt:output.obj
 0001:0000ed84       ?type_case_integer@?$output_processor@_WV?$string_output_adapter@_W@__crt_stdio_output@@V?$standard_base@_WV?$string_output_adapter@_W@__crt_stdio_output@@@2@@__crt_stdio_output@@AEAA_NI_N@Z 000000018000fd84 f i libucrt:output.obj
 0001:0000ed84       ?type_case_integer@?$output_processor@DV?$string_output_adapter@D@__crt_stdio_output@@V?$format_validation_base@DV?$string_output_adapter@D@__crt_stdio_output@@@2@@__crt_stdio_output@@AEAA_NI_N@Z 000000018000fd84 f i libucrt:output.obj
 0001:0000ed84       ?type_case_integer@?$output_processor@_WV?$stream_output_adapter@_W@__crt_stdio_output@@V?$standard_base@_WV?$stream_output_adapter@_W@__crt_stdio_output@@@2@@__crt_stdio_output@@AEAA_NI_N@Z 000000018000fd84 f i libucrt:output.obj
 0001:0000ef24       ?type_case_n@?$output_processor@_WV?$stream_output_adapter@_W@__crt_stdio_output@@V?$standard_base@_WV?$stream_output_adapter@_W@__crt_stdio_output@@@2@@__crt_stdio_output@@AEAA_NXZ 000000018000ff24 f i libucrt:output.obj
 0001:0000ef24       ?type_case_n@?$output_processor@_WV?$string_output_adapter@_W@__crt_stdio_output@@V?$standard_base@_WV?$string_output_adapter@_W@__crt_stdio_output@@@2@@__crt_stdio_output@@AEAA_NXZ 000000018000ff24 f i libucrt:output.obj
 0001:0000ef24       ?type_case_n@?$output_processor@DV?$string_output_adapter@D@__crt_stdio_output@@V?$format_validation_base@DV?$string_output_adapter@D@__crt_stdio_output@@@2@@__crt_stdio_output@@AEAA_NXZ 000000018000ff24 f i libucrt:output.obj
 0001:0000f000       ?type_case_s@?$output_processor@DV?$string_output_adapter@D@__crt_stdio_output@@V?$format_validation_base@DV?$string_output_adapter@D@__crt_stdio_output@@@2@@__crt_stdio_output@@AEAA_NXZ 0000000180010000 f i libucrt:output.obj
 0001:0000f090       ?type_case_s@?$output_processor@_WV?$stream_output_adapter@_W@__crt_stdio_output@@V?$standard_base@_WV?$stream_output_adapter@_W@__crt_stdio_output@@@2@@__crt_stdio_output@@AEAA_NXZ 0000000180010090 f i libucrt:output.obj
 0001:0000f090       ?type_case_s@?$output_processor@_WV?$string_output_adapter@_W@__crt_stdio_output@@V?$standard_base@_WV?$string_output_adapter@_W@__crt_stdio_output@@@2@@__crt_stdio_output@@AEAA_NXZ 0000000180010090 f i libucrt:output.obj
 0001:0000f158       ?write_stored_string_tchar@?$output_processor@DV?$string_output_adapter@D@__crt_stdio_output@@V?$format_validation_base@DV?$string_output_adapter@D@__crt_stdio_output@@@2@@__crt_stdio_output@@AEAA_ND@Z 0000000180010158 f i libucrt:output.obj
 0001:0000f230       ?write_stored_string_tchar@?$output_processor@_WV?$stream_output_adapter@_W@__crt_stdio_output@@V?$standard_base@_WV?$stream_output_adapter@_W@__crt_stdio_output@@@2@@__crt_stdio_output@@AEAA_N_W@Z 0000000180010230 f i libucrt:output.obj
 0001:0000f31c       ?write_stored_string_tchar@?$output_processor@_WV?$string_output_adapter@_W@__crt_stdio_output@@V?$standard_base@_WV?$string_output_adapter@_W@__crt_stdio_output@@@2@@__crt_stdio_output@@AEAA_N_W@Z 000000018001031c f i libucrt:output.obj
 0001:0000f40c       ?write_string@?$stream_output_adapter@_W@__crt_stdio_output@@QEBAXQEB_WHQEAH1@Z 000000018001040c f i libucrt:output.obj
 0001:0000f518       ?write_string@?$string_output_adapter@D@__crt_stdio_output@@QEBAXQEBDHQEAH1@Z 0000000180010518 f i libucrt:output.obj
 0001:0000f5d4       ?write_string@?$string_output_adapter@_W@__crt_stdio_output@@QEBAXQEB_WHQEAH1@Z 00000001800105d4 f i libucrt:output.obj
 0001:0000f694       __stdio_common_vfwprintf   0000000180010694 f   libucrt:output.obj
 0001:0000f720       __stdio_common_vsnprintf_s 0000000180010720 f   libucrt:output.obj
 0001:0000f87c       __stdio_common_vswprintf   000000018001087c f   libucrt:output.obj
 0001:0000fad0       strncpy                    0000000180010ad0 f   libucrt:strncpy.obj
 0001:0000fc34       ??$__crt_time_is_leap_year@_J@@YA_N_J@Z 0000000180010c34 f i libucrt:mktime.obj
 0001:00010008       _mktime64                  0000000180011008 f   libucrt:mktime.obj
 0001:00010010       ??$__crt_time_is_leap_year@H@@YA_NH@Z 0000000180011010 f i libucrt:gmtime.obj
 0001:000102e4       __getgmtimebuf             00000001800112e4 f   libucrt:gmtime.obj
 0001:00010330       _gmtime64                  0000000180011330 f   libucrt:gmtime.obj
 0001:00010378       _gmtime64_s                0000000180011378 f   libucrt:gmtime.obj
 0001:0001069c       _localtime64               000000018001169c f   libucrt:localtime.obj
 0001:000106e4       _localtime64_s             00000001800116e4 f   libucrt:localtime.obj
 0001:000106ec       _isleadbyte_l              00000001800116ec f i libucrt:_wctype.obj
 0001:0001072c       __ascii_strnicmp           000000018001172c f   libucrt:strnicmp.obj
 0001:00010774       strnicmp                   0000000180011774 f   libucrt:strnicmp.obj
 0001:00010774       _strnicmp                  0000000180011774 f   libucrt:strnicmp.obj
 0001:000107c4       _strnicmp_l                00000001800117c4 f   libucrt:strnicmp.obj
 0001:000108a0       ??$is_overflow_condition@K@__crt_strtox@@YA_NIK@Z 00000001800118a0 f i libucrt:atox.obj
 0001:000108cc       ??$parse_integer@KV?$c_string_character_source@D@__crt_strtox@@@__crt_strtox@@YAKQEAU__crt_locale_pointers@@V?$c_string_character_source@D@0@H_N@Z 00000001800118cc f i libucrt:atox.obj
 0001:00010be0       ??$parse_integer@KV?$c_string_character_source@_W@__crt_strtox@@@__crt_strtox@@YAKQEAU__crt_locale_pointers@@V?$c_string_character_source@_W@0@H_N@Z 0000000180011be0 f i libucrt:atox.obj
 0001:000112b4       atol                       00000001800122b4 f   libucrt:atox.obj
 0001:000112b4       atoi                       00000001800122b4 f   libucrt:atox.obj
 0001:000112e0       isdigit                    00000001800122e0 f i libucrt:_ctype.obj
 0001:00011354       __ascii_stricmp            0000000180012354 f   libucrt:stricmp.obj
 0001:00011390       stricmp                    0000000180012390 f   libucrt:stricmp.obj
 0001:00011390       _stricmp                   0000000180012390 f   libucrt:stricmp.obj
 0001:000113d8       _stricmp_l                 00000001800123d8 f   libucrt:stricmp.obj
 0001:0001148c       __acrt_initialize_new_handler 000000018001248c f   libucrt:new_handler.obj
 0001:00011494       _callnewh                  0000000180012494 f   libucrt:new_handler.obj
 0001:000114d4       _query_new_handler         00000001800124d4 f   libucrt:new_handler.obj
 0001:00011508       free                       0000000180012508 f   libucrt:free.obj
 0001:00011510       _seh_filter_dll            0000000180012510 f   libucrt:exception_filter.obj
 0001:00011524       _seh_filter_exe            0000000180012524 f   libucrt:exception_filter.obj
 0001:000118e4       __acrt_initialize_thread_local_exit_callback 00000001800128e4 f   libucrt:exit.obj
 0001:000118ec       _cexit                     00000001800128ec f   libucrt:exit.obj
 0001:000118fc       _exit                      00000001800128fc f   libucrt:exit.obj
 0001:00011908       _is_c_termination_complete 0000000180012908 f   libucrt:exit.obj
 0001:00011acc       __acrt_allocate_buffer_for_argv 0000000180012acc f   libucrt:argv_parsing.obj
 0001:00011b30       _configure_narrow_argv     0000000180012b30 f   libucrt:argv_parsing.obj
 0001:00011fa8       __dcrt_get_or_create_narrow_environment_nolock 0000000180012fa8 f   libucrt:environment_initialization.obj
 0001:00011fb0       __dcrt_uninitialize_environments_nolock 0000000180012fb0 f   libucrt:environment_initialization.obj
 0001:00011fe8       _initialize_narrow_environment 0000000180012fe8 f   libucrt:environment_initialization.obj
 0001:00011ff0       ??$?RV<lambda_b8c45f8f788dd370798f47cfe8ac3a86>@@AEAV<lambda_4e60a939b0d047cfe11ddc22648dfba9>@@V<lambda_332c3edc96d0294ec56c57d38c1cdfd5>@@@?$__crt_seh_guarded_call@H@@QEAAH$$QEAV<lambda_b8c45f8f788dd370798f47cfe8ac3a86>@@AEAV<lambda_4e60a939b0d047cfe11ddc22648dfba9>@@$$QEAV<lambda_332c3edc96d0294ec56c57d38c1cdfd5>@@@Z 0000000180012ff0 f i libucrt:onexit.obj
 0001:0001202c       ??$?RV<lambda_e24bbb7b643b32fcea6fa61b31d4c984>@@AEAV<lambda_275893d493268fdec8709772e3fcec0e>@@V<lambda_9d71df4d7cf3f480f8d633942495c3b0>@@@?$__crt_seh_guarded_call@H@@QEAAH$$QEAV<lambda_e24bbb7b643b32fcea6fa61b31d4c984>@@AEAV<lambda_275893d493268fdec8709772e3fcec0e>@@$$QEAV<lambda_9d71df4d7cf3f480f8d633942495c3b0>@@@Z 000000018001302c f i libucrt:onexit.obj
 0001:000123a8       _crt_atexit                00000001800133a8 f   libucrt:onexit.obj
 0001:000123b8       _execute_onexit_table      00000001800133b8 f   libucrt:onexit.obj
 0001:000123f4       _initialize_onexit_table   00000001800133f4 f   libucrt:onexit.obj
 0001:00012434       _register_onexit_function  0000000180013434 f   libucrt:onexit.obj
 0001:000124c4       __acrt_uninitialize_command_line 00000001800134c4 f   libucrt:argv_data.obj
 0001:000125b4       __acrt_initialize          00000001800135b4 f   libucrt:initialization.obj
 0001:000125c8       __acrt_thread_attach       00000001800135c8 f   libucrt:initialization.obj
 0001:000125dc       __acrt_thread_detach       00000001800135dc f   libucrt:initialization.obj
 0001:000125ec       __acrt_uninitialize        00000001800135ec f   libucrt:initialization.obj
 0001:00012600       __acrt_uninitialize_critical 0000000180013600 f   libucrt:initialization.obj
 0001:00012610       _initterm                  0000000180013610 f   libucrt:initterm.obj
 0001:00012688       _initterm_e                0000000180013688 f   libucrt:initterm.obj
 0001:000126d4       terminate                  00000001800136d4 f   libucrt:terminate.obj
 0001:000126fc       strcpy_s                   00000001800136fc f   libucrt:strcpy_s.obj
 0001:0001275c       _free_base                 000000018001375c f   libucrt:free_base.obj
 0001:0001279c       _malloc_base               000000018001379c f   libucrt:malloc_base.obj
 0001:000127fc       abort                      00000001800137fc f   libucrt:abort.obj
 0001:00012854       _calloc_base               0000000180013854 f   libucrt:calloc_base.obj
 0001:000128cc       _query_app_type            00000001800138cc f   libucrt:report_runtime_error.obj
 0001:000128d4       __acrt_errno_from_os_error 00000001800138d4 f   libucrt:errno.obj
 0001:0001291c       __acrt_errno_map_os_error  000000018001391c f   libucrt:errno.obj
 0001:0001296c       __doserrno                 000000018001396c f   libucrt:errno.obj
 0001:0001298c       _errno                     000000018001398c f   libucrt:errno.obj
 0001:00012ad4       _itow_s                    0000000180013ad4 f   libucrt:xtoa.obj
 0001:00012af4       _set_error_mode            0000000180013af4 f   libucrt:set_error_mode.obj
 0001:00012b34       wcscat_s                   0000000180013b34 f   libucrt:wcscat_s.obj
 0001:00012bb4       wcscpy_s                   0000000180013bb4 f   libucrt:wcscpy_s.obj
 0001:00012c1c       wcsncat_s                  0000000180013c1c f   libucrt:wcsncat_s.obj
 0001:00012d44       __acrt_show_wide_message_box 0000000180013d44 f   libucrt:crtmbox.obj
 0001:00012e60       __acrt_initialize_stdio    0000000180013e60 f   libucrt:_file.obj
 0001:00012f80       __acrt_iob_func            0000000180013f80 f   libucrt:_file.obj
 0001:00012f94       __acrt_uninitialize_stdio  0000000180013f94 f   libucrt:_file.obj
 0001:00012ff0       _lock_file                 0000000180013ff0 f   libucrt:_file.obj
 0001:00012ffc       _unlock_file               0000000180013ffc f   libucrt:_file.obj
 0001:00013008       __acrt_stdio_flush_nolock  0000000180014008 f   libucrt:fflush.obj
 0001:00013080       _fflush_nolock             0000000180014080 f   libucrt:fflush.obj
 0001:000130cc       _flushall                  00000001800140cc f   libucrt:fflush.obj
 0001:000131bc       fflush                     00000001800141bc f   libucrt:fflush.obj
 0001:00013200       ??$?RV<lambda_7a5ef57ff966f610505f1d28a3d40618>@@AEAV<lambda_b721fa326cdb32351d23dfa67958c160>@@V<lambda_5e0fb27672408a07956fe59e48ccb2aa>@@@?$__crt_seh_guarded_call@H@@QEAAH$$QEAV<lambda_7a5ef57ff966f610505f1d28a3d40618>@@AEAV<lambda_b721fa326cdb32351d23dfa67958c160>@@$$QEAV<lambda_5e0fb27672408a07956fe59e48ccb2aa>@@@Z 0000000180014200 f i libucrt:setvbuf.obj
 0001:00013330       setvbuf                    0000000180014330 f   libucrt:setvbuf.obj
 0001:000133d0       ??$?RV<lambda_c36588078e9f5dfd39652860aa6b3aaf>@@AEAV<lambda_ec61778202f4f5fc7e7711acc23c3bca>@@V<lambda_dc9d2797ccde5d239b4a0efae8ebd7db>@@@?$__crt_seh_guarded_call@P6AXH@Z@@QEAAP6AXH@Z$$QEAV<lambda_c36588078e9f5dfd39652860aa6b3aaf>@@AEAV<lambda_ec61778202f4f5fc7e7711acc23c3bca>@@$$QEAV<lambda_dc9d2797ccde5d239b4a0efae8ebd7db>@@@Z 00000001800143d0 f i libucrt:signal.obj
 0001:00013418       __acrt_get_sigabrt_handler 0000000180014418 f   libucrt:signal.obj
 0001:00013448       __acrt_initialize_signal_handlers 0000000180014448 f   libucrt:signal.obj
 0001:00013468       raise                      0000000180014468 f   libucrt:signal.obj
 0001:00013704       ??$?RV<lambda_46352004c1216016012b18bd6f87e700>@@AEAV<lambda_3bd07e1a1191394380780325891bf33f>@@V<lambda_334532d3f185bcaa59b5be82d7d22bff>@@@?$__crt_seh_guarded_call@X@@QEAAX$$QEAV<lambda_46352004c1216016012b18bd6f87e700>@@AEAV<lambda_3bd07e1a1191394380780325891bf33f>@@$$QEAV<lambda_334532d3f185bcaa59b5be82d7d22bff>@@@Z 0000000180014704 f i libucrt:per_thread_data.obj
 0001:00013764       ??$?RV<lambda_5e887d1dcbef67a5eb4283622ba103bf>@@AEAV<lambda_4466841279450cc726390878d4a41900>@@V<lambda_341c25c0346d94847f1f3c463c57e077>@@@?$__crt_seh_guarded_call@X@@QEAAX$$QEAV<lambda_5e887d1dcbef67a5eb4283622ba103bf>@@AEAV<lambda_4466841279450cc726390878d4a41900>@@$$QEAV<lambda_341c25c0346d94847f1f3c463c57e077>@@@Z 0000000180014764 f i libucrt:per_thread_data.obj
 0001:000137ac       ??$?RV<lambda_72d1df2b273a38828b1ce30cbf4cdab5>@@AEAV<lambda_876a65b173b8412d3a47c70a915b0cf4>@@V<lambda_41932305e351933ebe8f8be3ed8bb5dc>@@@?$__crt_seh_guarded_call@X@@QEAAX$$QEAV<lambda_72d1df2b273a38828b1ce30cbf4cdab5>@@AEAV<lambda_876a65b173b8412d3a47c70a915b0cf4>@@$$QEAV<lambda_41932305e351933ebe8f8be3ed8bb5dc>@@@Z 00000001800147ac f i libucrt:per_thread_data.obj
 0001:000137ec       ??$?RV<lambda_fb3a7dec4e47f37f22dae91bb15c9095>@@AEAV<lambda_698284760c8add0bfb0756c19673e34b>@@V<lambda_dfb8eca1e75fef3034a8fb18dd509707>@@@?$__crt_seh_guarded_call@X@@QEAAX$$QEAV<lambda_fb3a7dec4e47f37f22dae91bb15c9095>@@AEAV<lambda_698284760c8add0bfb0756c19673e34b>@@$$QEAV<lambda_dfb8eca1e75fef3034a8fb18dd509707>@@@Z 00000001800147ec f i libucrt:per_thread_data.obj
 0001:00013a7c       __acrt_freeptd             0000000180014a7c f   libucrt:per_thread_data.obj
 0001:00013ac0       __acrt_getptd              0000000180014ac0 f   libucrt:per_thread_data.obj
 0001:00013b54       __acrt_getptd_noexit       0000000180014b54 f   libucrt:per_thread_data.obj
 0001:00013bf4       __acrt_initialize_ptd      0000000180014bf4 f   libucrt:per_thread_data.obj
 0001:00013c30       __acrt_uninitialize_ptd    0000000180014c30 f   libucrt:per_thread_data.obj
 0001:00013c54       __acrt_strtok_s_novalidation 0000000180014c54 f   libucrt:strtok_s.obj
 0001:00013dac       _tolower_l                 0000000180014dac f   libucrt:tolower_toupper.obj
 0001:00013eec       tolower                    0000000180014eec f   libucrt:tolower_toupper.obj
 0001:00013f18       ??$make_c_string_character_source@_WPEAPEA_W@__crt_strtox@@YA?AV?$c_string_character_source@_W@0@QEB_WQEAPEA_W@Z 0000000180014f18 f i libucrt:strtox.obj
 0001:00013f18       ??$make_c_string_character_source@D$$T@__crt_strtox@@YA?AV?$c_string_character_source@D@0@QEBD$$T@Z 0000000180014f18 f i libucrt:atox.obj
 0001:00013f18       ??$make_c_string_character_source@DPEAPEAD@__crt_strtox@@YA?AV?$c_string_character_source@D@0@QEBDQEAPEAD@Z 0000000180014f18 f i libucrt:strtox.obj
 0001:00013f2c       strtol                     0000000180014f2c f   libucrt:strtox.obj
 0001:00013f5c       wcstol                     0000000180014f5c f   libucrt:strtox.obj
 0001:00013f8c       _mbtowc_l                  0000000180014f8c f   libucrt:mbtowc.obj
 0001:000140d4       mbtowc                     00000001800150d4 f   libucrt:mbtowc.obj
 0001:000140dc       _wctomb_s_l                00000001800150dc f   libucrt:wctomb.obj
 0001:00014260       wctomb_s                   0000000180015260 f   libucrt:wctomb.obj
 0001:00014274       strnlen                    0000000180015274 f   libucrt:strnlen.obj
 0001:000143d0       wcsnlen                    00000001800153d0 f   libucrt:strnlen.obj
 0001:000145c0       __acrt_update_locale_info  00000001800155c0 f   libucrt:locale_update.obj
 0001:000145f4       __acrt_update_multibyte_info 00000001800155f4 f   libucrt:locale_update.obj
 0001:00014628       ?__acrt_fp_classify@@YA?AW4__acrt_fp_class@@AEBN@Z 0000000180015628 f i libucrt:cvt.obj
 0001:00015060       __acrt_fp_format           0000000180016060 f   libucrt:cvt.obj
 0001:000152a4       _fputwc_nolock             00000001800162a4 f   libucrt:fputwc.obj
 0001:00015420       _fileno                    0000000180016420 f   libucrt:fileno.obj
 0001:00015448       _fputc_nolock              0000000180016448 f   libucrt:fputc.obj
 0001:00015460       _get_printf_count_output   0000000180016460 f   libucrt:printf_count_output.obj
 0001:00015478       __acrt_stdio_begin_temporary_buffering_nolock 0000000180016478 f   libucrt:_sftbuf.obj
 0001:00015548       __acrt_stdio_end_temporary_buffering_nolock 0000000180016548 f   libucrt:_sftbuf.obj
 0001:00015584       __acrt_set_locale_changed  0000000180016584 f   libucrt:wsetlocale.obj
 0001:00015590       __acrt_uninitialize_locale 0000000180016590 f   libucrt:wsetlocale.obj
 0001:000157c0       __acrt_initialize_lowio    00000001800167c0 f   libucrt:ioinit.obj
 0001:000157fc       __acrt_uninitialize_lowio  00000001800167fc f   libucrt:ioinit.obj
 0001:0001583c       __acrt_initialize_timeset  000000018001683c f   libucrt:timeset.obj
 0001:0001586c       __daylight                 000000018001686c f   libucrt:timeset.obj
 0001:00015874       __dstbias                  0000000180016874 f   libucrt:timeset.obj
 0001:0001587c       __timezone                 000000018001687c f   libucrt:timeset.obj
 0001:00015884       __tzname                   0000000180016884 f   libucrt:timeset.obj
 0001:0001588c       _get_daylight              000000018001688c f   libucrt:timeset.obj
 0001:000158bc       _get_dstbias               00000001800168bc f   libucrt:timeset.obj
 0001:000158ec       _get_timezone              00000001800168ec f   libucrt:timeset.obj
 0001:00016358       __tzset                    0000000180017358 f   libucrt:tzset.obj
 0001:00016394       _isindst                   0000000180017394 f   libucrt:tzset.obj
 0001:000163c4       iswctype                   00000001800173c4 f   libucrt:iswctype.obj
 0001:00016434       __pctype_func              0000000180017434 f   libucrt:ctype.obj
 0001:00016464       _isctype_l                 0000000180017464 f   libucrt:isctype.obj
 0001:00016574       __acrt_initialize_locks    0000000180017574 f   libucrt:locks.obj
 0001:000165bc       __acrt_lock                00000001800175bc f   libucrt:locks.obj
 0001:000165d8       __acrt_uninitialize_locks  00000001800175d8 f   libucrt:locks.obj
 0001:00016610       __acrt_unlock              0000000180017610 f   libucrt:locks.obj
 0001:000167cc       __acrt_CompareStringEx     00000001800177cc f   libucrt:winapi_thunks.obj
 0001:000168bc       __acrt_FlsAlloc            00000001800178bc f   libucrt:winapi_thunks.obj
 0001:00016914       __acrt_FlsFree             0000000180017914 f   libucrt:winapi_thunks.obj
 0001:0001696c       __acrt_FlsGetValue         000000018001796c f   libucrt:winapi_thunks.obj
 0001:000169c4       __acrt_FlsSetValue         00000001800179c4 f   libucrt:winapi_thunks.obj
 0001:00016a2c       __acrt_InitializeCriticalSectionEx 0000000180017a2c f   libucrt:winapi_thunks.obj
 0001:00016aa4       __acrt_LCMapStringEx       0000000180017aa4 f   libucrt:winapi_thunks.obj
 0001:00016b94       __acrt_LocaleNameToLCID    0000000180017b94 f   libucrt:winapi_thunks.obj
 0001:00016bfc       __acrt_MessageBoxW         0000000180017bfc f   libucrt:winapi_thunks.obj
 0001:00016c84       __acrt_can_show_message_box 0000000180017c84 f   libucrt:winapi_thunks.obj
 0001:00016ce0       __acrt_get_parent_window   0000000180017ce0 f   libucrt:winapi_thunks.obj
 0001:00016d70       __acrt_initialize_winapi_thunks 0000000180017d70 f   libucrt:winapi_thunks.obj
 0001:00016da8       __acrt_is_interactive      0000000180017da8 f   libucrt:winapi_thunks.obj
 0001:00016e7c       __acrt_is_packaged_app     0000000180017e7c f   libucrt:winapi_thunks.obj
 0001:00016f04       __acrt_uninitialize_winapi_thunks 0000000180017f04 f   libucrt:winapi_thunks.obj
 0001:00017424       ?expand_if_necessary@?$argument_list@D@?A0xca0879c4@@AEAAHXZ 0000000180018424 f i libucrt:argv_wildcards.obj
 0001:000174ec       __acrt_expand_narrow_argv_wildcards 00000001800184ec f   libucrt:argv_wildcards.obj
 0001:000174f4       ??$?RV<lambda_99476a1ad63dd22509b5d3e65b0ffc95>@@AEAV<lambda_ad1ced32f4ac17aa236e5ef05d6b3b7c>@@V<lambda_f7424dd8d45958661754dc4f2697e9c3>@@@?$__crt_seh_guarded_call@X@@QEAAX$$QEAV<lambda_99476a1ad63dd22509b5d3e65b0ffc95>@@AEAV<lambda_ad1ced32f4ac17aa236e5ef05d6b3b7c>@@$$QEAV<lambda_f7424dd8d45958661754dc4f2697e9c3>@@@Z 00000001800184f4 f i libucrt:mbctype.obj
 0001:00017bf0       __acrt_initialize_multibyte 0000000180018bf0 f   libucrt:mbctype.obj
 0001:00017c18       __acrt_update_thread_multibyte_data 0000000180018c18 f   libucrt:mbctype.obj
 0001:00017cd8       _setmbcp_nolock            0000000180018cd8 f   libucrt:mbctype.obj
 0001:00017ff8       _ismbblead                 0000000180018ff8 f   libucrt:ismbbyte.obj
 0001:0001800c       __acrt_initialize_command_line 000000018001900c f   libucrt:argv_data.obj
 0001:00018034       __dcrt_get_narrow_environment_from_os 0000000180019034 f   libucrt:get_environment_from_os.obj
 0001:00018514       __dcrt_set_variable_in_narrow_environment_nolock 0000000180019514 f   libucrt:setenv.obj
 0001:0001851c       _recalloc                  000000018001951c f   libucrt:recalloc.obj
 0001:00018524       _recalloc_base             0000000180019524 f   libucrt:recalloc.obj
 0001:000185bc       __acrt_initialize_heap     00000001800195bc f   libucrt:heap_handle.obj
 0001:000185d8       __acrt_uninitialize_heap   00000001800195d8 f   libucrt:heap_handle.obj
 0001:000185e4       __acrt_execute_initializers 00000001800195e4 f   libucrt:shared_initialization.obj
 0001:00018678       __acrt_execute_uninitializers 0000000180019678 f   libucrt:shared_initialization.obj
 0001:000186c8       __acrt_has_user_matherr    00000001800196c8 f   libucrt:matherr.obj
 0001:000186e8       __acrt_initialize_user_matherr 00000001800196e8 f   libucrt:matherr.obj
 0001:000186f0       __acrt_invoke_user_matherr 00000001800196f0 f   libucrt:matherr.obj
 0001:00018738       _query_new_mode            0000000180019738 f   libucrt:new_mode.obj
 0001:00018740       _fcloseall                 0000000180019740 f   libucrt:closeall.obj
 0001:000187f4       __acrt_stdio_free_buffer_nolock 00000001800197f4 f   libucrt:_freebuf.obj
 0001:00018834       ??$?RV<lambda_b521505b218e5242e90febf6bfebc422>@@AEAV<lambda_6978c1fb23f02e42e1d9e99668cc68aa>@@V<lambda_314360699dd331753a4119843814e9a7>@@@?$__crt_seh_guarded_call@H@@QEAAH$$QEAV<lambda_b521505b218e5242e90febf6bfebc422>@@AEAV<lambda_6978c1fb23f02e42e1d9e99668cc68aa>@@$$QEAV<lambda_314360699dd331753a4119843814e9a7>@@@Z 0000000180019834 f i libucrt:commit.obj
 0001:000188c0       _commit                    00000001800198c0 f   libucrt:commit.obj
 0001:00018ef4       _write                     0000000180019ef4 f   libucrt:write.obj
 0001:00018fe0       _write_nolock              0000000180019fe0 f   libucrt:write.obj
 0001:000192c4       __acrt_add_locale_ref      000000018001a2c4 f   libucrt:locale_refcounting.obj
 0001:00019350       __acrt_free_locale         000000018001a350 f   libucrt:locale_refcounting.obj
 0001:000194c8       __acrt_locale_add_lc_time_reference 000000018001a4c8 f   libucrt:locale_refcounting.obj
 0001:000194f0       __acrt_locale_free_lc_time_if_unreferenced 000000018001a4f0 f   libucrt:locale_refcounting.obj
 0001:00019528       __acrt_locale_release_lc_time_reference 000000018001a528 f   libucrt:locale_refcounting.obj
 0001:00019550       __acrt_release_locale_ref  000000018001a550 f   libucrt:locale_refcounting.obj
 0001:000195f8       __acrt_update_thread_locale_data 000000018001a5f8 f   libucrt:locale_refcounting.obj
 0001:00019668       _updatetlocinfoEx_nolock   000000018001a668 f   libucrt:locale_refcounting.obj
 0001:00019a2c       __acrt_LCMapStringA        000000018001aa2c f   libucrt:lcmapstringa.obj
 0001:00019ac4       ___lc_codepage_func        000000018001aac4 f   libucrt:initctype.obj
 0001:00019af4       __acrt_fp_strflt_to_string 000000018001aaf4 f   libucrt:_fptostr.obj
 0001:00019bc0       ?divide@__crt_strtox@@YA_KAEAUbig_integer@1@AEBU21@@Z 000000018001abc0 f i libucrt:cfout.obj
 0001:0001a090       __acrt_fltout              000000018001b090 f   libucrt:cfout.obj
 0001:0001b694       __acrt_stdio_flush_and_write_narrow_nolock 000000018001c694 f   libucrt:_flsbuf.obj
 0001:0001b77c       __acrt_stdio_flush_and_write_wide_nolock 000000018001c77c f   libucrt:_flsbuf.obj
 0001:0001b868       _isatty                    000000018001c868 f   libucrt:isatty.obj
 0001:0001b8c8       __acrt_locale_free_monetary 000000018001c8c8 f   libucrt:initmon.obj
 0001:0001b9d4       __acrt_locale_free_numeric 000000018001c9d4 f   libucrt:initnum.obj
 0001:0001ba98       __acrt_locale_free_time    000000018001ca98 f   libucrt:inittime.obj
 0001:0001bba0       __acrt_GetStringTypeA      000000018001cba0 f   libucrt:getstringtypea.obj
 0001:0001bd54       __acrt_lowio_create_handle_array 000000018001cd54 f   libucrt:osfinfo.obj
 0001:0001bdec       __acrt_lowio_destroy_handle_array 000000018001cdec f   libucrt:osfinfo.obj
 0001:0001be3c       __acrt_lowio_ensure_fh_exists 000000018001ce3c f   libucrt:osfinfo.obj
 0001:0001bef4       __acrt_lowio_lock_fh       000000018001cef4 f   libucrt:osfinfo.obj
 0001:0001bf18       __acrt_lowio_unlock_fh     000000018001cf18 f   libucrt:osfinfo.obj
 0001:0001bf3c       _free_osfhnd               000000018001cf3c f   libucrt:osfinfo.obj
 0001:0001bff8       _get_osfhandle             000000018001cff8 f   libucrt:osfinfo.obj
 0001:0001c1f8       getenv_s                   000000018001d1f8 f   libucrt:getenv.obj
 0001:0001c2c8       __acrt_DownlevelLocaleNameToLCID 000000018001d2c8 f   libucrt:lcidtoname_downlevel.obj
 0001:0001c3d0       qsort                      000000018001d3d0 f   libucrt:qsort.obj
 0001:0001c704       strpbrk                    000000018001d704 f   libucrt:strpbrk.obj
 0001:0001c7a4       _mbsdec                    000000018001d7a4 f   libucrt:mbsdec.obj
 0001:0001c7ac       _mbsdec_l                  000000018001d7ac f   libucrt:mbsdec.obj
 0001:0001c85c       _strnicoll                 000000018001d85c f   libucrt:strnicol.obj
 0001:0001c874       _strnicoll_l               000000018001d874 f   libucrt:strnicol.obj
 0001:0001c974       _msize                     000000018001d974 f   libucrt:msize.obj
 0001:0001c9b0       _realloc_base              000000018001d9b0 f   libucrt:realloc_base.obj
 0001:0001ca34       _fclose_nolock             000000018001da34 f   libucrt:fclose.obj
 0001:0001cab8       fclose                     000000018001dab8 f   libucrt:fclose.obj
 0001:0001ccb0       _lseeki64                  000000018001dcb0 f   libucrt:lseek.obj
 0001:0001ccb8       _lseeki64_nolock           000000018001dcb8 f   libucrt:lseek.obj
 0001:0001ccc0       _putwch_nolock             000000018001dcc0 f   libucrt:putwch.obj
 0001:0001cd1c       __strncnt                  000000018001dd1c f   libucrt:strncnt.obj
 0001:0001cd34       fegetenv                   000000018001dd34 f   libucrt:fegetenv.obj
 0001:0001cd54       fesetenv                   000000018001dd54 f   libucrt:fesetenv.obj
 0001:0001cda0       feholdexcept               000000018001dda0 f   libucrt:feholdexcept.obj
 0001:0001cdf0       ceil                       000000018001ddf0 f   libucrt:ceil.obj
 0001:0001cec0       log10                      000000018001dec0 f   libucrt:log10.obj
 0001:0001d46c       __acrt_stdio_allocate_buffer_nolock 000000018001e46c f   libucrt:_getbuf.obj
 0001:0001d864       __acrt_CompareStringA      000000018001e864 f   libucrt:comparestringa.obj
 0001:0001d8f0       ??$?RV<lambda_bfedae4ebbf01fab1bb6dcc6a9e276e0>@@AEAV<lambda_2fe9b910cf3cbf4a0ab98a02ba45b3ec>@@V<lambda_237c231691f317818eb88cc1d5d642d6>@@@?$__crt_seh_guarded_call@H@@QEAAH$$QEAV<lambda_bfedae4ebbf01fab1bb6dcc6a9e276e0>@@AEAV<lambda_2fe9b910cf3cbf4a0ab98a02ba45b3ec>@@$$QEAV<lambda_237c231691f317818eb88cc1d5d642d6>@@@Z 000000018001e8f0 f i libucrt:close.obj
 0001:0001d964       _close                     000000018001e964 f   libucrt:close.obj
 0001:0001da08       _close_nolock              000000018001ea08 f   libucrt:close.obj
 0001:0001dac4       ?__acrt_stdio_free_stream@@YAXV__crt_stdio_stream@@@Z 000000018001eac4 f   libucrt:stream.obj
 0001:0001db08       __dcrt_lowio_initialize_console_output 000000018001eb08 f   libucrt:initcon.obj
 0001:0001db44       __dcrt_terminate_console_output 000000018001eb44 f   libucrt:initcon.obj
 0001:0001db64       _getfpcontrolword          000000018001eb64 f   libucrt:_fenvutils.obj
 0001:0001db7c       _getfpstatusword           000000018001eb7c f   libucrt:_fenvutils.obj
 0001:0001db90       _setfpcontrolword          000000018001eb90 f   libucrt:_fenvutils.obj
 0001:0001db9c       _setfpstatusword           000000018001eb9c f   libucrt:_fenvutils.obj
 0001:0001dbec       _clearfp                   000000018001ebec f   libucrt:ieee.obj
 0001:0001dc40       _controlfp                 000000018001ec40 f   libucrt:ieee.obj
 0001:0001dc4c       _statusfp                  000000018001ec4c f   libucrt:ieee.obj
 0001:0001e050       _handle_error              000000018001f050 f   libucrt:libm_error.obj
 0001:0001e178       _handle_nan                000000018001f178 f   libucrt:libm_error.obj
 0001:0001e1a0       __acrt_initialize_fma3     000000018001f1a0 f   libucrt:fma3_available.obj
 0001:0001e210       _log10_special             000000018001f210 f   libucrt:log_special.obj
 0001:0001e2e0       _get_fpsr                  000000018001f2e0 f   libucrt:fpsr.obj
 0001:0001e2f0       _set_fpsr                  000000018001f2f0 f   libucrt:fpsr.obj
 0001:0001e2fa       _fclrf                     000000018001f2fa f   libucrt:fpsr.obj
 0001:0001e30e       _frnd                      000000018001f30e f   libucrt:fpsr.obj
 0001:0001e330       _raise_exc                 000000018001f330 f   libucrt:fpexcept.obj
 0001:0001e358       _raise_exc_ex              000000018001f358 f   libucrt:fpexcept.obj
 0001:0001e660       _set_errno_from_matherr    000000018001f660 f   libucrt:fpexcept.obj
 0001:0001e690       _clrfp                     000000018001f690 f   libucrt:fpctrl.obj
 0001:0001e6b0       _ctrlfp                    000000018001f6b0 f   libucrt:fpctrl.obj
 0001:0001e72c       _set_statfp                000000018001f72c f   libucrt:fpctrl.obj
 0001:0001e74c       _statfp                    000000018001f74c f   libucrt:fpctrl.obj
 0001:0001e75e       IsProcessorFeaturePresent  000000018001f75e f   kernel32:KERNEL32.dll
 0001:0001e764       RtlUnwindEx                000000018001f764 f   kernel32:KERNEL32.dll
 0001:0001e76a       SystemFunction036          000000018001f76a f   advapi32:ADVAPI32.dll
 0001:0001e770       _FindPESection             000000018001f770 f   LIBCMT:pesect.obj
 0001:0001e7c0       _IsNonwritableInCurrentImage 000000018001f7c0 f   LIBCMT:pesect.obj
 0001:0001e810       _ValidateImageBase         000000018001f810 f   LIBCMT:pesect.obj
 0001:0001e840       __GSHandlerCheck           000000018001f840 f   LIBCMT:_gshandler_.obj
 0001:0001e860       __GSHandlerCheckCommon     000000018001f860 f   LIBCMT:_gshandler_.obj
 0001:0001e8d0       _alloca_probe              000000018001f8d0 f   LIBCMT:_chkstk_.obj
 0001:0001e8d0       __chkstk                   000000018001f8d0 f   LIBCMT:_chkstk_.obj
 0001:0001e924       strrchr                    000000018001f924 f   libvcruntime:strrchr.obj
 0001:0001ea80       memcmp                     000000018001fa80 f   libvcruntime:memcmp.obj
 0001:0001eb48       strchr                     000000018001fb48 f   libvcruntime:strchr.obj
 0001:0001ebd4       __GSHandlerCheck_EH        000000018001fbd4 f   LIBCMT:gshandlereh.obj
 0001:0001ec64       ?_GetEstablisherFrame@@YAPEA_KPEA_KPEAU_xDISPATCHER_CONTEXT@@PEBU_s_FuncInfo@@0@Z 000000018001fc64 f   libvcruntime:trnsctrl.obj
 0001:0001ed30       ?_GetRangeOfTrysToCheck@@YAPEBU_s_TryBlockMapEntry@@PEA_KPEBU_s_FuncInfo@@HHPEAI2PEAU_xDISPATCHER_CONTEXT@@@Z 000000018001fd30 f   libvcruntime:trnsctrl.obj
 0001:0001ee5c       ?__FrameUnwindToEmptyState@@YAXPEA_KPEAU_xDISPATCHER_CONTEXT@@PEBU_s_FuncInfo@@@Z 000000018001fe5c f   libvcruntime:trnsctrl.obj
 0001:0001eef0       ?__SehTransFilter@@YAHPEAU_EXCEPTION_POINTERS@@PEAUEHExceptionRecord@@PEA_KPEAU_CONTEXT@@PEAU_xDISPATCHER_CONTEXT@@PEBU_s_FuncInfo@@PEAH@Z 000000018001fef0 f   libvcruntime:trnsctrl.obj
 0001:0001ef88       _CallSETranslator          000000018001ff88 f   libvcruntime:trnsctrl.obj
 0001:0001efe0       _CreateFrameInfo           000000018001ffe0 f   libvcruntime:trnsctrl.obj
 0001:0001f01c       _FindAndUnlinkFrame        000000018002001c f   libvcruntime:trnsctrl.obj
 0001:0001f074       _GetImageBase              0000000180020074 f   libvcruntime:trnsctrl.obj
 0001:0001f088       _GetThrowImageBase         0000000180020088 f   libvcruntime:trnsctrl.obj
 0001:0001f09c       _IsExceptionObjectToBeDestroyed 000000018002009c f   libvcruntime:trnsctrl.obj
 0001:0001f0cc       _SetImageBase              00000001800200cc f   libvcruntime:trnsctrl.obj
 0001:0001f0e4       _SetThrowImageBase         00000001800200e4 f   libvcruntime:trnsctrl.obj
 0001:0001f0fc       _UnwindNestedFrames        00000001800200fc f   libvcruntime:trnsctrl.obj
 0001:0001f220       __CxxFrameHandler3         0000000180020220 f   libvcruntime:trnsctrl.obj
 0001:0001f2a0       ?__GetCurrentState@@YAHPEA_KPEAU_xDISPATCHER_CONTEXT@@PEBU_s_FuncInfo@@@Z 00000001800202a0 f   libvcruntime:ehstate.obj
 0001:0001f2c8       ?__GetUnwindTryBlock@@YAHPEA_KPEAU_xDISPATCHER_CONTEXT@@PEBU_s_FuncInfo@@@Z 00000001800202c8 f   libvcruntime:ehstate.obj
 0001:0001f2f4       ?__SetState@@YAXPEA_KPEAU_xDISPATCHER_CONTEXT@@PEBU_s_FuncInfo@@H@Z 00000001800202f4 f   libvcruntime:ehstate.obj
 0001:0001f300       ?__SetUnwindTryBlock@@YAXPEA_KPEAU_xDISPATCHER_CONTEXT@@PEBU_s_FuncInfo@@H@Z 0000000180020300 f   libvcruntime:ehstate.obj
 0001:0001f33c       ?__StateFromControlPc@@YAHPEBU_s_FuncInfo@@PEAU_xDISPATCHER_CONTEXT@@@Z 000000018002033c f   libvcruntime:ehstate.obj
 0001:0001f344       ?__StateFromIp@@YAHPEBU_s_FuncInfo@@PEAU_xDISPATCHER_CONTEXT@@_J@Z 0000000180020344 f   libvcruntime:ehstate.obj
 0001:0001f3b0       __DestructExceptionObject  00000001800203b0 f   libvcruntime:frame.obj
 0001:0001f438       ??0bad_exception@std@@QEAA@AEBV01@@Z 0000000180020438 f i libvcruntime:frame.obj
 0001:0001f478       ??0bad_exception@std@@QEAA@XZ 0000000180020478 f i libvcruntime:frame.obj
 0001:0001f498       ??1bad_array_new_length@std@@UEAA@XZ 0000000180020498 f i LIBCMT:throw_bad_alloc.obj
 0001:0001f498       ??1length_error@std@@UEAA@XZ 0000000180020498 f i libcpmt:xthrow.obj
 0001:0001f498       ??1out_of_range@std@@UEAA@XZ 0000000180020498 f i libcpmt:xthrow.obj
 0001:0001f498       ??1bad_alloc@std@@UEAA@XZ  0000000180020498 f i libcpmt:xthrow.obj
 0001:0001f498       ??1bad_exception@std@@UEAA@XZ 0000000180020498 f i libvcruntime:frame.obj
 0001:0001fdec       ?_CallMemberFunction0@@YAXPEAXP6AX0@Z@Z 0000000180020dec f i libvcruntime:frame.obj
 0001:0001fdf0       ?_CallMemberFunction1@@YAXPEAXP6AX0@Z0@Z 0000000180020df0 f i libvcruntime:frame.obj
 0001:0001fdfc       ?_CallMemberFunction2@@YAXPEAXP6AX0@Z0H@Z 0000000180020dfc f i libvcruntime:frame.obj
 0001:0001fe0c       __AdjustPointer            0000000180020e0c f   libvcruntime:frame.obj
 0001:0001fe30       __BuildCatchObject         0000000180020e30 f   libvcruntime:frame.obj
 0001:0001fef8       __BuildCatchObjectHelper   0000000180020ef8 f   libvcruntime:frame.obj
 0001:000200dc       __CxxCallCatchBlock        00000001800210dc f   libvcruntime:frame.obj
 0001:000202c8       __FrameUnwindFilter        00000001800212c8 f   libvcruntime:frame.obj
 0001:00020314       __FrameUnwindToState       0000000180021314 f   libvcruntime:frame.obj
 0001:000204a8       __InternalCxxFrameHandler  00000001800214a8 f   libvcruntime:frame.obj
 0001:00020700       __TypeMatch                0000000180021700 f   libvcruntime:frame.obj
 0001:00020850       _CallSettingFrame          0000000180021850 f   libvcruntime:handlers.obj
 0001:00020890       floor                      0000000180021890 f   libucrt:floor.obj
 0001:00020950       _guard_dispatch_icall_nop  0000000180021950 f   LIBCMT:_guard_dispatch_.obj
 0002:00000000       __imp_SystemFunction036    0000000180023000     advapi32:ADVAPI32.dll
 0002:00000008       \177ADVAPI32_NULL_THUNK_DATA 0000000180023008     advapi32:ADVAPI32.dll
 0002:00000010       __imp_PurgeComm            0000000180023010     kernel32:KERNEL32.dll
 0002:00000018       __imp_GetCommMask          0000000180023018     kernel32:KERNEL32.dll
 0002:00000020       __imp_Sleep                0000000180023020     kernel32:KERNEL32.dll
 0002:00000028       __imp_GetLastError         0000000180023028     kernel32:KERNEL32.dll
 0002:00000030       __imp_EscapeCommFunction   0000000180023030     kernel32:KERNEL32.dll
 0002:00000038       __imp_CreateFileA          0000000180023038     kernel32:KERNEL32.dll
 0002:00000040       __imp_LoadLibraryA         0000000180023040     kernel32:KERNEL32.dll
 0002:00000048       __imp_GetCommState         0000000180023048     kernel32:KERNEL32.dll
 0002:00000050       __imp_CloseHandle          0000000180023050     kernel32:KERNEL32.dll
 0002:00000058       __imp_GetOverlappedResult  0000000180023058     kernel32:KERNEL32.dll
 0002:00000060       __imp_SetCommMask          0000000180023060     kernel32:KERNEL32.dll
 0002:00000068       __imp_GetProcAddress       0000000180023068     kernel32:KERNEL32.dll
 0002:00000070       __imp_CreateEventA         0000000180023070     kernel32:KERNEL32.dll
 0002:00000078       __imp_SetCommTimeouts      0000000180023078     kernel32:KERNEL32.dll
 0002:00000080       __imp_SetCommState         0000000180023080     kernel32:KERNEL32.dll
 0002:00000088       __imp_FlushFileBuffers     0000000180023088     kernel32:KERNEL32.dll
 0002:00000090       __imp_WriteFile            0000000180023090     kernel32:KERNEL32.dll
 0002:00000098       __imp_HeapFree             0000000180023098     kernel32:KERNEL32.dll
 0002:000000a0       __imp_IsBadCodePtr         00000001800230a0     kernel32:KERNEL32.dll
 0002:000000a8       __imp_MultiByteToWideChar  00000001800230a8     kernel32:KERNEL32.dll
 0002:000000b0       __imp_FileTimeToSystemTime 00000001800230b0     kernel32:KERNEL32.dll
 0002:000000b8       __imp_TlsAlloc             00000001800230b8     kernel32:KERNEL32.dll
 0002:000000c0       __imp_HeapAlloc            00000001800230c0     kernel32:KERNEL32.dll
 0002:000000c8       __imp_GetProcessHeap       00000001800230c8     kernel32:KERNEL32.dll
 0002:000000d0       __imp_SystemTimeToFileTime 00000001800230d0     kernel32:KERNEL32.dll
 0002:000000d8       __imp_WideCharToMultiByte  00000001800230d8     kernel32:KERNEL32.dll
 0002:000000e0       __imp_TlsGetValue          00000001800230e0     kernel32:KERNEL32.dll
 0002:000000e8       __imp_FormatMessageA       00000001800230e8     kernel32:KERNEL32.dll
 0002:000000f0       __imp_SetLastError         00000001800230f0     kernel32:KERNEL32.dll
 0002:000000f8       __imp_QueryDosDeviceA      00000001800230f8     kernel32:KERNEL32.dll
 0002:00000100       __imp_GetVersionExA        0000000180023100     kernel32:KERNEL32.dll
 0002:00000108       __imp_TlsSetValue          0000000180023108     kernel32:KERNEL32.dll
 0002:00000110       __imp_ReadFile             0000000180023110     kernel32:KERNEL32.dll
 0002:00000118       __imp_CreateFileW          0000000180023118     kernel32:KERNEL32.dll
 0002:00000120       __imp_SetFilePointerEx     0000000180023120     kernel32:KERNEL32.dll
 0002:00000128       __imp_HeapReAlloc          0000000180023128     kernel32:KERNEL32.dll
 0002:00000130       __imp_HeapSize             0000000180023130     kernel32:KERNEL32.dll
 0002:00000138       __imp_SetStdHandle         0000000180023138     kernel32:KERNEL32.dll
 0002:00000140       __imp_GetConsoleMode       0000000180023140     kernel32:KERNEL32.dll
 0002:00000148       __imp_GetConsoleCP         0000000180023148     kernel32:KERNEL32.dll
 0002:00000150       __imp_SetEnvironmentVariableA 0000000180023150     kernel32:KERNEL32.dll
 0002:00000158       __imp_FreeEnvironmentStringsW 0000000180023158     kernel32:KERNEL32.dll
 0002:00000160       __imp_GetEnvironmentStringsW 0000000180023160     kernel32:KERNEL32.dll
 0002:00000168       __imp_GetCommandLineW      0000000180023168     kernel32:KERNEL32.dll
 0002:00000170       __imp_GetCommandLineA      0000000180023170     kernel32:KERNEL32.dll
 0002:00000178       __imp_GetCPInfo            0000000180023178     kernel32:KERNEL32.dll
 0002:00000180       __imp_GetOEMCP             0000000180023180     kernel32:KERNEL32.dll
 0002:00000188       __imp_IsValidCodePage      0000000180023188     kernel32:KERNEL32.dll
 0002:00000190       __imp_FindNextFileA        0000000180023190     kernel32:KERNEL32.dll
 0002:00000198       __imp_FindFirstFileExA     0000000180023198     kernel32:KERNEL32.dll
 0002:000001a0       __imp_FindClose            00000001800231a0     kernel32:KERNEL32.dll
 0002:000001a8       __imp_LCMapStringW         00000001800231a8     kernel32:KERNEL32.dll
 0002:000001b0       __imp_CompareStringW       00000001800231b0     kernel32:KERNEL32.dll
 0002:000001b8       __imp_GetStringTypeW       00000001800231b8     kernel32:KERNEL32.dll
 0002:000001c0       __imp_GetTimeZoneInformation 00000001800231c0     kernel32:KERNEL32.dll
 0002:000001c8       __imp_GetACP               00000001800231c8     kernel32:KERNEL32.dll
 0002:000001d0       __imp_CreateThread         00000001800231d0     kernel32:KERNEL32.dll
 0002:000001d8       __imp_WaitForSingleObjectEx 00000001800231d8     kernel32:KERNEL32.dll
 0002:000001e0       __imp_OutputDebugStringW   00000001800231e0     kernel32:KERNEL32.dll
 0002:000001e8       __imp_ExitProcess          00000001800231e8     kernel32:KERNEL32.dll
 0002:000001f0       __imp_WriteConsoleW        00000001800231f0     kernel32:KERNEL32.dll
 0002:000001f8       __imp_GetModuleHandleExW   00000001800231f8     kernel32:KERNEL32.dll
 0002:00000200       __imp_GetModuleFileNameA   0000000180023200     kernel32:KERNEL32.dll
 0002:00000208       __imp_GetFileType          0000000180023208     kernel32:KERNEL32.dll
 0002:00000210       __imp_GetStdHandle         0000000180023210     kernel32:KERNEL32.dll
 0002:00000218       __imp_LoadLibraryExW       0000000180023218     kernel32:KERNEL32.dll
 0002:00000220       __imp_FreeLibrary          0000000180023220     kernel32:KERNEL32.dll
 0002:00000228       __imp_TlsFree              0000000180023228     kernel32:KERNEL32.dll
 0002:00000230       __imp_InitializeCriticalSectionAndSpinCount 0000000180023230     kernel32:KERNEL32.dll
 0002:00000238       __imp_DeleteCriticalSection 0000000180023238     kernel32:KERNEL32.dll
 0002:00000240       __imp_LeaveCriticalSection 0000000180023240     kernel32:KERNEL32.dll
 0002:00000248       __imp_EnterCriticalSection 0000000180023248     kernel32:KERNEL32.dll
 0002:00000250       __imp_InterlockedFlushSList 0000000180023250     kernel32:KERNEL32.dll
 0002:00000258       __imp_GetModuleFileNameW   0000000180023258     kernel32:KERNEL32.dll
 0002:00000260       __imp_RtlUnwindEx          0000000180023260     kernel32:KERNEL32.dll
 0002:00000268       __imp_RaiseException       0000000180023268     kernel32:KERNEL32.dll
 0002:00000270       __imp_RtlPcToFileHeader    0000000180023270     kernel32:KERNEL32.dll
 0002:00000278       __imp_InitializeSListHead  0000000180023278     kernel32:KERNEL32.dll
 0002:00000280       __imp_GetSystemTimeAsFileTime 0000000180023280     kernel32:KERNEL32.dll
 0002:00000288       __imp_GetCurrentThreadId   0000000180023288     kernel32:KERNEL32.dll
 0002:00000290       __imp_GetCurrentProcessId  0000000180023290     kernel32:KERNEL32.dll
 0002:00000298       __imp_QueryPerformanceCounter 0000000180023298     kernel32:KERNEL32.dll
 0002:000002a0       __imp_EncodePointer        00000001800232a0     kernel32:KERNEL32.dll
 0002:000002a8       __imp_GetModuleHandleW     00000001800232a8     kernel32:KERNEL32.dll
 0002:000002b0       __imp_GetStartupInfoW      00000001800232b0     kernel32:KERNEL32.dll
 0002:000002b8       __imp_IsDebuggerPresent    00000001800232b8     kernel32:KERNEL32.dll
 0002:000002c0       __imp_IsProcessorFeaturePresent 00000001800232c0     kernel32:KERNEL32.dll
 0002:000002c8       __imp_TerminateProcess     00000001800232c8     kernel32:KERNEL32.dll
 0002:000002d0       __imp_GetCurrentProcess    00000001800232d0     kernel32:KERNEL32.dll
 0002:000002d8       __imp_SetUnhandledExceptionFilter 00000001800232d8     kernel32:KERNEL32.dll
 0002:000002e0       __imp_UnhandledExceptionFilter 00000001800232e0     kernel32:KERNEL32.dll
 0002:000002e8       __imp_RtlVirtualUnwind     00000001800232e8     kernel32:KERNEL32.dll
 0002:000002f0       __imp_RtlLookupFunctionEntry 00000001800232f0     kernel32:KERNEL32.dll
 0002:000002f8       __imp_RtlCaptureContext    00000001800232f8     kernel32:KERNEL32.dll
 0002:00000300       \177KERNEL32_NULL_THUNK_DATA 0000000180023300     kernel32:KERNEL32.dll
 0002:00000308       __imp_SysFreeString        0000000180023308     oleaut32:OLEAUT32.dll
 0002:00000310       __imp_VariantClear         0000000180023310     oleaut32:OLEAUT32.dll
 0002:00000318       __imp_VariantChangeType    0000000180023318     oleaut32:OLEAUT32.dll
 0002:00000320       __imp_SysAllocStringLen    0000000180023320     oleaut32:OLEAUT32.dll
 0002:00000328       __imp_SysAllocString       0000000180023328     oleaut32:OLEAUT32.dll
 0002:00000330       __imp_SysAllocStringByteLen 0000000180023330     oleaut32:OLEAUT32.dll
 0002:00000338       __imp_VariantInit          0000000180023338     oleaut32:OLEAUT32.dll
 0002:00000340       \177OLEAUT32_NULL_THUNK_DATA 0000000180023340     oleaut32:OLEAUT32.dll
 0002:00000348       __imp_MessageBoxW          0000000180023348     user32:USER32.dll
 0002:00000350       \177USER32_NULL_THUNK_DATA 0000000180023350     user32:USER32.dll
 0002:00000358       __imp_uv_default_loop      0000000180023358     node:node.dll
 0002:00000360       __imp_uv_mutex_init        0000000180023360     node:node.dll
 0002:00000368       __imp_?MakeCallback@node@@YA?AV?$Local@VValue@v8@@@v8@@PEAVIsolate@3@V?$Local@VObject@v8@@@3@V?$Local@VFunction@v8@@@3@HPEAV23@@Z 0000000180023368     node:node.dll
 0002:00000370       __imp_?Length@Buffer@node@@YA_KV?$Local@VObject@v8@@@v8@@@Z 0000000180023370     node:node.dll
 0002:00000378       __imp_?Data@Buffer@node@@YAPEADV?$Local@VObject@v8@@@v8@@@Z 0000000180023378     node:node.dll
 0002:00000380       __imp_?HasInstance@Buffer@node@@YA_NV?$Local@VValue@v8@@@v8@@@Z 0000000180023380     node:node.dll
 0002:00000388       __imp_node_module_register 0000000180023388     node:node.dll
 0002:00000390       __imp_uv_mutex_lock        0000000180023390     node:node.dll
 0002:00000398       __imp_?NewInstance@ObjectTemplate@v8@@QEAA?AV?$MaybeLocal@VObject@v8@@@2@V?$Local@VContext@v8@@@2@@Z 0000000180023398     node:node.dll
 0002:000003a0       __imp_?SetInternalFieldCount@ObjectTemplate@v8@@QEAAXH@Z 00000001800233a0     node:node.dll
 0002:000003a8       __imp_?Set@Object@v8@@QEAA?AV?$Maybe@_N@2@V?$Local@VContext@v8@@@2@IV?$Local@VValue@v8@@@2@@Z 00000001800233a8     node:node.dll
 0002:000003b0       __imp_?Set@Object@v8@@QEAA?AV?$Maybe@_N@2@V?$Local@VContext@v8@@@2@V?$Local@VValue@v8@@@2@1@Z 00000001800233b0     node:node.dll
 0002:000003b8       __imp_?Set@Object@v8@@QEAA_NV?$Local@VValue@v8@@@2@0@Z 00000001800233b8     node:node.dll
 0002:000003c0       __imp_?Get@Object@v8@@QEAA?AV?$MaybeLocal@VValue@v8@@@2@V?$Local@VContext@v8@@@2@V?$Local@VValue@v8@@@2@@Z 00000001800233c0     node:node.dll
 0002:000003c8       __imp_?Has@Object@v8@@QEAA?AV?$Maybe@_N@2@V?$Local@VContext@v8@@@2@V?$Local@VValue@v8@@@2@@Z 00000001800233c8     node:node.dll
 0002:000003d0       __imp_?SetInternalField@Object@v8@@QEAAXHV?$Local@VValue@v8@@@2@@Z 00000001800233d0     node:node.dll
 0002:000003d8       __imp_?New@Object@v8@@SA?AV?$Local@VObject@v8@@@2@PEAVIsolate@2@@Z 00000001800233d8     node:node.dll
 0002:000003e0       __imp_?SlowGetInternalField@Object@v8@@AEAA?AV?$Local@VValue@v8@@@2@H@Z 00000001800233e0     node:node.dll
 0002:000003e8       __imp_?Length@String@v8@@QEBAHXZ 00000001800233e8     node:node.dll
 0002:000003f0       __imp_?WriteUtf8@String@v8@@QEBAHPEADHPEAHH@Z 00000001800233f0     node:node.dll
 0002:000003f8       __imp_?NewFromUtf8@String@v8@@SA?AV?$MaybeLocal@VString@v8@@@2@PEAVIsolate@2@PEBDW4NewStringType@2@H@Z 00000001800233f8     node:node.dll
 0002:00000400       __imp_??0Utf8Value@String@v8@@QEAA@V?$Local@VValue@v8@@@2@@Z 0000000180023400     node:node.dll
 0002:00000408       __imp_??1Utf8Value@String@v8@@QEAA@XZ 0000000180023408     node:node.dll
 0002:00000410       __imp_??0EscapableHandleScope@v8@@QEAA@PEAVIsolate@1@@Z 0000000180023410     node:node.dll
 0002:00000418       __imp_?New@Buffer@node@@YA?AV?$MaybeLocal@VObject@v8@@@v8@@PEAVIsolate@4@PEAD_KP6AX1PEAX@Z3@Z 0000000180023418     node:node.dll
 0002:00000420       __imp_?IsFunction@Value@v8@@QEBA_NXZ 0000000180023420     node:node.dll
 0002:00000428       __imp_?IsObject@Value@v8@@QEBA_NXZ 0000000180023428     node:node.dll
 0002:00000430       __imp_?IsInt32@Value@v8@@QEBA_NXZ 0000000180023430     node:node.dll
 0002:00000438       __imp_?ToInt32@Value@v8@@QEBA?AV?$MaybeLocal@VInt32@v8@@@2@V?$Local@VContext@v8@@@2@@Z 0000000180023438     node:node.dll
 0002:00000440       __imp_?BooleanValue@Value@v8@@QEBA_NXZ 0000000180023440     node:node.dll
 0002:00000448       __imp_?NumberValue@Value@v8@@QEBANXZ 0000000180023448     node:node.dll
 0002:00000450       __imp_?Int32Value@Value@v8@@QEBAHXZ 0000000180023450     node:node.dll
 0002:00000458       __imp_?GlobalizeReference@V8@v8@@CAPEAPEAVObject@internal@2@PEAVIsolate@42@PEAPEAV342@@Z 0000000180023458     node:node.dll
 0002:00000460       __imp_?DisposeGlobal@V8@v8@@CAXPEAPEAVObject@internal@2@@Z 0000000180023460     node:node.dll
 0002:00000468       __imp_?ToLocalEmpty@V8@v8@@CAXXZ 0000000180023468     node:node.dll
 0002:00000470       __imp_?New@FunctionTemplate@v8@@SA?AV?$Local@VFunctionTemplate@v8@@@2@PEAVIsolate@2@P6AXAEBV?$FunctionCallbackInfo@VValue@v8@@@2@@ZV?$Local@VValue@v8@@@2@V?$Local@VSignature@v8@@@2@H@Z 0000000180023470     node:node.dll
 0002:00000478       __imp_?GetFunction@FunctionTemplate@v8@@QEAA?AV?$MaybeLocal@VFunction@v8@@@2@V?$Local@VContext@v8@@@2@@Z 0000000180023478     node:node.dll
 0002:00000480       __imp_?SetClassName@FunctionTemplate@v8@@QEAAXV?$Local@VString@v8@@@2@@Z 0000000180023480     node:node.dll
 0002:00000488       __imp_?New@Array@v8@@SA?AV?$Local@VArray@v8@@@2@PEAVIsolate@2@H@Z 0000000180023488     node:node.dll
 0002:00000490       __imp_?TypeError@Exception@v8@@SA?AV?$Local@VValue@v8@@@2@V?$Local@VString@v8@@@2@@Z 0000000180023490     node:node.dll
 0002:00000498       __imp_?Error@Exception@v8@@SA?AV?$Local@VValue@v8@@@2@V?$Local@VString@v8@@@2@@Z 0000000180023498     node:node.dll
 0002:000004a0       __imp_??0HandleScope@v8@@QEAA@PEAVIsolate@1@@Z 00000001800234a0     node:node.dll
 0002:000004a8       __imp_??1HandleScope@v8@@QEAA@XZ 00000001800234a8     node:node.dll
 0002:000004b0       __imp_?CreateHandle@HandleScope@v8@@CAPEAPEAVObject@internal@2@PEAVHeapObject@42@PEAV342@@Z 00000001800234b0     node:node.dll
 0002:000004b8       __imp_?CreateHandle@HandleScope@v8@@KAPEAPEAVObject@internal@2@PEAVIsolate@42@PEAV342@@Z 00000001800234b8     node:node.dll
 0002:000004c0       __imp_?GetCurrent@Isolate@v8@@SAPEAV12@XZ 00000001800234c0     node:node.dll
 0002:000004c8       __imp_?GetCurrentContext@Isolate@v8@@QEAA?AV?$Local@VContext@v8@@@2@XZ 00000001800234c8     node:node.dll
 0002:000004d0       __imp_?ThrowException@Isolate@v8@@QEAA?AV?$Local@VValue@v8@@@2@V32@@Z 00000001800234d0     node:node.dll
 0002:000004d8       __imp_?New@Integer@v8@@SA?AV?$Local@VInteger@v8@@@2@PEAVIsolate@2@H@Z 00000001800234d8     node:node.dll
 0002:000004e0       __imp_?New@External@v8@@SA?AV?$Local@VExternal@v8@@@2@PEAVIsolate@2@PEAX@Z 00000001800234e0     node:node.dll
 0002:000004e8       __imp_?Value@External@v8@@QEBAPEAXXZ 00000001800234e8     node:node.dll
 0002:000004f0       __imp_?Global@Context@v8@@QEAA?AV?$Local@VObject@v8@@@2@XZ 00000001800234f0     node:node.dll
 0002:000004f8       __imp_uv_queue_work        00000001800234f8     node:node.dll
 0002:00000500       __imp_uv_mutex_unlock      0000000180023500     node:node.dll
 0002:00000508       __imp_??1EscapableHandleScope@v8@@QEAA@XZ 0000000180023508     node:node.dll
 0002:00000510       __imp_?ToBoolean@Value@v8@@QEBA?AV?$Local@VBoolean@v8@@@2@XZ 0000000180023510     node:node.dll
 0002:00000518       __imp_?ToNumber@Value@v8@@QEBA?AV?$Local@VNumber@v8@@@2@XZ 0000000180023518     node:node.dll
 0002:00000520       __imp_?ToString@Value@v8@@QEBA?AV?$Local@VString@v8@@@2@XZ 0000000180023520     node:node.dll
 0002:00000528       __imp_?ToObject@Value@v8@@QEBA?AV?$Local@VObject@v8@@@2@XZ 0000000180023528     node:node.dll
 0002:00000530       __imp_?Escape@EscapableHandleScope@v8@@AEAAPEAPEAVObject@internal@2@PEAPEAV342@@Z 0000000180023530     node:node.dll
 0002:00000538       __imp_?ToInt32@Value@v8@@QEBA?AV?$Local@VInt32@v8@@@2@XZ 0000000180023538     node:node.dll
 0002:00000540       __imp_?New@ObjectTemplate@v8@@SA?AV?$Local@VObjectTemplate@v8@@@2@PEAVIsolate@2@V?$Local@VFunctionTemplate@v8@@@2@@Z 0000000180023540     node:node.dll
 0002:00000548       \177node_NULL_THUNK_DATA   0000000180023548     node:node.dll
 0002:00000550       __imp_CoUninitialize       0000000180023550     ole32:ole32.dll
 0002:00000558       __imp_CoInitialize         0000000180023558     ole32:ole32.dll
 0002:00000560       __imp_CoGetObject          0000000180023560     ole32:ole32.dll
 0002:00000568       \177ole32_NULL_THUNK_DATA  0000000180023568     ole32:ole32.dll
 0002:00000570       __guard_check_icall_fptr   0000000180023570     LIBCMT:guard_support.obj
 0002:00000578       __guard_dispatch_icall_fptr 0000000180023578     LIBCMT:guard_support.obj
 0002:00000580       __xc_a                     0000000180023580     LIBCMT:initializers.obj
 0002:00000590       _register_serialport_      0000000180023590     serialport.obj
 0002:00000598       __xc_z                     0000000180023598     LIBCMT:initializers.obj
 0002:000005a0       __xi_a                     00000001800235a0     LIBCMT:initializers.obj
 0002:000005a8       __acrt_stdio_initializer   00000001800235a8     libucrt:stdio_initializer.obj
 0002:000005b0       __acrt_timeset_initializer 00000001800235b0     libucrt:timeset_initializer.obj
 0002:000005b8       __acrt_multibyte_initializer 00000001800235b8     libucrt:multibyte_initializer.obj
 0002:000005c0       __acrt_tran_fma3_initializer 00000001800235c0     libucrt:fma3_initializer.obj
 0002:000005c8       __xi_z                     00000001800235c8     LIBCMT:initializers.obj
 0002:000005d0       __xp_a                     00000001800235d0     LIBCMT:initializers.obj
 0002:000005d8       __acrt_locale_terminator   00000001800235d8     libucrt:locale_initializer.obj
 0002:000005e0       __dcrt_console_output_terminator 00000001800235e0     libucrt:console_output_initializer.obj
 0002:000005e8       __acrt_stdio_terminator    00000001800235e8     libucrt:stdio_initializer.obj
 0002:000005f0       __xp_z                     00000001800235f0     LIBCMT:initializers.obj
 0002:000005f8       __xt_a                     00000001800235f8     LIBCMT:initializers.obj
 0002:00000600       __xt_z                     0000000180023600     LIBCMT:initializers.obj
 0002:00000610       IID_IDispatch              0000000180023610     uuid:oaidl_i.obj
 0002:00000620       IID_IEnumVARIANT           0000000180023620     uuid:oaidl_i.obj
 0002:00000630       GUID_NULL                  0000000180023630     uuid:cguid_i.obj
 0002:00000648       ??_7exception@std@@6B@     0000000180023648     libcpmt:xthrow.obj
 0002:00000658       ??_C@_0BC@EOODALEL@Unknown?5exception?$AA@ 0000000180023658     libcpmt:xthrow.obj
 0002:00000678       ??_7bad_alloc@std@@6B@     0000000180023678     libcpmt:xthrow.obj
 0002:00000688       ??_C@_0P@GHFPNOJB@bad?5allocation?$AA@ 0000000180023688     libcpmt:xthrow.obj
 0002:000006a0       ??_7logic_error@std@@6B@   00000001800236a0     libcpmt:xthrow.obj
 0002:000006b8       ??_7length_error@std@@6B@  00000001800236b8     libcpmt:xthrow.obj
 0002:000006d0       ??_7out_of_range@std@@6B@  00000001800236d0     libcpmt:xthrow.obj
 0002:000006e0       _pDefaultRawDllMain        00000001800236e0     LIBCMT:dll_dllmain.obj
 0002:000006e0       _pRawDllMain               00000001800236e0     LIBCMT:dll_dllmain.obj
 0002:000006f0       ??_7type_info@@6B@         00000001800236f0     LIBCMT:std_type_info_static.obj
 0002:00000710       ??_7bad_array_new_length@std@@6B@ 0000000180023710     LIBCMT:throw_bad_alloc.obj
 0002:00000720       ??_C@_0BF@KINCDENJ@bad?5array?5new?5length?$AA@ 0000000180023720     LIBCMT:throw_bad_alloc.obj
 0002:00000780       _Microsoft_CRTProvider     0000000180023780     libvcruntime:telemetry.obj
 0002:00000788       ??_C@_11LOCGONAA@?$AA?$AA@ 0000000180023788     libvcruntime:telemetry.obj
 0002:00000790       ??_C@_0O@JEOPJOMI@Main?5Invoked?4?$AA@ 0000000180023790     libvcruntime:telemetry.obj
 0002:000007a0       ??_C@_0P@NEAEIBDO@Main?5Returned?4?$AA@ 00000001800237a0     libvcruntime:telemetry.obj
 0002:000007d0       ??_C@_1BC@DNHGCMLG@?$AAa?$AAd?$AAv?$AAa?$AAp?$AAi?$AA3?$AA2?$AA?$AA@ 00000001800237d0     libvcruntime:winapi_downlevel.obj
 0002:000007e8       ??_C@_1DM@KHCHBNEB@?$AAa?$AAp?$AAi?$AA?9?$AAm?$AAs?$AA?9?$AAw?$AAi?$AAn?$AA?9?$AAc?$AAo?$AAr?$AAe?$AA?9?$AAf?$AAi?$AAb?$AAe?$AAr?$AAs?$AA?9?$AAl?$AA1?$AA?9?$AA1?$AA?9?$AA1?$AA?$AA@ 00000001800237e8     libvcruntime:winapi_downlevel.obj
 0002:00000828       ??_C@_1DK@LPPGFMPP@?$AAa?$AAp?$AAi?$AA?9?$AAm?$AAs?$AA?9?$AAw?$AAi?$AAn?$AA?9?$AAc?$AAo?$AAr?$AAe?$AA?9?$AAs?$AAy?$AAn?$AAc?$AAh?$AA?9?$AAl?$AA1?$AA?9?$AA2?$AA?9?$AA0?$AA?$AA@ 0000000180023828     libvcruntime:winapi_downlevel.obj
 0002:00000868       ??_C@_1BC@GDMECMAK@?$AAk?$AAe?$AAr?$AAn?$AAe?$AAl?$AA3?$AA2?$AA?$AA@ 0000000180023868     libvcruntime:winapi_downlevel.obj
 0002:00000880       ??_C@_0O@BAMBGLIE@EventRegister?$AA@ 0000000180023880     libvcruntime:winapi_downlevel.obj
 0002:00000898       ??_C@_0BE@BJEEGHGK@EventSetInformation?$AA@ 0000000180023898     libvcruntime:winapi_downlevel.obj
 0002:000008b0       ??_C@_0BA@FAKLIPIC@EventUnregister?$AA@ 00000001800238b0     libvcruntime:winapi_downlevel.obj
 0002:000008c8       ??_C@_0BD@PKLHJPHD@EventWriteTransfer?$AA@ 00000001800238c8     libvcruntime:winapi_downlevel.obj
 0002:000008e8       ??_C@_08KNHFBNJ@FlsAlloc?$AA@ 00000001800238e8     libvcruntime:winapi_downlevel.obj
 0002:00000900       ??_C@_07PEJMOBNF@FlsFree?$AA@ 0000000180023900     libvcruntime:winapi_downlevel.obj
 0002:00000910       ??_C@_0M@GDNOONDI@FlsGetValue?$AA@ 0000000180023910     libvcruntime:winapi_downlevel.obj
 0002:00000928       ??_C@_0M@JCPCPOEF@FlsSetValue?$AA@ 0000000180023928     libvcruntime:winapi_downlevel.obj
 0002:00000940       ??_C@_0BM@HCFOFFN@InitializeCriticalSectionEx?$AA@ 0000000180023940     libvcruntime:winapi_downlevel.obj
 0002:00000c80       ??_C@_08EHJDFFNH@__based?$CI?$AA@ 0000000180023c80     libvcruntime:undname.obj
 0002:00000c90       ??_C@_07KOLFKCDI@__cdecl?$AA@ 0000000180023c90     libvcruntime:undname.obj
 0002:00000c98       ??_C@_08GHMPAG@__pascal?$AA@ 0000000180023c98     libvcruntime:undname.obj
 0002:00000ca8       ??_C@_09IFJBGAPI@__stdcall?$AA@ 0000000180023ca8     libvcruntime:undname.obj
 0002:00000cb8       ??_C@_0L@NPHFGOKO@__thiscall?$AA@ 0000000180023cb8     libvcruntime:undname.obj
 0002:00000cc8       ??_C@_0L@JMKHOMEK@__fastcall?$AA@ 0000000180023cc8     libvcruntime:undname.obj
 0002:00000cd8       ??_C@_0N@BCKKPABJ@__vectorcall?$AA@ 0000000180023cd8     libvcruntime:undname.obj
 0002:00000ce8       ??_C@_09HIJEGCPM@__clrcall?$AA@ 0000000180023ce8     libvcruntime:undname.obj
 0002:00000cf4       ??_C@_06GHPCKEAG@__eabi?$AA@ 0000000180023cf4     libvcruntime:undname.obj
 0002:00000d00       ??_C@_07JOMMBBKO@__ptr64?$AA@ 0000000180023d00     libvcruntime:undname.obj
 0002:00000d08       ??_C@_0L@PILCLIHE@__restrict?$AA@ 0000000180023d08     libvcruntime:undname.obj
 0002:00000d18       ??_C@_0M@GFIIJFMG@__unaligned?$AA@ 0000000180023d18     libvcruntime:undname.obj
 0002:00000d28       ??_C@_09DHDLOLLB@restrict?$CI?$AA@ 0000000180023d28     libvcruntime:undname.obj
 0002:00000d34       ??_C@_04NIHEBCM@?5new?$AA@ 0000000180023d34     libvcruntime:undname.obj
 0002:00000d40       ??_C@_07FPCDHGMM@?5delete?$AA@ 0000000180023d40     libvcruntime:undname.obj
 0002:00000d48       ??_C@_01NEMOKFLO@?$DN?$AA@ 0000000180023d48     libvcruntime:undname.obj
 0002:00000d4c       ??_C@_02GPIOPFAK@?$DO?$DO?$AA@ 0000000180023d4c     libvcruntime:undname.obj
 0002:00000d50       ??_C@_02FODMEDOG@?$DM?$DM?$AA@ 0000000180023d50     libvcruntime:undname.obj
 0002:00000d54       ??_C@_01DCLJPIOD@?$CB?$AA@ 0000000180023d54     libvcruntime:undname.obj
 0002:00000d58       ??_C@_02EGOFBIJA@?$DN?$DN?$AA@ 0000000180023d58     libvcruntime:undname.obj
 0002:00000d5c       ??_C@_02FDNJECIE@?$CB?$DN?$AA@ 0000000180023d5c     libvcruntime:undname.obj
 0002:00000d60       ??_C@_02GPECMEKF@?$FL?$FN?$AA@ 0000000180023d60     libvcruntime:undname.obj
 0002:00000d68       ??_C@_08LHJFAFGD@operator?$AA@ 0000000180023d68     libvcruntime:undname.obj
 0002:00000d74       ??_C@_02HBOOOICD@?9?$DO?$AA@ 0000000180023d74     libvcruntime:undname.obj
 0002:00000d78       ??_C@_01NBENCBCI@?$CK?$AA@ 0000000180023d78     libvcruntime:undname.obj
 0002:00000d7c       ??_C@_02ECNGHCIF@?$CL?$CL?$AA@ 0000000180023d7c     libvcruntime:undname.obj
 0002:00000d80       ??_C@_02BAABKJLB@?9?9?$AA@ 0000000180023d80     libvcruntime:undname.obj
 0002:00000d84       ??_C@_01JOAMLHOP@?9?$AA@   0000000180023d84     libvcruntime:undname.obj
 0002:00000d88       ??_C@_01MIFGBAGJ@?$CL?$AA@ 0000000180023d88     libvcruntime:undname.obj
 0002:00000d8c       ??_C@_01HNPIGOCE@?$CG?$AA@ 0000000180023d8c     libvcruntime:undname.obj
 0002:00000d90       ??_C@_03MNHNFDLC@?9?$DO?$CK?$AA@ 0000000180023d90     libvcruntime:undname.obj
 0002:00000d94       ??_C@_01KMDKNFGN@?1?$AA@   0000000180023d94     libvcruntime:undname.obj
 0002:00000d98       ??_C@_01FGNFDNOH@?$CF?$AA@ 0000000180023d98     libvcruntime:undname.obj
 0002:00000d9c       ??_C@_01MNNFJEPP@?$DM?$AA@ 0000000180023d9c     libvcruntime:undname.obj
 0002:00000da0       ??_C@_02EHCHHCKH@?$DM?$DN?$AA@ 0000000180023da0     libvcruntime:undname.obj
 0002:00000da4       ??_C@_01PPODPGHN@?$DO?$AA@ 0000000180023da4     libvcruntime:undname.obj
 0002:00000da8       ??_C@_02EEKDKGMJ@?$DO?$DN?$AA@ 0000000180023da8     libvcruntime:undname.obj
 0002:00000dac       ??_C@_01IHBHIGKO@?0?$AA@   0000000180023dac     libvcruntime:undname.obj
 0002:00000db0       ??_C@_01PJKLJHI@?$HO?$AA@  0000000180023db0     libvcruntime:undname.obj
 0002:00000db4       ??_C@_01JKBOJNNK@?$FO?$AA@ 0000000180023db4     libvcruntime:undname.obj
 0002:00000db8       ??_C@_01DNKMNLPK@?$HM?$AA@ 0000000180023db8     libvcruntime:undname.obj
 0002:00000dbc       ??_C@_02PPKAJPJL@?$CG?$CG?$AA@ 0000000180023dbc     libvcruntime:undname.obj
 0002:00000dc0       ??_C@_02NONPIBCD@?$HM?$HM?$AA@ 0000000180023dc0     libvcruntime:undname.obj
 0002:00000dc4       ??_C@_02FPIMKNGF@?$CK?$DN?$AA@ 0000000180023dc4     libvcruntime:undname.obj
 0002:00000dc8       ??_C@_02FOEOMHFC@?$CL?$DN?$AA@ 0000000180023dc8     libvcruntime:undname.obj
 0002:00000dcc       ??_C@_02FKMDLLOA@?9?$DN?$AA@ 0000000180023dcc     libvcruntime:undname.obj
 0002:00000dd0       ??_C@_02FJEHGPIO@?1?$DN?$AA@ 0000000180023dd0     libvcruntime:undname.obj
 0002:00000dd4       ??_C@_02FENAOKFI@?$CF?$DN?$AA@ 0000000180023dd4     libvcruntime:undname.obj
 0002:00000dd8       ??_C@_03IKFCCPFF@?$DO?$DO?$DN?$AA@ 0000000180023dd8     libvcruntime:undname.obj
 0002:00000ddc       ??_C@_03CDNPDDLA@?$DM?$DM?$DN?$AA@ 0000000180023ddc     libvcruntime:undname.obj
 0002:00000de0       ??_C@_02FGJGFEAB@?$CG?$DN?$AA@ 0000000180023de0     libvcruntime:undname.obj
 0002:00000de4       ??_C@_02DHLNPPGH@?$HM?$DN?$AA@ 0000000180023de4     libvcruntime:undname.obj
 0002:00000de8       ??_C@_02MHEGNOJ@?$FO?$DN?$AA@ 0000000180023de8     libvcruntime:undname.obj
 0002:00000df0       ??_C@_09IFPLHPGF@?$GAvftable?8?$AA@ 0000000180023df0     libvcruntime:undname.obj
 0002:00000e00       ??_C@_09BLBHBJP@?$GAvbtable?8?$AA@ 0000000180023e00     libvcruntime:undname.obj
 0002:00000e10       ??_C@_07FEEIOKP@?$GAvcall?8?$AA@ 0000000180023e10     libvcruntime:undname.obj
 0002:00000e18       ??_C@_08LLFFHHDJ@?$GAtypeof?8?$AA@ 0000000180023e18     libvcruntime:undname.obj
 0002:00000e28       ??_C@_0BF@KDPPACIK@?$GAlocal?5static?5guard?8?$AA@ 0000000180023e28     libvcruntime:undname.obj
 0002:00000e40       ??_C@_08OBABFOLI@?$GAstring?8?$AA@ 0000000180023e40     libvcruntime:undname.obj
 0002:00000e50       ??_C@_0BD@JDLKDPAB@?$GAvbase?5destructor?8?$AA@ 0000000180023e50     libvcruntime:undname.obj
 0002:00000e68       ??_C@_0BN@DEGPLNFK@?$GAvector?5deleting?5destructor?8?$AA@ 0000000180023e68     libvcruntime:undname.obj
 0002:00000e88       ??_C@_0BO@OBMKPJIG@?$GAdefault?5constructor?5closure?8?$AA@ 0000000180023e88     libvcruntime:undname.obj
 0002:00000ea8       ??_C@_0BN@IMDCHIKM@?$GAscalar?5deleting?5destructor?8?$AA@ 0000000180023ea8     libvcruntime:undname.obj
 0002:00000ec8       ??_C@_0BO@PFGOCPJJ@?$GAvector?5constructor?5iterator?8?$AA@ 0000000180023ec8     libvcruntime:undname.obj
 0002:00000ee8       ??_C@_0BN@LFPFMEDL@?$GAvector?5destructor?5iterator?8?$AA@ 0000000180023ee8     libvcruntime:undname.obj
 0002:00000f08       ??_C@_0CE@IKBNEHA@?$GAvector?5vbase?5constructor?5iterat@ 0000000180023f08     libvcruntime:undname.obj
 0002:00000f30       ??_C@_0BL@NILFHHPC@?$GAvirtual?5displacement?5map?8?$AA@ 0000000180023f30     libvcruntime:undname.obj
 0002:00000f50       ??_C@_0CB@JONCMFFK@?$GAeh?5vector?5constructor?5iterator?8@ 0000000180023f50     libvcruntime:undname.obj
 0002:00000f78       ??_C@_0CA@GCEOPDGL@?$GAeh?5vector?5destructor?5iterator?8?$AA@ 0000000180023f78     libvcruntime:undname.obj
 0002:00000f98       ??_C@_0CH@OOJPLCPH@?$GAeh?5vector?5vbase?5constructor?5ite@ 0000000180023f98     libvcruntime:undname.obj
 0002:00000fc0       ??_C@_0BL@LLKPOHJI@?$GAcopy?5constructor?5closure?8?$AA@ 0000000180023fc0     libvcruntime:undname.obj
 0002:00000fe0       ??_C@_0BA@KBCDOMBN@?$GAudt?5returning?8?$AA@ 0000000180023fe0     libvcruntime:undname.obj
 0002:00000ff0       ??_C@_03KLGMFNMG@?$GAEH?$AA@ 0000000180023ff0     libvcruntime:undname.obj
 0002:00000ff4       ??_C@_05KHLCHHI@?$GARTTI?$AA@ 0000000180023ff4     libvcruntime:undname.obj
 0002:00001000       ??_C@_0BA@KKLDJDLB@?$GAlocal?5vftable?8?$AA@ 0000000180024000     libvcruntime:undname.obj
 0002:00001010       ??_C@_0CE@IIHCMGGL@?$GAlocal?5vftable?5constructor?5closu@ 0000000180024010     libvcruntime:undname.obj
 0002:00001034       ??_C@_06FHBGPFGH@?5new?$FL?$FN?$AA@ 0000000180024034     libvcruntime:undname.obj
 0002:00001040       ??_C@_09LBNFPBCA@?5delete?$FL?$FN?$AA@ 0000000180024040     libvcruntime:undname.obj
 0002:00001050       ??_C@_0P@HJKNJFNN@?$GAomni?5callsig?8?$AA@ 0000000180024050     libvcruntime:undname.obj
 0002:00001060       ??_C@_0BL@CNOONJFP@?$GAplacement?5delete?5closure?8?$AA@ 0000000180024060     libvcruntime:undname.obj
 0002:00001080       ??_C@_0BN@CKNJLHMB@?$GAplacement?5delete?$FL?$FN?5closure?8?$AA@ 0000000180024080     libvcruntime:undname.obj
 0002:000010a0       ??_C@_0CG@CFDHKGGD@?$GAmanaged?5vector?5constructor?5iter@ 00000001800240a0     libvcruntime:undname.obj
 0002:000010c8       ??_C@_0CF@IMGKMJNO@?$GAmanaged?5vector?5destructor?5itera@ 00000001800240c8     libvcruntime:undname.obj
 0002:000010f0       ??_C@_0CG@HLDDJMAG@?$GAeh?5vector?5copy?5constructor?5iter@ 00000001800240f0     libvcruntime:undname.obj
 0002:00001118       ??_C@_0CM@FCBBDIGB@?$GAeh?5vector?5vbase?5copy?5constructo@ 0000000180024118     libvcruntime:undname.obj
 0002:00001148       ??_C@_0BL@CLIPGLGB@?$GAdynamic?5initializer?5for?5?8?$AA@ 0000000180024148     libvcruntime:undname.obj
 0002:00001168       ??_C@_0CB@PDBIFEP@?$GAdynamic?5atexit?5destructor?5for?5?8@ 0000000180024168     libvcruntime:undname.obj
 0002:00001190       ??_C@_0CD@CGAJBKEJ@?$GAvector?5copy?5constructor?5iterato@ 0000000180024190     libvcruntime:undname.obj
 0002:000011b8       ??_C@_0CJ@GJELGAMM@?$GAvector?5vbase?5copy?5constructor?5i@ 00000001800241b8     libvcruntime:undname.obj
 0002:000011e8       ??_C@_0CL@FGIJHLCE@?$GAmanaged?5vector?5copy?5constructor@ 00000001800241e8     libvcruntime:undname.obj
 0002:00001218       ??_C@_0BM@PMGGMLDN@?$GAlocal?5static?5thread?5guard?8?$AA@ 0000000180024218     libvcruntime:undname.obj
 0002:00001238       ??_C@_0N@BDNMDMOL@operator?5?$CC?$CC?5?$AA@ 0000000180024238     libvcruntime:undname.obj
 0002:00001248       ??_C@_0BC@DAFEJGAK@?5Type?5Descriptor?8?$AA@ 0000000180024248     libvcruntime:undname.obj
 0002:00001260       ??_C@_0BM@LDKODKLH@?5Base?5Class?5Descriptor?5at?5?$CI?$AA@ 0000000180024260     libvcruntime:undname.obj
 0002:00001280       ??_C@_0BD@LGICGFMM@?5Base?5Class?5Array?8?$AA@ 0000000180024280     libvcruntime:undname.obj
 0002:00001298       ??_C@_0BN@MECKDCOJ@?5Class?5Hierarchy?5Descriptor?8?$AA@ 0000000180024298     libvcruntime:undname.obj
 0002:000012b8       ??_C@_0BK@CFCOFLF@?5Complete?5Object?5Locator?8?$AA@ 00000001800242b8     libvcruntime:undname.obj
 0002:000012e0       ??_C@_1EK@MBDPDCGA@?$AAM?$AAi?$AAc?$AAr?$AAo?$AAs?$AAo?$AAf?$AAt?$AA?5?$AAV?$AAi?$AAs?$AAu?$AAa?$AAl?$AA?5?$AAC?$AA?$CL?$AA?$CL?$AA?5?$AAR?$AAu?$AAn?$AAt?$AAi?$AAm?$AAe?$AA?5?$AAL?$AAi?$AAb@ 00000001800242e0     libucrt:assert.obj
 0002:00001330       ??_C@_1FE@LHBLIKM@?$AAA?$AAs?$AAs?$AAe?$AAr?$AAt?$AAi?$AAo?$AAn?$AA?5?$AAf?$AAa?$AAi?$AAl?$AAe?$AAd?$AA?3?$AA?5?$AA?$CF?$AAT?$AAs?$AA?0?$AA?5?$AAf?$AAi?$AAl?$AAe?$AA?5?$AA?$CF?$AAT?$AAs?$AA?0@ 0000000180024330     libucrt:assert.obj
 0002:00001388       ??_C@_1CE@OJBNHDMO@?$AAA?$AAs?$AAs?$AAe?$AAr?$AAt?$AAi?$AAo?$AAn?$AA?5?$AAf?$AAa?$AAi?$AAl?$AAe?$AAd?$AA?$CB?$AA?$AA@ 0000000180024388     libucrt:assert.obj
 0002:000013b0       ??_C@_1BE@PHKBBGE@?$AAP?$AAr?$AAo?$AAg?$AAr?$AAa?$AAm?$AA?3?$AA?5?$AA?$AA@ 00000001800243b0     libucrt:assert.obj
 0002:000013c8       ??_C@_1O@HEMHKNDC@?$AAF?$AAi?$AAl?$AAe?$AA?3?$AA?5?$AA?$AA@ 00000001800243c8     libucrt:assert.obj
 0002:000013d8       ??_C@_1O@KCAFKHJE@?$AAL?$AAi?$AAn?$AAe?$AA?3?$AA?5?$AA?$AA@ 00000001800243d8     libucrt:assert.obj
 0002:000013e8       ??_C@_1BK@PEDCIPMA@?$AAE?$AAx?$AAp?$AAr?$AAe?$AAs?$AAs?$AAi?$AAo?$AAn?$AA?3?$AA?5?$AA?$AA@ 00000001800243e8     libucrt:assert.obj
 0002:00001410       ??_C@_1OA@EGMLFBHJ@?$AAF?$AAo?$AAr?$AA?5?$AAi?$AAn?$AAf?$AAo?$AAr?$AAm?$AAa?$AAt?$AAi?$AAo?$AAn?$AA?5?$AAo?$AAn?$AA?5?$AAh?$AAo?$AAw?$AA?5?$AAy?$AAo?$AAu?$AAr?$AA?5?$AAp?$AAr?$AAo?$AAg@ 0000000180024410     libucrt:assert.obj
 0002:000014f0       ??_C@_1HK@POCJMFGK@?$AA?$CI?$AAP?$AAr?$AAe?$AAs?$AAs?$AA?5?$AAR?$AAe?$AAt?$AAr?$AAy?$AA?5?$AAt?$AAo?$AA?5?$AAd?$AAe?$AAb?$AAu?$AAg?$AA?5?$AAt?$AAh?$AAe?$AA?5?$AAa?$AAp?$AAp?$AAl?$AAi?$AAc@ 00000001800244f0     libucrt:assert.obj
 0002:00001570       ??_C@_17LGKOMLJ@?$AA?4?$AA?4?$AA?4?$AA?$AA@ 0000000180024570     libucrt:assert.obj
 0002:00001578       ??_C@_13LBAGMAIH@?$AA?6?$AA?$AA@ 0000000180024578     libucrt:assert.obj
 0002:0000157c       ??_C@_15IABLJNFO@?$AA?6?$AA?6?$AA?$AA@ 000000018002457c     libucrt:assert.obj
 0002:00001588       ??_C@_1CO@EAEJAADC@?$AA?$DM?$AAp?$AAr?$AAo?$AAg?$AAr?$AAa?$AAm?$AA?5?$AAn?$AAa?$AAm?$AAe?$AA?5?$AAu?$AAn?$AAk?$AAn?$AAo?$AAw?$AAn?$AA?$DO?$AA?$AA@ 0000000180024588     libucrt:assert.obj
 0002:000015c0       standard_lookup_table      00000001800245c0     libucrt:output.obj
 0002:00001620       format_validation_lookup_table 0000000180024620     libucrt:output.obj
 0002:0000167c       ??_C@_06OJHGLDPL@?$CInull?$CJ?$AA@ 000000018002467c     libucrt:output.obj
 0002:00001688       ??_C@_1O@CEDCILHN@?$AA?$CI?$AAn?$AAu?$AAl?$AAl?$AA?$CJ?$AA?$AA@ 0000000180024688     libucrt:output.obj
 0002:000016a0       __acrt_exception_action_table 00000001800246a0     libucrt:exception_filter.obj
 0002:00001760       __acrt_signal_action_table_count 0000000180024760     libucrt:exception_filter.obj
 0002:00001768       __acrt_signal_action_first_fpe_index 0000000180024768     libucrt:exception_filter.obj
 0002:00001770       __acrt_signal_action_fpe_count 0000000180024770     libucrt:exception_filter.obj
 0002:00001778       ??_C@_1BI@BGOHAHKC@?$AAm?$AAs?$AAc?$AAo?$AAr?$AAe?$AAe?$AA?4?$AAd?$AAl?$AAl?$AA?$AA@ 0000000180024778     libucrt:exit.obj
 0002:00001790       ??_C@_0P@MIGLKIOC@CorExitProcess?$AA@ 0000000180024790     libucrt:exit.obj
 0002:000019f8       ??_C@_03OEIAHPBN@INF?$AA@  00000001800249f8     libucrt:cvt.obj
 0002:000019fc       ??_C@_03OJHLLCGB@inf?$AA@  00000001800249fc     libucrt:cvt.obj
 0002:00001a00       ??_C@_03LKNCIKJB@NAN?$AA@  0000000180024a00     libucrt:cvt.obj
 0002:00001a04       ??_C@_03LHCJEHON@nan?$AA@  0000000180024a04     libucrt:cvt.obj
 0002:00001a08       ??_C@_09OFJJIMPC@NAN?$CISNAN?$CJ?$AA@ 0000000180024a08     libucrt:cvt.obj
 0002:00001a18       ??_C@_09IPFBKMDL@nan?$CIsnan?$CJ?$AA@ 0000000180024a18     libucrt:cvt.obj
 0002:00001a28       ??_C@_08IKHNHAJ@NAN?$CIIND?$CJ?$AA@ 0000000180024a28     libucrt:cvt.obj
 0002:00001a38       ??_C@_08OFCDMILK@nan?$CIind?$CJ?$AA@ 0000000180024a38     libucrt:cvt.obj
 0002:00001a44       ??_C@_05KLBDPFGC@e?$CL000?$AA@ 0000000180024a44     libucrt:cvt.obj
 0002:00001a50       __lc_time_c                0000000180024a50     libucrt:nlsdata.obj
 0002:00001d10       ??_C@_03KOEHGMDN@Sun?$AA@  0000000180024d10     libucrt:nlsdata.obj
 0002:00001d14       ??_C@_03PDAGKDH@Mon?$AA@   0000000180024d14     libucrt:nlsdata.obj
 0002:00001d18       ??_C@_03NAGEINEP@Tue?$AA@  0000000180024d18     libucrt:nlsdata.obj
 0002:00001d1c       ??_C@_03MHOMLAJA@Wed?$AA@  0000000180024d1c     libucrt:nlsdata.obj
 0002:00001d20       ??_C@_03IOFIKPDN@Thu?$AA@  0000000180024d20     libucrt:nlsdata.obj
 0002:00001d24       ??_C@_03IDIOELNC@Fri?$AA@  0000000180024d24     libucrt:nlsdata.obj
 0002:00001d28       ??_C@_03FEFJNEK@Sat?$AA@   0000000180024d28     libucrt:nlsdata.obj
 0002:00001d2c       ??_C@_06OOPIFAJ@Sunday?$AA@ 0000000180024d2c     libucrt:nlsdata.obj
 0002:00001d34       ??_C@_06JLEDEDGH@Monday?$AA@ 0000000180024d34     libucrt:nlsdata.obj
 0002:00001d40       ??_C@_07BAAGCFCM@Tuesday?$AA@ 0000000180024d40     libucrt:nlsdata.obj
 0002:00001d48       ??_C@_09DLIGFAKA@Wednesday?$AA@ 0000000180024d48     libucrt:nlsdata.obj
 0002:00001d58       ??_C@_08HACCIKIA@Thursday?$AA@ 0000000180024d58     libucrt:nlsdata.obj
 0002:00001d64       ??_C@_06JECMNKMI@Friday?$AA@ 0000000180024d64     libucrt:nlsdata.obj
 0002:00001d70       ??_C@_08INBOOONO@Saturday?$AA@ 0000000180024d70     libucrt:nlsdata.obj
 0002:00001d7c       ??_C@_03JIHJHPIE@Jan?$AA@  0000000180024d7c     libucrt:nlsdata.obj
 0002:00001d80       ??_C@_03HJBDCHOM@Feb?$AA@  0000000180024d80     libucrt:nlsdata.obj
 0002:00001d84       ??_C@_03ODNJBKGA@Mar?$AA@  0000000180024d84     libucrt:nlsdata.obj
 0002:00001d88       ??_C@_03LEOLGMJP@Apr?$AA@  0000000180024d88     libucrt:nlsdata.obj
 0002:00001d8c       ??_C@_03CNMDKL@May?$AA@    0000000180024d8c     libucrt:nlsdata.obj
 0002:00001d90       ??_C@_03IDFGHECI@Jun?$AA@  0000000180024d90     libucrt:nlsdata.obj
 0002:00001d94       ??_C@_03LBGABGKK@Jul?$AA@  0000000180024d94     libucrt:nlsdata.obj
 0002:00001d98       ??_C@_03IFJFEIGA@Aug?$AA@  0000000180024d98     libucrt:nlsdata.obj
 0002:00001d9c       ??_C@_03GGCAPAJC@Sep?$AA@  0000000180024d9c     libucrt:nlsdata.obj
 0002:00001da0       ??_C@_03BMAOKBAD@Oct?$AA@  0000000180024da0     libucrt:nlsdata.obj
 0002:00001da4       ??_C@_03JPJOFNIA@Nov?$AA@  0000000180024da4     libucrt:nlsdata.obj
 0002:00001da8       ??_C@_03MKABNOCG@Dec?$AA@  0000000180024da8     libucrt:nlsdata.obj
 0002:00001db0       ??_C@_07CGJPFGJA@January?$AA@ 0000000180024db0     libucrt:nlsdata.obj
 0002:00001db8       ??_C@_08GNJGEPFN@February?$AA@ 0000000180024db8     libucrt:nlsdata.obj
 0002:00001dc4       ??_C@_05HPCKOFNC@March?$AA@ 0000000180024dc4     libucrt:nlsdata.obj
 0002:00001dcc       ??_C@_05DMJDNLEJ@April?$AA@ 0000000180024dcc     libucrt:nlsdata.obj
 0002:00001dd4       ??_C@_04CNLMGBGM@June?$AA@ 0000000180024dd4     libucrt:nlsdata.obj
 0002:00001ddc       ??_C@_04MIEPOIFP@July?$AA@ 0000000180024ddc     libucrt:nlsdata.obj
 0002:00001de4       ??_C@_06LBBHFDDG@August?$AA@ 0000000180024de4     libucrt:nlsdata.obj
 0002:00001df0       ??_C@_09BHHEALKD@September?$AA@ 0000000180024df0     libucrt:nlsdata.obj
 0002:00001e00       ??_C@_07JJNFCEND@October?$AA@ 0000000180024e00     libucrt:nlsdata.obj
 0002:00001e08       ??_C@_08HCHEGEOA@November?$AA@ 0000000180024e08     libucrt:nlsdata.obj
 0002:00001e18       ??_C@_08EDHMEBNP@December?$AA@ 0000000180024e18     libucrt:nlsdata.obj
 0002:00001e24       ??_C@_02DEDBPAFC@AM?$AA@   0000000180024e24     libucrt:nlsdata.obj
 0002:00001e28       ??_C@_02CJNFDJBF@PM?$AA@   0000000180024e28     libucrt:nlsdata.obj
 0002:00001e30       ??_C@_08BPBNCDIB@MM?1dd?1yy?$AA@ 0000000180024e30     libucrt:nlsdata.obj
 0002:00001e40       ??_C@_0BE@CKGJFCPC@dddd?0?5MMMM?5dd?0?5yyyy?$AA@ 0000000180024e40     libucrt:nlsdata.obj
 0002:00001e58       ??_C@_08JCCMCCIL@HH?3mm?3ss?$AA@ 0000000180024e58     libucrt:nlsdata.obj
 0002:00001e68       ??_C@_17MBGCMIPB@?$AAS?$AAu?$AAn?$AA?$AA@ 0000000180024e68     libucrt:nlsdata.obj
 0002:00001e70       ??_C@_17KBOMKBF@?$AAM?$AAo?$AAn?$AA?$AA@ 0000000180024e70     libucrt:nlsdata.obj
 0002:00001e78       ??_C@_17BMKGEGOJ@?$AAT?$AAu?$AAe?$AA?$AA@ 0000000180024e78     libucrt:nlsdata.obj
 0002:00001e80       ??_C@_17CJEDCEPE@?$AAW?$AAe?$AAd?$AA?$AA@ 0000000180024e80     libucrt:nlsdata.obj
 0002:00001e88       ??_C@_17PDPHAADD@?$AAT?$AAh?$AAu?$AA?$AA@ 0000000180024e88     libucrt:nlsdata.obj
 0002:00001e90       ??_C@_17HFOLPPLP@?$AAF?$AAr?$AAi?$AA?$AA@ 0000000180024e90     libucrt:nlsdata.obj
 0002:00001e98       ??_C@_17GGIBDPIH@?$AAS?$AAa?$AAt?$AA?$AA@ 0000000180024e98     libucrt:nlsdata.obj
 0002:00001ea0       ??_C@_1O@IHNHDHPB@?$AAS?$AAu?$AAn?$AAd?$AAa?$AAy?$AA?$AA@ 0000000180024ea0     libucrt:nlsdata.obj
 0002:00001eb0       ??_C@_1O@MMNBFLIA@?$AAM?$AAo?$AAn?$AAd?$AAa?$AAy?$AA?$AA@ 0000000180024eb0     libucrt:nlsdata.obj
 0002:00001ec0       ??_C@_1BA@ENFBFFEK@?$AAT?$AAu?$AAe?$AAs?$AAd?$AAa?$AAy?$AA?$AA@ 0000000180024ec0     libucrt:nlsdata.obj
 0002:00001ed0       ??_C@_1BE@EBOGMDOH@?$AAW?$AAe?$AAd?$AAn?$AAe?$AAs?$AAd?$AAa?$AAy?$AA?$AA@ 0000000180024ed0     libucrt:nlsdata.obj
 0002:00001ee8       ??_C@_1BC@HHMNLIHE@?$AAT?$AAh?$AAu?$AAr?$AAs?$AAd?$AAa?$AAy?$AA?$AA@ 0000000180024ee8     libucrt:nlsdata.obj
 0002:00001f00       ??_C@_1O@PDICJHAG@?$AAF?$AAr?$AAi?$AAd?$AAa?$AAy?$AA?$AA@ 0000000180024f00     libucrt:nlsdata.obj
 0002:00001f10       ??_C@_1BC@ENMNNPAJ@?$AAS?$AAa?$AAt?$AAu?$AAr?$AAd?$AAa?$AAy?$AA?$AA@ 0000000180024f10     libucrt:nlsdata.obj
 0002:00001f28       ??_C@_17DKNBKCHM@?$AAJ?$AAa?$AAn?$AA?$AA@ 0000000180024f28     libucrt:nlsdata.obj
 0002:00001f30       ??_C@_17LMDJEKJN@?$AAF?$AAe?$AAb?$AA?$AA@ 0000000180024f30     libucrt:nlsdata.obj
 0002:00001f38       ??_C@_17CKNLEDEC@?$AAM?$AAa?$AAr?$AA?$AA@ 0000000180024f38     libucrt:nlsdata.obj
 0002:00001f40       ??_C@_17LFPOIHDD@?$AAA?$AAp?$AAr?$AA?$AA@ 0000000180024f40     libucrt:nlsdata.obj
 0002:00001f48       ??_C@_17PNNKMEED@?$AAM?$AAa?$AAy?$AA?$AA@ 0000000180024f48     libucrt:nlsdata.obj
 0002:00001f50       ??_C@_17KCJGOCPB@?$AAJ?$AAu?$AAn?$AA?$AA@ 0000000180024f50     libucrt:nlsdata.obj
 0002:00001f58       ??_C@_17IJPCKHK@?$AAJ?$AAu?$AAl?$AA?$AA@ 0000000180024f58     libucrt:nlsdata.obj
 0002:00001f60       ??_C@_17ICPELBCN@?$AAA?$AAu?$AAg?$AA?$AA@ 0000000180024f60     libucrt:nlsdata.obj
 0002:00001f68       ??_C@_17HCHCOKMG@?$AAS?$AAe?$AAp?$AA?$AA@ 0000000180024f68     libucrt:nlsdata.obj
 0002:00001f70       ??_C@_17FNLKOI@?$AAO?$AAc?$AAt?$AA?$AA@ 0000000180024f70     libucrt:nlsdata.obj
 0002:00001f78       ??_C@_17BBDMLCIG@?$AAN?$AAo?$AAv?$AA?$AA@ 0000000180024f78     libucrt:nlsdata.obj
 0002:00001f80       ??_C@_17EGKACKIF@?$AAD?$AAe?$AAc?$AA?$AA@ 0000000180024f80     libucrt:nlsdata.obj
 0002:00001f88       ??_C@_1BA@EFMEIEBA@?$AAJ?$AAa?$AAn?$AAu?$AAa?$AAr?$AAy?$AA?$AA@ 0000000180024f88     libucrt:nlsdata.obj
 0002:00001f98       ??_C@_1BC@JGDDFFAM@?$AAF?$AAe?$AAb?$AAr?$AAu?$AAa?$AAr?$AAy?$AA?$AA@ 0000000180024f98     libucrt:nlsdata.obj
 0002:00001fb0       ??_C@_1M@IKEENEDF@?$AAM?$AAa?$AAr?$AAc?$AAh?$AA?$AA@ 0000000180024fb0     libucrt:nlsdata.obj
 0002:00001fc0       ??_C@_1M@GJNLMHFD@?$AAA?$AAp?$AAr?$AAi?$AAl?$AA?$AA@ 0000000180024fc0     libucrt:nlsdata.obj
 0002:00001fd0       ??_C@_19EPFLPGAP@?$AAJ?$AAu?$AAn?$AAe?$AA?$AA@ 0000000180024fd0     libucrt:nlsdata.obj
 0002:00001fe0       ??_C@_19BIFMLPCD@?$AAJ?$AAu?$AAl?$AAy?$AA?$AA@ 0000000180024fe0     libucrt:nlsdata.obj
 0002:00001ff0       ??_C@_1O@PAHLKOAC@?$AAA?$AAu?$AAg?$AAu?$AAs?$AAt?$AA?$AA@ 0000000180024ff0     libucrt:nlsdata.obj
 0002:00002000       ??_C@_1BE@DKAAMBJL@?$AAS?$AAe?$AAp?$AAt?$AAe?$AAm?$AAb?$AAe?$AAr?$AA?$AA@ 0000000180025000     libucrt:nlsdata.obj
 0002:00002018       ??_C@_1BA@EPANDLNG@?$AAO?$AAc?$AAt?$AAo?$AAb?$AAe?$AAr?$AA?$AA@ 0000000180025018     libucrt:nlsdata.obj
 0002:00002028       ??_C@_1BC@BGLIFPF@?$AAN?$AAo?$AAv?$AAe?$AAm?$AAb?$AAe?$AAr?$AA?$AA@ 0000000180025028     libucrt:nlsdata.obj
 0002:00002040       ??_C@_1BC@FEMKIFH@?$AAD?$AAe?$AAc?$AAe?$AAm?$AAb?$AAe?$AAr?$AA?$AA@ 0000000180025040     libucrt:nlsdata.obj
 0002:00002054       ??_C@_15ODEHAHHF@?$AAA?$AAM?$AA?$AA@ 0000000180025054     libucrt:nlsdata.obj
 0002:0000205c       ??_C@_15CLMNNGEL@?$AAP?$AAM?$AA?$AA@ 000000018002505c     libucrt:nlsdata.obj
 0002:00002068       ??_C@_1BC@IEBCMHCM@?$AAM?$AAM?$AA?1?$AAd?$AAd?$AA?1?$AAy?$AAy?$AA?$AA@ 0000000180025068     libucrt:nlsdata.obj
 0002:00002080       ??_C@_1CI@KNAKOEBC@?$AAd?$AAd?$AAd?$AAd?$AA?0?$AA?5?$AAM?$AAM?$AAM?$AAM?$AA?5?$AAd?$AAd?$AA?0?$AA?5?$AAy?$AAy?$AAy?$AAy?$AA?$AA@ 0000000180025080     libucrt:nlsdata.obj
 0002:000020a8       ??_C@_1BC@GDGBMEMK@?$AAH?$AAH?$AA?3?$AAm?$AAm?$AA?3?$AAs?$AAs?$AA?$AA@ 00000001800250a8     libucrt:nlsdata.obj
 0002:000020c0       ??_C@_1M@BMHNFIME@?$AAe?$AAn?$AA?9?$AAU?$AAS?$AA?$AA@ 00000001800250c0     libucrt:nlsdata.obj
 0002:000020cc       ??_C@_02CLFPBFFP@TZ?$AA@   00000001800250cc     libucrt:tzset.obj
 0002:000020d0       _days                      00000001800250d0     libucrt:days.obj
 0002:00002108       _lpdays                    0000000180025108     libucrt:days.obj
 0002:00002140       __newctype                 0000000180025140     libucrt:ctype.obj
 0002:00002440       __newclmap                 0000000180025440     libucrt:ctype.obj
 0002:000025c0       __newcumap                 00000001800255c0     libucrt:ctype.obj
 0002:00002740       _wctype                    0000000180025740     libucrt:ctype.obj
 0002:000029f0       ??_C@_1EG@CNNIPFIM@?$AAa?$AAp?$AAi?$AA?9?$AAm?$AAs?$AA?9?$AAw?$AAi?$AAn?$AA?9?$AAa?$AAp?$AAp?$AAm?$AAo?$AAd?$AAe?$AAl?$AA?9?$AAr?$AAu?$AAn?$AAt?$AAi?$AAm?$AAe?$AA?9?$AAl?$AA1?$AA?9?$AA1@ 00000001800259f0     libucrt:winapi_thunks.obj
 0002:00002a40       ??_C@_1EA@JGEFHKEI@?$AAa?$AAp?$AAi?$AA?9?$AAm?$AAs?$AA?9?$AAw?$AAi?$AAn?$AA?9?$AAc?$AAo?$AAr?$AAe?$AA?9?$AAd?$AAa?$AAt?$AAe?$AAt?$AAi?$AAm?$AAe?$AA?9?$AAl?$AA1?$AA?9?$AA1?$AA?9?$AA1?$AA?$AA@ 0000000180025a40     libucrt:winapi_thunks.obj
 0002:00002a80       ??_C@_1DI@GCIAAENM@?$AAa?$AAp?$AAi?$AA?9?$AAm?$AAs?$AA?9?$AAw?$AAi?$AAn?$AA?9?$AAc?$AAo?$AAr?$AAe?$AA?9?$AAf?$AAi?$AAl?$AAe?$AA?9?$AAl?$AA2?$AA?9?$AA1?$AA?9?$AA1?$AA?$AA@ 0000000180025a80     libucrt:winapi_thunks.obj
 0002:00002ac0       ??_C@_1EI@MPIAOHOC@?$AAa?$AAp?$AAi?$AA?9?$AAm?$AAs?$AA?9?$AAw?$AAi?$AAn?$AA?9?$AAc?$AAo?$AAr?$AAe?$AA?9?$AAl?$AAo?$AAc?$AAa?$AAl?$AAi?$AAz?$AAa?$AAt?$AAi?$AAo?$AAn?$AA?9?$AAl?$AA1?$AA?9@ 0000000180025ac0     libucrt:winapi_thunks.obj
 0002:00002b10       ??_C@_1FK@FPHCKFIE@?$AAa?$AAp?$AAi?$AA?9?$AAm?$AAs?$AA?9?$AAw?$AAi?$AAn?$AA?9?$AAc?$AAo?$AAr?$AAe?$AA?9?$AAl?$AAo?$AAc?$AAa?$AAl?$AAi?$AAz?$AAa?$AAt?$AAi?$AAo?$AAn?$AA?9?$AAo?$AAb?$AAs@ 0000000180025b10     libucrt:winapi_thunks.obj
 0002:00002b70       ??_C@_1EM@DILCGIIO@?$AAa?$AAp?$AAi?$AA?9?$AAm?$AAs?$AA?9?$AAw?$AAi?$AAn?$AA?9?$AAc?$AAo?$AAr?$AAe?$AA?9?$AAp?$AAr?$AAo?$AAc?$AAe?$AAs?$AAs?$AAt?$AAh?$AAr?$AAe?$AAa?$AAd?$AAs?$AA?9?$AAl@ 0000000180025b70     libucrt:winapi_thunks.obj
 0002:00002bc0       ??_C@_1DM@LNCGDDPN@?$AAa?$AAp?$AAi?$AA?9?$AAm?$AAs?$AA?9?$AAw?$AAi?$AAn?$AA?9?$AAc?$AAo?$AAr?$AAe?$AA?9?$AAs?$AAt?$AAr?$AAi?$AAn?$AAg?$AA?9?$AAl?$AA1?$AA?9?$AA1?$AA?9?$AA0?$AA?$AA@ 0000000180025bc0     libucrt:winapi_thunks.obj
 0002:00002c00       ??_C@_1DO@FPAPJEMD@?$AAa?$AAp?$AAi?$AA?9?$AAm?$AAs?$AA?9?$AAw?$AAi?$AAn?$AA?9?$AAc?$AAo?$AAr?$AAe?$AA?9?$AAs?$AAy?$AAs?$AAi?$AAn?$AAf?$AAo?$AA?9?$AAl?$AA1?$AA?9?$AA2?$AA?9?$AA1?$AA?$AA@ 0000000180025c00     libucrt:winapi_thunks.obj
 0002:00002c40       ??_C@_1DK@NDHNAHIO@?$AAa?$AAp?$AAi?$AA?9?$AAm?$AAs?$AA?9?$AAw?$AAi?$AAn?$AA?9?$AAc?$AAo?$AAr?$AAe?$AA?9?$AAw?$AAi?$AAn?$AAr?$AAt?$AA?9?$AAl?$AA1?$AA?9?$AA1?$AA?9?$AA0?$AA?$AA@ 0000000180025c40     libucrt:winapi_thunks.obj
 0002:00002c80       ??_C@_1DM@KGHDGBCM@?$AAa?$AAp?$AAi?$AA?9?$AAm?$AAs?$AA?9?$AAw?$AAi?$AAn?$AA?9?$AAc?$AAo?$AAr?$AAe?$AA?9?$AAx?$AAs?$AAt?$AAa?$AAt?$AAe?$AA?9?$AAl?$AA2?$AA?9?$AA1?$AA?9?$AA0?$AA?$AA@ 0000000180025c80     libucrt:winapi_thunks.obj
 0002:00002cc0       ??_C@_1EO@IJIOEFOH@?$AAa?$AAp?$AAi?$AA?9?$AAm?$AAs?$AA?9?$AAw?$AAi?$AAn?$AA?9?$AAr?$AAt?$AAc?$AAo?$AAr?$AAe?$AA?9?$AAn?$AAt?$AAu?$AAs?$AAe?$AAr?$AA?9?$AAw?$AAi?$AAn?$AAd?$AAo?$AAw?$AA?9@ 0000000180025cc0     libucrt:winapi_thunks.obj
 0002:00002d10       ??_C@_1FG@HHGEKANL@?$AAa?$AAp?$AAi?$AA?9?$AAm?$AAs?$AA?9?$AAw?$AAi?$AAn?$AA?9?$AAs?$AAe?$AAc?$AAu?$AAr?$AAi?$AAt?$AAy?$AA?9?$AAs?$AAy?$AAs?$AAt?$AAe?$AAm?$AAf?$AAu?$AAn?$AAc?$AAt?$AAi@ 0000000180025d10     libucrt:winapi_thunks.obj
 0002:00002d70       ??_C@_1FG@NCKKOLKO@?$AAe?$AAx?$AAt?$AA?9?$AAm?$AAs?$AA?9?$AAw?$AAi?$AAn?$AA?9?$AAk?$AAe?$AAr?$AAn?$AAe?$AAl?$AA3?$AA2?$AA?9?$AAp?$AAa?$AAc?$AAk?$AAa?$AAg?$AAe?$AA?9?$AAc?$AAu?$AAr?$AAr@ 0000000180025d70     libucrt:winapi_thunks.obj
 0002:00002dd0       ??_C@_1EG@DBIOJECG@?$AAe?$AAx?$AAt?$AA?9?$AAm?$AAs?$AA?9?$AAw?$AAi?$AAn?$AA?9?$AAn?$AAt?$AAu?$AAs?$AAe?$AAr?$AA?9?$AAd?$AAi?$AAa?$AAl?$AAo?$AAg?$AAb?$AAo?$AAx?$AA?9?$AAl?$AA1?$AA?9?$AA1@ 0000000180025dd0     libucrt:winapi_thunks.obj
 0002:00002e20       ??_C@_1EO@FIHMJCLF@?$AAe?$AAx?$AAt?$AA?9?$AAm?$AAs?$AA?9?$AAw?$AAi?$AAn?$AA?9?$AAn?$AAt?$AAu?$AAs?$AAe?$AAr?$AA?9?$AAw?$AAi?$AAn?$AAd?$AAo?$AAw?$AAs?$AAt?$AAa?$AAt?$AAi?$AAo?$AAn?$AA?9@ 0000000180025e20     libucrt:winapi_thunks.obj
 0002:00002e70       ??_C@_1O@BCCLBEOE@?$AAu?$AAs?$AAe?$AAr?$AA3?$AA2?$AA?$AA@ 0000000180025e70     libucrt:winapi_thunks.obj
 0002:00002e88       ??_C@_0BA@IHGNDAEB@CompareStringEx?$AA@ 0000000180025e88     libucrt:winapi_thunks.obj
 0002:00002ec0       ??_C@_0BA@HNOPNCHB@GetActiveWindow?$AA@ 0000000180025ec0     libucrt:winapi_thunks.obj
 0002:00002ed8       ??_C@_0BE@JOGNEJCI@GetCurrentPackageId?$AA@ 0000000180025ed8     libucrt:winapi_thunks.obj
 0002:00002ef8       ??_C@_0BD@HHGDFDBJ@GetLastActivePopup?$AA@ 0000000180025ef8     libucrt:winapi_thunks.obj
 0002:00002f18       ??_C@_0BI@DFKBFLJE@GetProcessWindowStation?$AA@ 0000000180025f18     libucrt:winapi_thunks.obj
 0002:00002f38       ??_C@_0BK@DEKFELLI@GetUserObjectInformationW?$AA@ 0000000180025f38     libucrt:winapi_thunks.obj
 0002:00002f68       ??_C@_0O@KKBNKAPF@LCMapStringEx?$AA@ 0000000180025f68     libucrt:winapi_thunks.obj
 0002:00002f80       ??_C@_0BB@HBDEELFH@LocaleNameToLCID?$AA@ 0000000180025f80     libucrt:winapi_thunks.obj
 0002:00002fa0       ??_C@_0M@CHKKJDAI@MessageBoxA?$AA@ 0000000180025fa0     libucrt:winapi_thunks.obj
 0002:00002fb8       ??_C@_0M@DLDCCGNP@MessageBoxW?$AA@ 0000000180025fb8     libucrt:winapi_thunks.obj
 0002:00002fe8       ??_C@_1M@HPNHIDJI@?$AAj?$AAa?$AA?9?$AAJ?$AAP?$AA?$AA@ 0000000180025fe8     libucrt:mbctype.obj
 0002:00002ff8       ??_C@_1M@BIBDDEMK@?$AAz?$AAh?$AA?9?$AAC?$AAN?$AA?$AA@ 0000000180025ff8     libucrt:mbctype.obj
 0002:00003008       ??_C@_1M@JLOOOEGK@?$AAk?$AAo?$AA?9?$AAK?$AAR?$AA?$AA@ 0000000180026008     libucrt:mbctype.obj
 0002:00003018       ??_C@_1M@CLNBBOPM@?$AAz?$AAh?$AA?9?$AAT?$AAW?$AA?$AA@ 0000000180026018     libucrt:mbctype.obj
 0002:00003030       ?large_power_data@?1??multiply_by_power_of_ten@__crt_strtox@@YA_NAEAUbig_integer@2@I@Z@4QBIB 0000000180026030     libucrt:cfout.obj
 0002:00003940       ?large_power_indices@?1??multiply_by_power_of_ten@__crt_strtox@@YA_NAEAUbig_integer@2@I@Z@4QBUunpack_index@?1??12@YA_N0I@Z@B 0000000180026940     libucrt:cfout.obj
 0002:000039d8       ?small_powers_of_ten@?6??multiply_by_power_of_ten@__crt_strtox@@YA_NAEAUbig_integer@2@I@Z@4QBIB 00000001800269d8     libucrt:cfout.obj
 0002:000039fc       ??_C@_01GBGANLPD@0?$AA@    00000001800269fc     libucrt:cfout.obj
 0002:00003a00       ??_C@_05DNEBIAHO@1?$CDINF?$AA@ 0000000180026a00     libucrt:cfout.obj
 0002:00003a08       ??_C@_06IMKFLFPG@1?$CDQNAN?$AA@ 0000000180026a08     libucrt:cfout.obj
 0002:00003a10       ??_C@_06PGGFOGJG@1?$CDSNAN?$AA@ 0000000180026a10     libucrt:cfout.obj
 0002:00003a18       ??_C@_05PHHOCPM@1?$CDIND?$AA@ 0000000180026a18     libucrt:cfout.obj
 0002:00003a20       ??_C@_15PJPFLCCM@?$AAu?$AAk?$AA?$AA@ 0000000180026a20     libucrt:get_qualified_locale.obj
 0002:00004870       ??_C@_15EMKDOKLE@?$AAa?$AAr?$AA?$AA@ 0000000180027870     libucrt:lcidtoname_downlevel.obj
 0002:00004878       ??_C@_15KNPADPLH@?$AAb?$AAg?$AA?$AA@ 0000000180027878     libucrt:lcidtoname_downlevel.obj
 0002:00004880       ??_C@_15EDMHLDMO@?$AAc?$AAa?$AA?$AA@ 0000000180027880     libucrt:lcidtoname_downlevel.obj
 0002:00004888       ??_C@_1O@BPEAJADD@?$AAz?$AAh?$AA?9?$AAC?$AAH?$AAS?$AA?$AA@ 0000000180027888     libucrt:lcidtoname_downlevel.obj
 0002:00004898       ??_C@_15LJNHCMNK@?$AAc?$AAs?$AA?$AA@ 0000000180027898     libucrt:lcidtoname_downlevel.obj
 0002:000048a0       ??_C@_15FOMCIDHG@?$AAd?$AAa?$AA?$AA@ 00000001800278a0     libucrt:lcidtoname_downlevel.obj
 0002:000048a8       ??_C@_15NBKABECB@?$AAd?$AAe?$AA?$AA@ 00000001800278a8     libucrt:lcidtoname_downlevel.obj
 0002:000048b0       ??_C@_15GHPEIIAO@?$AAe?$AAl?$AA?$AA@ 00000001800278b0     libucrt:lcidtoname_downlevel.obj
 0002:000048b8       ??_C@_15MNPNEAIF@?$AAe?$AAn?$AA?$AA@ 00000001800278b8     libucrt:lcidtoname_downlevel.obj
 0002:000048c0       ??_C@_15GPIOMPMH@?$AAe?$AAs?$AA?$AA@ 00000001800278c0     libucrt:lcidtoname_downlevel.obj
 0002:000048c8       ??_C@_15NGLOAKJC@?$AAf?$AAi?$AA?$AA@ 00000001800278c8     libucrt:lcidtoname_downlevel.obj
 0002:000048d0       ??_C@_15FBKGNKAM@?$AAf?$AAr?$AA?$AA@ 00000001800278d0     libucrt:lcidtoname_downlevel.obj
 0002:000048d8       ??_C@_15KGGCNEFK@?$AAh?$AAe?$AA?$AA@ 00000001800278d8     libucrt:lcidtoname_downlevel.obj
 0002:000048e0       ??_C@_15PGHLIDMF@?$AAh?$AAu?$AA?$AA@ 00000001800278e0     libucrt:lcidtoname_downlevel.obj
 0002:000048e8       ??_C@_15BIEMAPLM@?$AAi?$AAs?$AA?$AA@ 00000001800278e8     libucrt:lcidtoname_downlevel.obj
 0002:000048f0       ??_C@_15IFJLDHAF@?$AAi?$AAt?$AA?$AA@ 00000001800278f0     libucrt:lcidtoname_downlevel.obj
 0002:000048f8       ??_C@_15GEMIOCAG@?$AAj?$AAa?$AA?$AA@ 00000001800278f8     libucrt:lcidtoname_downlevel.obj
 0002:00004900       ??_C@_15EPELEGJA@?$AAk?$AAo?$AA?$AA@ 0000000180027900     libucrt:lcidtoname_downlevel.obj
 0002:00004908       ??_C@_15NDDHIMN@?$AAn?$AAl?$AA?$AA@ 0000000180027908     libucrt:lcidtoname_downlevel.obj
 0002:00004910       ??_C@_15BPIGNHCD@?$AAn?$AAo?$AA?$AA@ 0000000180027910     libucrt:lcidtoname_downlevel.obj
 0002:00004918       ??_C@_15DEOPBLCG@?$AAp?$AAl?$AA?$AA@ 0000000180027918     libucrt:lcidtoname_downlevel.obj
 0002:00004920       ??_C@_15KBECGEFG@?$AAp?$AAt?$AA?$AA@ 0000000180027920     libucrt:lcidtoname_downlevel.obj
 0002:00004928       ??_C@_15GLJCBFMD@?$AAr?$AAo?$AA?$AA@ 0000000180027928     libucrt:lcidtoname_downlevel.obj
 0002:00004930       ??_C@_15FEDGKCDI@?$AAr?$AAu?$AA?$AA@ 0000000180027930     libucrt:lcidtoname_downlevel.obj
 0002:00004938       ??_C@_15GLKMLLHM@?$AAh?$AAr?$AA?$AA@ 0000000180027938     libucrt:lcidtoname_downlevel.obj
 0002:00004940       ??_C@_15CPKMFBDB@?$AAs?$AAk?$AA?$AA@ 0000000180027940     libucrt:lcidtoname_downlevel.obj
 0002:00004948       ??_C@_15BAAIOGMK@?$AAs?$AAq?$AA?$AA@ 0000000180027948     libucrt:lcidtoname_downlevel.obj
 0002:00004950       ??_C@_15INNPNOHD@?$AAs?$AAv?$AA?$AA@ 0000000180027950     libucrt:lcidtoname_downlevel.obj
 0002:00004958       ??_C@_15CABMMOGH@?$AAt?$AAh?$AA?$AA@ 0000000180027958     libucrt:lcidtoname_downlevel.obj
 0002:00004960       ??_C@_15BPLIHJJM@?$AAt?$AAr?$AA?$AA@ 0000000180027960     libucrt:lcidtoname_downlevel.obj
 0002:00004968       ??_C@_15NEOEKKDJ@?$AAu?$AAr?$AA?$AA@ 0000000180027968     libucrt:lcidtoname_downlevel.obj
 0002:00004970       ??_C@_15NFICGAJK@?$AAi?$AAd?$AA?$AA@ 0000000180027970     libucrt:lcidtoname_downlevel.obj
 0002:00004978       ??_C@_15HPJPHDM@?$AAb?$AAe?$AA?$AA@ 0000000180027978     libucrt:lcidtoname_downlevel.obj
 0002:00004980       ??_C@_15LCHLGJII@?$AAs?$AAl?$AA?$AA@ 0000000180027980     libucrt:lcidtoname_downlevel.obj
 0002:00004988       ??_C@_15PCFJPHHO@?$AAe?$AAt?$AA?$AA@ 0000000180027988     libucrt:lcidtoname_downlevel.obj
 0002:00004990       ??_C@_15HPFPGODN@?$AAl?$AAv?$AA?$AA@ 0000000180027990     libucrt:lcidtoname_downlevel.obj
 0002:00004998       ??_C@_15NFFGKGLG@?$AAl?$AAt?$AA?$AA@ 0000000180027998     libucrt:lcidtoname_downlevel.obj
 0002:000049a0       ??_C@_15BDAKCCHN@?$AAf?$AAa?$AA?$AA@ 00000001800279a0     libucrt:lcidtoname_downlevel.obj
 0002:000049a8       ??_C@_15NFGIAIAJ@?$AAv?$AAi?$AA?$AA@ 00000001800279a8     libucrt:lcidtoname_downlevel.obj
 0002:000049b0       ??_C@_15LMKNDMHN@?$AAh?$AAy?$AA?$AA@ 00000001800279b0     libucrt:lcidtoname_downlevel.obj
 0002:000049b8       ??_C@_15IJBHMCFL@?$AAa?$AAz?$AA?$AA@ 00000001800279b8     libucrt:lcidtoname_downlevel.obj
 0002:000049c0       ??_C@_15EKOFJABL@?$AAe?$AAu?$AA?$AA@ 00000001800279c0     libucrt:lcidtoname_downlevel.obj
 0002:000049c8       ??_C@_15BGHADCNK@?$AAm?$AAk?$AA?$AA@ 00000001800279c8     libucrt:lcidtoname_downlevel.obj
 0002:000049d0       ??_C@_15JDNICKHM@?$AAa?$AAf?$AA?$AA@ 00000001800279d0     libucrt:lcidtoname_downlevel.obj
 0002:000049d8       ??_C@_15KPJEDBKD@?$AAk?$AAa?$AA?$AA@ 00000001800279d8     libucrt:lcidtoname_downlevel.obj
 0002:000049e0       ??_C@_15PDNFFFEO@?$AAf?$AAo?$AA?$AA@ 00000001800279e0     libucrt:lcidtoname_downlevel.obj
 0002:000049e8       ??_C@_15OMLEGLOC@?$AAh?$AAi?$AA?$AA@ 00000001800279e8     libucrt:lcidtoname_downlevel.obj
 0002:000049f0       ??_C@_15IDNNENKK@?$AAm?$AAs?$AA?$AA@ 00000001800279f0     libucrt:lcidtoname_downlevel.obj
 0002:000049f8       ??_C@_15MACJNBMH@?$AAk?$AAk?$AA?$AA@ 00000001800279f8     libucrt:lcidtoname_downlevel.obj
 0002:00004a00       ??_C@_15DKDJEOND@?$AAk?$AAy?$AA?$AA@ 0000000180027a00     libucrt:lcidtoname_downlevel.obj
 0002:00004a08       ??_C@_15DFGDLJBG@?$AAs?$AAw?$AA?$AA@ 0000000180027a08     libucrt:lcidtoname_downlevel.obj
 0002:00004a10       ??_C@_15BBFAICNG@?$AAu?$AAz?$AA?$AA@ 0000000180027a10     libucrt:lcidtoname_downlevel.obj
 0002:00004a18       ??_C@_15DKNDCGEA@?$AAt?$AAt?$AA?$AA@ 0000000180027a18     libucrt:lcidtoname_downlevel.obj
 0002:00004a20       ??_C@_15MGIFMDPL@?$AAp?$AAa?$AA?$AA@ 0000000180027a20     libucrt:lcidtoname_downlevel.obj
 0002:00004a28       ??_C@_15HCNDBBA@?$AAg?$AAu?$AA?$AA@ 0000000180027a28     libucrt:lcidtoname_downlevel.obj
 0002:00004a30       ??_C@_15FNBEIBON@?$AAt?$AAa?$AA?$AA@ 0000000180027a30     libucrt:lcidtoname_downlevel.obj
 0002:00004a38       ??_C@_15NCHGBGLK@?$AAt?$AAe?$AA?$AA@ 0000000180027a38     libucrt:lcidtoname_downlevel.obj
 0002:00004a40       ??_C@_15PHPHCBPF@?$AAk?$AAn?$AA?$AA@ 0000000180027a40     libucrt:lcidtoname_downlevel.obj
 0002:00004a48       ??_C@_15DLGBCKMP@?$AAm?$AAr?$AA?$AA@ 0000000180027a48     libucrt:lcidtoname_downlevel.obj
 0002:00004a50       ??_C@_15EABBLBFF@?$AAs?$AAa?$AA?$AA@ 0000000180027a50     libucrt:lcidtoname_downlevel.obj
 0002:00004a58       ??_C@_15CBKOMCOI@?$AAm?$AAn?$AA?$AA@ 0000000180027a58     libucrt:lcidtoname_downlevel.obj
 0002:00004a60       ??_C@_15CKDMCJAF@?$AAg?$AAl?$AA?$AA@ 0000000180027a60     libucrt:lcidtoname_downlevel.obj
 0002:00004a68       ??_C@_17CNJFBPG@?$AAk?$AAo?$AAk?$AA?$AA@ 0000000180027a68     libucrt:lcidtoname_downlevel.obj
 0002:00004a70       ??_C@_17FFBJICPL@?$AAs?$AAy?$AAr?$AA?$AA@ 0000000180027a70     libucrt:lcidtoname_downlevel.obj
 0002:00004a78       ??_C@_17KPNDCPAF@?$AAd?$AAi?$AAv?$AA?$AA@ 0000000180027a78     libucrt:lcidtoname_downlevel.obj
 0002:00004a80       ??_C@_1M@OKAHONE@?$AAa?$AAr?$AA?9?$AAS?$AAA?$AA?$AA@ 0000000180027a80     libucrt:lcidtoname_downlevel.obj
 0002:00004a90       ??_C@_1M@FFFIGIGK@?$AAb?$AAg?$AA?9?$AAB?$AAG?$AA?$AA@ 0000000180027a90     libucrt:lcidtoname_downlevel.obj
 0002:00004aa0       ??_C@_1M@BJNKEDC@?$AAc?$AAa?$AA?9?$AAE?$AAS?$AA?$AA@ 0000000180027aa0     libucrt:lcidtoname_downlevel.obj
 0002:00004ab0       ??_C@_1M@IJJHFJHA@?$AAc?$AAs?$AA?9?$AAC?$AAZ?$AA?$AA@ 0000000180027ab0     libucrt:lcidtoname_downlevel.obj
 0002:00004ac0       ??_C@_1M@CLPEOBGI@?$AAd?$AAa?$AA?9?$AAD?$AAK?$AA?$AA@ 0000000180027ac0     libucrt:lcidtoname_downlevel.obj
 0002:00004ad0       ??_C@_1M@MCMADGCB@?$AAd?$AAe?$AA?9?$AAD?$AAE?$AA?$AA@ 0000000180027ad0     libucrt:lcidtoname_downlevel.obj
 0002:00004ae0       ??_C@_1M@OOCKEMAM@?$AAe?$AAl?$AA?9?$AAG?$AAR?$AA?$AA@ 0000000180027ae0     libucrt:lcidtoname_downlevel.obj
 0002:00004af0       ??_C@_1M@DDNJFGID@?$AAf?$AAi?$AA?9?$AAF?$AAI?$AA?$AA@ 0000000180027af0     libucrt:lcidtoname_downlevel.obj
 0002:00004b00       ??_C@_1M@GLIPPMAC@?$AAf?$AAr?$AA?9?$AAF?$AAR?$AA?$AA@ 0000000180027b00     libucrt:lcidtoname_downlevel.obj
 0002:00004b10       ??_C@_1M@GFMCHPE@?$AAh?$AAe?$AA?9?$AAI?$AAL?$AA?$AA@ 0000000180027b10     libucrt:lcidtoname_downlevel.obj
 0002:00004b20       ??_C@_1M@MHLPGNKM@?$AAh?$AAu?$AA?9?$AAH?$AAU?$AA?$AA@ 0000000180027b20     libucrt:lcidtoname_downlevel.obj
 0002:00004b30       ??_C@_1M@LPDDNNPN@?$AAi?$AAs?$AA?9?$AAI?$AAS?$AA?$AA@ 0000000180027b30     libucrt:lcidtoname_downlevel.obj
 0002:00004b40       ??_C@_1M@MADIPODN@?$AAi?$AAt?$AA?9?$AAI?$AAT?$AA?$AA@ 0000000180027b40     libucrt:lcidtoname_downlevel.obj
 0002:00004b50       ??_C@_1M@IHBJJGG@?$AAn?$AAl?$AA?9?$AAN?$AAL?$AA?$AA@ 0000000180027b50     libucrt:lcidtoname_downlevel.obj
 0002:00004b60       ??_C@_1M@EANAGDL@?$AAn?$AAb?$AA?9?$AAN?$AAO?$AA?$AA@ 0000000180027b60     libucrt:lcidtoname_downlevel.obj
 0002:00004b70       ??_C@_1M@NEIEMEGP@?$AAp?$AAl?$AA?9?$AAP?$AAL?$AA?$AA@ 0000000180027b70     libucrt:lcidtoname_downlevel.obj
 0002:00004b80       ??_C@_1M@BOCFIGEP@?$AAp?$AAt?$AA?9?$AAB?$AAR?$AA?$AA@ 0000000180027b80     libucrt:lcidtoname_downlevel.obj
 0002:00004b90       ??_C@_1M@IMPFOPBG@?$AAr?$AAo?$AA?9?$AAR?$AAO?$AA?$AA@ 0000000180027b90     libucrt:lcidtoname_downlevel.obj
 0002:00004ba0       ??_C@_1M@IDNNEJMM@?$AAr?$AAu?$AA?9?$AAR?$AAU?$AA?$AA@ 0000000180027ba0     libucrt:lcidtoname_downlevel.obj
 0002:00004bb0       ??_C@_1M@LILEEOGM@?$AAh?$AAr?$AA?9?$AAH?$AAR?$AA?$AA@ 0000000180027bb0     libucrt:lcidtoname_downlevel.obj
 0002:00004bc0       ??_C@_1M@FKIFEHPB@?$AAs?$AAk?$AA?9?$AAS?$AAK?$AA?$AA@ 0000000180027bc0     libucrt:lcidtoname_downlevel.obj
 0002:00004bd0       ??_C@_1M@LJMAMNPJ@?$AAs?$AAq?$AA?9?$AAA?$AAL?$AA?$AA@ 0000000180027bd0     libucrt:lcidtoname_downlevel.obj
 0002:00004be0       ??_C@_1M@GIAKDKJK@?$AAs?$AAv?$AA?9?$AAS?$AAE?$AA?$AA@ 0000000180027be0     libucrt:lcidtoname_downlevel.obj
 0002:00004bf0       ??_C@_1M@MKJKIKCL@?$AAt?$AAh?$AA?9?$AAT?$AAH?$AA?$AA@ 0000000180027bf0     libucrt:lcidtoname_downlevel.obj
 0002:00004c00       ??_C@_1M@MFLCCMPB@?$AAt?$AAr?$AA?9?$AAT?$AAR?$AA?$AA@ 0000000180027c00     libucrt:lcidtoname_downlevel.obj
 0002:00004c10       ??_C@_1M@OIJHDKJN@?$AAu?$AAr?$AA?9?$AAP?$AAK?$AA?$AA@ 0000000180027c10     libucrt:lcidtoname_downlevel.obj
 0002:00004c20       ??_C@_1M@LHIPCIEK@?$AAi?$AAd?$AA?9?$AAI?$AAD?$AA?$AA@ 0000000180027c20     libucrt:lcidtoname_downlevel.obj
 0002:00004c30       ??_C@_1M@MFMOBGI@?$AAu?$AAk?$AA?9?$AAU?$AAA?$AA?$AA@ 0000000180027c30     libucrt:lcidtoname_downlevel.obj
 0002:00004c40       ??_C@_1M@OBGLJIPL@?$AAb?$AAe?$AA?9?$AAB?$AAY?$AA?$AA@ 0000000180027c40     libucrt:lcidtoname_downlevel.obj
 0002:00004c50       ??_C@_1M@BCFAJEAD@?$AAs?$AAl?$AA?9?$AAS?$AAI?$AA?$AA@ 0000000180027c50     libucrt:lcidtoname_downlevel.obj
 0002:00004c60       ??_C@_1M@FKFFEDDN@?$AAe?$AAt?$AA?9?$AAE?$AAE?$AA?$AA@ 0000000180027c60     libucrt:lcidtoname_downlevel.obj
 0002:00004c70       ??_C@_1M@KGKKAACI@?$AAl?$AAv?$AA?9?$AAL?$AAV?$AA?$AA@ 0000000180027c70     libucrt:lcidtoname_downlevel.obj
 0002:00004c80       ??_C@_1M@IFGBIJO@?$AAl?$AAt?$AA?9?$AAL?$AAT?$AA?$AA@ 0000000180027c80     libucrt:lcidtoname_downlevel.obj
 0002:00004c90       ??_C@_1M@FGEAHEDM@?$AAf?$AAa?$AA?9?$AAI?$AAR?$AA?$AA@ 0000000180027c90     libucrt:lcidtoname_downlevel.obj
 0002:00004ca0       ??_C@_1M@KBMAIBFN@?$AAv?$AAi?$AA?9?$AAV?$AAN?$AA?$AA@ 0000000180027ca0     libucrt:lcidtoname_downlevel.obj
 0002:00004cb0       ??_C@_1M@GPCBKDJK@?$AAh?$AAy?$AA?9?$AAA?$AAM?$AA?$AA@ 0000000180027cb0     libucrt:lcidtoname_downlevel.obj
 0002:00004cc0       ??_C@_1BG@BECMDDJB@?$AAa?$AAz?$AA?9?$AAA?$AAZ?$AA?9?$AAL?$AAa?$AAt?$AAn?$AA?$AA@ 0000000180027cc0     libucrt:lcidtoname_downlevel.obj
 0002:00004cd8       ??_C@_1M@MAOFCAEA@?$AAe?$AAu?$AA?9?$AAE?$AAS?$AA?$AA@ 0000000180027cd8     libucrt:lcidtoname_downlevel.obj
 0002:00004ce8       ??_C@_1M@IGHABKPI@?$AAm?$AAk?$AA?9?$AAM?$AAK?$AA?$AA@ 0000000180027ce8     libucrt:lcidtoname_downlevel.obj
 0002:00004cf8       ??_C@_1M@IAIGNEJG@?$AAt?$AAn?$AA?9?$AAZ?$AAA?$AA?$AA@ 0000000180027cf8     libucrt:lcidtoname_downlevel.obj
 0002:00004d08       ??_C@_1M@IIJCOJFA@?$AAx?$AAh?$AA?9?$AAZ?$AAA?$AA?$AA@ 0000000180027d08     libucrt:lcidtoname_downlevel.obj
 0002:00004d18       ??_C@_1M@LGPJHNJH@?$AAz?$AAu?$AA?9?$AAZ?$AAA?$AA?$AA@ 0000000180027d18     libucrt:lcidtoname_downlevel.obj
 0002:00004d28       ??_C@_1M@HOKAOIO@?$AAa?$AAf?$AA?9?$AAZ?$AAA?$AA?$AA@ 0000000180027d28     libucrt:lcidtoname_downlevel.obj
 0002:00004d38       ??_C@_1M@DPCLHLIE@?$AAk?$AAa?$AA?9?$AAG?$AAE?$AA?$AA@ 0000000180027d38     libucrt:lcidtoname_downlevel.obj
 0002:00004d48       ??_C@_1M@BLKMHJBI@?$AAf?$AAo?$AA?9?$AAF?$AAO?$AA?$AA@ 0000000180027d48     libucrt:lcidtoname_downlevel.obj
 0002:00004d58       ??_C@_1M@LGGJAPPB@?$AAh?$AAi?$AA?9?$AAI?$AAN?$AA?$AA@ 0000000180027d58     libucrt:lcidtoname_downlevel.obj
 0002:00004d68       ??_C@_1M@FIKPIHFE@?$AAm?$AAt?$AA?9?$AAM?$AAT?$AA?$AA@ 0000000180027d68     libucrt:lcidtoname_downlevel.obj
 0002:00004d78       ??_C@_1M@HEGGPBFA@?$AAs?$AAe?$AA?9?$AAN?$AAO?$AA?$AA@ 0000000180027d78     libucrt:lcidtoname_downlevel.obj
 0002:00004d88       ??_C@_1M@EIBJEEPA@?$AAm?$AAs?$AA?9?$AAM?$AAY?$AA?$AA@ 0000000180027d88     libucrt:lcidtoname_downlevel.obj
 0002:00004d98       ??_C@_1M@FHLBGMPP@?$AAk?$AAk?$AA?9?$AAK?$AAZ?$AA?$AA@ 0000000180027d98     libucrt:lcidtoname_downlevel.obj
 0002:00004da8       ??_C@_1M@NGJJLCGI@?$AAk?$AAy?$AA?9?$AAK?$AAG?$AA?$AA@ 0000000180027da8     libucrt:lcidtoname_downlevel.obj
 0002:00004db8       ??_C@_1M@GIENNBFC@?$AAs?$AAw?$AA?9?$AAK?$AAE?$AA?$AA@ 0000000180027db8     libucrt:lcidtoname_downlevel.obj
 0002:00004dc8       ??_C@_1BG@NDGMJIMJ@?$AAu?$AAz?$AA?9?$AAU?$AAZ?$AA?9?$AAL?$AAa?$AAt?$AAn?$AA?$AA@ 0000000180027dc8     libucrt:lcidtoname_downlevel.obj
 0002:00004de0       ??_C@_1M@IDCCIHBC@?$AAt?$AAt?$AA?9?$AAR?$AAU?$AA?$AA@ 0000000180027de0     libucrt:lcidtoname_downlevel.obj
 0002:00004df0       ??_C@_1M@LOICPMOJ@?$AAb?$AAn?$AA?9?$AAI?$AAN?$AA?$AA@ 0000000180027df0     libucrt:lcidtoname_downlevel.obj
 0002:00004e00       ??_C@_1M@KPKKNEAH@?$AAp?$AAa?$AA?9?$AAI?$AAN?$AA?$AA@ 0000000180027e00     libucrt:lcidtoname_downlevel.obj
 0002:00004e10       ??_C@_1M@PJGPPBOG@?$AAg?$AAu?$AA?9?$AAI?$AAN?$AA?$AA@ 0000000180027e10     libucrt:lcidtoname_downlevel.obj
 0002:00004e20       ??_C@_1M@KMKMOPHI@?$AAt?$AAa?$AA?9?$AAI?$AAN?$AA?$AA@ 0000000180027e20     libucrt:lcidtoname_downlevel.obj
 0002:00004e30       ??_C@_1M@KFEHEPAC@?$AAt?$AAe?$AA?9?$AAI?$AAN?$AA?$AA@ 0000000180027e30     libucrt:lcidtoname_downlevel.obj
 0002:00004e40       ??_C@_1M@CDCLMGHI@?$AAk?$AAn?$AA?9?$AAI?$AAN?$AA?$AA@ 0000000180027e40     libucrt:lcidtoname_downlevel.obj
 0002:00004e50       ??_C@_1M@MIODLDKF@?$AAm?$AAl?$AA?9?$AAI?$AAN?$AA?$AA@ 0000000180027e50     libucrt:lcidtoname_downlevel.obj
 0002:00004e60       ??_C@_1M@PBIEACPO@?$AAm?$AAr?$AA?9?$AAI?$AAN?$AA?$AA@ 0000000180027e60     libucrt:lcidtoname_downlevel.obj
 0002:00004e70       ??_C@_1M@NIDEAGPH@?$AAs?$AAa?$AA?9?$AAI?$AAN?$AA?$AA@ 0000000180027e70     libucrt:lcidtoname_downlevel.obj
 0002:00004e80       ??_C@_1M@FHIHCBIO@?$AAm?$AAn?$AA?9?$AAM?$AAN?$AA?$AA@ 0000000180027e80     libucrt:lcidtoname_downlevel.obj
 0002:00004e90       ??_C@_1M@JAIJPENP@?$AAc?$AAy?$AA?9?$AAG?$AAB?$AA?$AA@ 0000000180027e90     libucrt:lcidtoname_downlevel.obj
 0002:00004ea0       ??_C@_1M@PHGFBEPN@?$AAg?$AAl?$AA?9?$AAE?$AAS?$AA?$AA@ 0000000180027ea0     libucrt:lcidtoname_downlevel.obj
 0002:00004eb0       ??_C@_1O@KPIPDNCP@?$AAk?$AAo?$AAk?$AA?9?$AAI?$AAN?$AA?$AA@ 0000000180027eb0     libucrt:lcidtoname_downlevel.obj
 0002:00004ec0       ??_C@_1O@KNHJLDJA@?$AAs?$AAy?$AAr?$AA?9?$AAS?$AAY?$AA?$AA@ 0000000180027ec0     libucrt:lcidtoname_downlevel.obj
 0002:00004ed0       ??_C@_1O@MKEKBLAH@?$AAd?$AAi?$AAv?$AA?9?$AAM?$AAV?$AA?$AA@ 0000000180027ed0     libucrt:lcidtoname_downlevel.obj
 0002:00004ee0       ??_C@_1O@OHDCKDDF@?$AAq?$AAu?$AAz?$AA?9?$AAB?$AAO?$AA?$AA@ 0000000180027ee0     libucrt:lcidtoname_downlevel.obj
 0002:00004ef0       ??_C@_1M@LEPJNLFD@?$AAn?$AAs?$AA?9?$AAZ?$AAA?$AA?$AA@ 0000000180027ef0     libucrt:lcidtoname_downlevel.obj
 0002:00004f00       ??_C@_1M@OMLEIIJB@?$AAm?$AAi?$AA?9?$AAN?$AAZ?$AA?$AA@ 0000000180027f00     libucrt:lcidtoname_downlevel.obj
 0002:00004f10       ??_C@_1M@PMPEAILG@?$AAa?$AAr?$AA?9?$AAI?$AAQ?$AA?$AA@ 0000000180027f10     libucrt:lcidtoname_downlevel.obj
 0002:00004f20       ??_C@_1M@CNKPNOEE@?$AAd?$AAe?$AA?9?$AAC?$AAH?$AA?$AA@ 0000000180027f20     libucrt:lcidtoname_downlevel.obj
 0002:00004f30       ??_C@_1M@LKMGMLKO@?$AAe?$AAn?$AA?9?$AAG?$AAB?$AA?$AA@ 0000000180027f30     libucrt:lcidtoname_downlevel.obj
 0002:00004f40       ??_C@_1M@PGKJFFGL@?$AAe?$AAs?$AA?9?$AAM?$AAX?$AA?$AA@ 0000000180027f40     libucrt:lcidtoname_downlevel.obj
 0002:00004f50       ??_C@_1M@DNNANBDC@?$AAf?$AAr?$AA?9?$AAB?$AAE?$AA?$AA@ 0000000180027f50     libucrt:lcidtoname_downlevel.obj
 0002:00004f60       ??_C@_1M@HLGMDFHM@?$AAi?$AAt?$AA?9?$AAC?$AAH?$AA?$AA@ 0000000180027f60     libucrt:lcidtoname_downlevel.obj
 0002:00004f70       ??_C@_1M@CLLBGJH@?$AAn?$AAl?$AA?9?$AAB?$AAE?$AA?$AA@ 0000000180027f70     libucrt:lcidtoname_downlevel.obj
 0002:00004f80       ??_C@_1M@BODBOGLF@?$AAn?$AAn?$AA?9?$AAN?$AAO?$AA?$AA@ 0000000180027f80     libucrt:lcidtoname_downlevel.obj
 0002:00004f90       ??_C@_1M@HFFAHKAD@?$AAp?$AAt?$AA?9?$AAP?$AAT?$AA?$AA@ 0000000180027f90     libucrt:lcidtoname_downlevel.obj
 0002:00004fa0       ??_C@_1BG@LNOAKHIE@?$AAs?$AAr?$AA?9?$AAS?$AAP?$AA?9?$AAL?$AAa?$AAt?$AAn?$AA?$AA@ 0000000180027fa0     libucrt:lcidtoname_downlevel.obj
 0002:00004fb8       ??_C@_1M@HBMHBGAK@?$AAs?$AAv?$AA?9?$AAF?$AAI?$AA?$AA@ 0000000180027fb8     libucrt:lcidtoname_downlevel.obj
 0002:00004fc8       ??_C@_1BG@DGCJGJBE@?$AAa?$AAz?$AA?9?$AAA?$AAZ?$AA?9?$AAC?$AAy?$AAr?$AAl?$AA?$AA@ 0000000180027fc8     libucrt:lcidtoname_downlevel.obj
 0002:00004fe0       ??_C@_1M@KEJDAAHB@?$AAs?$AAe?$AA?9?$AAS?$AAE?$AA?$AA@ 0000000180027fe0     libucrt:lcidtoname_downlevel.obj
 0002:00004ff0       ??_C@_1M@HEIBJJAD@?$AAm?$AAs?$AA?9?$AAB?$AAN?$AA?$AA@ 0000000180027ff0     libucrt:lcidtoname_downlevel.obj
 0002:00005000       ??_C@_1BG@PBGJMCEM@?$AAu?$AAz?$AA?9?$AAU?$AAZ?$AA?9?$AAC?$AAy?$AAr?$AAl?$AA?$AA@ 0000000180028000     libucrt:lcidtoname_downlevel.obj
 0002:00005018       ??_C@_1O@LAOBCMDF@?$AAq?$AAu?$AAz?$AA?9?$AAE?$AAC?$AA?$AA@ 0000000180028018     libucrt:lcidtoname_downlevel.obj
 0002:00005028       ??_C@_1M@POEEMAIO@?$AAa?$AAr?$AA?9?$AAE?$AAG?$AA?$AA@ 0000000180028028     libucrt:lcidtoname_downlevel.obj
 0002:00005038       ??_C@_1M@EFAKDEDL@?$AAz?$AAh?$AA?9?$AAH?$AAK?$AA?$AA@ 0000000180028038     libucrt:lcidtoname_downlevel.obj
 0002:00005048       ??_C@_1M@HKKIJHGI@?$AAd?$AAe?$AA?9?$AAA?$AAT?$AA?$AA@ 0000000180028048     libucrt:lcidtoname_downlevel.obj
 0002:00005058       ??_C@_1M@KBFBEHJF@?$AAe?$AAn?$AA?9?$AAA?$AAU?$AA?$AA@ 0000000180028058     libucrt:lcidtoname_downlevel.obj
 0002:00005068       ??_C@_1M@MNPLFAAH@?$AAe?$AAs?$AA?9?$AAE?$AAS?$AA?$AA@ 0000000180028068     libucrt:lcidtoname_downlevel.obj
 0002:00005078       ??_C@_1M@HJOOJFMA@?$AAf?$AAr?$AA?9?$AAC?$AAA?$AA?$AA@ 0000000180028078     libucrt:lcidtoname_downlevel.obj
 0002:00005088       ??_C@_1BG@JPOFPNAB@?$AAs?$AAr?$AA?9?$AAS?$AAP?$AA?9?$AAC?$AAy?$AAr?$AAl?$AA?$AA@ 0000000180028088     libucrt:lcidtoname_downlevel.obj
 0002:000050a0       ??_C@_1M@LNFOCMOB@?$AAs?$AAe?$AA?9?$AAF?$AAI?$AA?$AA@ 00000001800280a0     libucrt:lcidtoname_downlevel.obj
 0002:000050b0       ??_C@_1O@MGJBOAMB@?$AAq?$AAu?$AAz?$AA?9?$AAP?$AAE?$AA?$AA@ 00000001800280b0     libucrt:lcidtoname_downlevel.obj
 0002:000050c0       ??_C@_1M@GJINLBOK@?$AAa?$AAr?$AA?9?$AAL?$AAY?$AA?$AA@ 00000001800280c0     libucrt:lcidtoname_downlevel.obj
 0002:000050d0       ??_C@_1M@GGMNHJNL@?$AAz?$AAh?$AA?9?$AAS?$AAG?$AA?$AA@ 00000001800280d0     libucrt:lcidtoname_downlevel.obj
 0002:000050e0       ??_C@_1M@HOIKODND@?$AAd?$AAe?$AA?9?$AAL?$AAU?$AA?$AA@ 00000001800280e0     libucrt:lcidtoname_downlevel.obj
 0002:000050f0       ??_C@_1M@DDOCCGFG@?$AAe?$AAn?$AA?9?$AAC?$AAA?$AA?$AA@ 00000001800280f0     libucrt:lcidtoname_downlevel.obj
 0002:00005100       ??_C@_1M@BNOEMJLF@?$AAe?$AAs?$AA?9?$AAG?$AAT?$AA?$AA@ 0000000180028100     libucrt:lcidtoname_downlevel.obj
 0002:00005110       ??_C@_1M@EOGNKEK@?$AAf?$AAr?$AA?9?$AAC?$AAH?$AA?$AA@ 0000000180028110     libucrt:lcidtoname_downlevel.obj
 0002:00005120       ??_C@_1M@FLIDJFHL@?$AAh?$AAr?$AA?9?$AAB?$AAA?$AA?$AA@ 0000000180028120     libucrt:lcidtoname_downlevel.obj
 0002:00005130       ??_C@_1O@FMCELNAJ@?$AAs?$AAm?$AAj?$AA?9?$AAN?$AAO?$AA?$AA@ 0000000180028130     libucrt:lcidtoname_downlevel.obj
 0002:00005140       ??_C@_1M@JHGLJMGJ@?$AAa?$AAr?$AA?9?$AAD?$AAZ?$AA?$AA@ 0000000180028140     libucrt:lcidtoname_downlevel.obj
 0002:00005150       ??_C@_1M@JKKFDCNP@?$AAz?$AAh?$AA?9?$AAM?$AAO?$AA?$AA@ 0000000180028150     libucrt:lcidtoname_downlevel.obj
 0002:00005160       ??_C@_1M@GEEFALPE@?$AAd?$AAe?$AA?9?$AAL?$AAI?$AA?$AA@ 0000000180028160     libucrt:lcidtoname_downlevel.obj
 0002:00005170       ??_C@_1M@IGEOFBG@?$AAe?$AAn?$AA?9?$AAN?$AAZ?$AA?$AA@ 0000000180028170     libucrt:lcidtoname_downlevel.obj
 0002:00005180       ??_C@_1M@KDBONEHP@?$AAe?$AAs?$AA?9?$AAC?$AAR?$AA?$AA@ 0000000180028180     libucrt:lcidtoname_downlevel.obj
 0002:00005190       ??_C@_1M@FHMDOHNN@?$AAf?$AAr?$AA?9?$AAL?$AAU?$AA?$AA@ 0000000180028190     libucrt:lcidtoname_downlevel.obj
 0002:000051a0       ??_C@_1BG@NFKKMAFG@?$AAb?$AAs?$AA?9?$AAB?$AAA?$AA?9?$AAL?$AAa?$AAt?$AAn?$AA?$AA@ 00000001800281a0     libucrt:lcidtoname_downlevel.obj
 0002:000051b8       ??_C@_1O@IMNBEMCI@?$AAs?$AAm?$AAj?$AA?9?$AAS?$AAE?$AA?$AA@ 00000001800281b8     libucrt:lcidtoname_downlevel.obj
 0002:000051c8       ??_C@_1M@DHHMBNDP@?$AAa?$AAr?$AA?9?$AAM?$AAA?$AA?$AA@ 00000001800281c8     libucrt:lcidtoname_downlevel.obj
 0002:000051d8       ??_C@_1M@BNBLJCGH@?$AAe?$AAn?$AA?9?$AAI?$AAE?$AA?$AA@ 00000001800281d8     libucrt:lcidtoname_downlevel.obj
 0002:000051e8       ??_C@_1M@GEPAFMDL@?$AAe?$AAs?$AA?9?$AAP?$AAA?$AA?$AA@ 00000001800281e8     libucrt:lcidtoname_downlevel.obj
 0002:000051f8       ??_C@_1M@OJONDMDL@?$AAf?$AAr?$AA?9?$AAM?$AAC?$AA?$AA@ 00000001800281f8     libucrt:lcidtoname_downlevel.obj
 0002:00005208       ??_C@_1BG@OBCNFJB@?$AAs?$AAr?$AA?9?$AAB?$AAA?$AA?9?$AAL?$AAa?$AAt?$AAn?$AA?$AA@ 0000000180028208     libucrt:lcidtoname_downlevel.obj
 0002:00005220       ??_C@_1O@KEMEEGPO@?$AAs?$AAm?$AAa?$AA?9?$AAN?$AAO?$AA?$AA@ 0000000180028220     libucrt:lcidtoname_downlevel.obj
 0002:00005230       ??_C@_1M@ELMGFODK@?$AAa?$AAr?$AA?9?$AAT?$AAN?$AA?$AA@ 0000000180028230     libucrt:lcidtoname_downlevel.obj
 0002:00005240       ??_C@_1M@BHDLHFAF@?$AAe?$AAn?$AA?9?$AAZ?$AAA?$AA?$AA@ 0000000180028240     libucrt:lcidtoname_downlevel.obj
 0002:00005250       ??_C@_1M@BMGIGLIF@?$AAe?$AAs?$AA?9?$AAD?$AAO?$AA?$AA@ 0000000180028250     libucrt:lcidtoname_downlevel.obj
 0002:00005260       ??_C@_1BG@CMBHIPBE@?$AAs?$AAr?$AA?9?$AAB?$AAA?$AA?9?$AAC?$AAy?$AAr?$AAl?$AA?$AA@ 0000000180028260     libucrt:lcidtoname_downlevel.obj
 0002:00005278       ??_C@_1O@HEDBLHNP@?$AAs?$AAm?$AAa?$AA?9?$AAS?$AAE?$AA?$AA@ 0000000180028278     libucrt:lcidtoname_downlevel.obj
 0002:00005288       ??_C@_1M@DAGCADIM@?$AAa?$AAr?$AA?9?$AAO?$AAM?$AA?$AA@ 0000000180028288     libucrt:lcidtoname_downlevel.obj
 0002:00005298       ??_C@_1M@FODLMICG@?$AAe?$AAn?$AA?9?$AAJ?$AAM?$AA?$AA@ 0000000180028298     libucrt:lcidtoname_downlevel.obj
 0002:000052a8       ??_C@_1M@DNMLCIHB@?$AAe?$AAs?$AA?9?$AAV?$AAE?$AA?$AA@ 00000001800282a8     libucrt:lcidtoname_downlevel.obj
 0002:000052b8       ??_C@_1O@EOKHMKJK@?$AAs?$AAm?$AAs?$AA?9?$AAF?$AAI?$AA?$AA@ 00000001800282b8     libucrt:lcidtoname_downlevel.obj
 0002:000052c8       ??_C@_1M@CAFJMKOF@?$AAa?$AAr?$AA?9?$AAY?$AAE?$AA?$AA@ 00000001800282c8     libucrt:lcidtoname_downlevel.obj
 0002:000052d8       ??_C@_1M@CBFHIJLI@?$AAe?$AAn?$AA?9?$AAC?$AAB?$AA?$AA@ 00000001800282d8     libucrt:lcidtoname_downlevel.obj
 0002:000052e8       ??_C@_1M@BGNFLDN@?$AAe?$AAs?$AA?9?$AAC?$AAO?$AA?$AA@ 00000001800282e8     libucrt:lcidtoname_downlevel.obj
 0002:000052f8       ??_C@_1O@JMPHMAMC@?$AAs?$AAm?$AAn?$AA?9?$AAF?$AAI?$AA?$AA@ 00000001800282f8     libucrt:lcidtoname_downlevel.obj
 0002:00005308       ??_C@_1M@JLANABKE@?$AAa?$AAr?$AA?9?$AAS?$AAY?$AA?$AA@ 0000000180028308     libucrt:lcidtoname_downlevel.obj
 0002:00005318       ??_C@_1M@HPKGCFGN@?$AAe?$AAn?$AA?9?$AAB?$AAZ?$AA?$AA@ 0000000180028318     libucrt:lcidtoname_downlevel.obj
 0002:00005328       ??_C@_1M@OLJCMLGM@?$AAe?$AAs?$AA?9?$AAP?$AAE?$AA?$AA@ 0000000180028328     libucrt:lcidtoname_downlevel.obj
 0002:00005338       ??_C@_1M@MKKGFKLE@?$AAa?$AAr?$AA?9?$AAJ?$AAO?$AA?$AA@ 0000000180028338     libucrt:lcidtoname_downlevel.obj
 0002:00005348       ??_C@_1M@EKPGLDNI@?$AAe?$AAn?$AA?9?$AAT?$AAT?$AA?$AA@ 0000000180028348     libucrt:lcidtoname_downlevel.obj
 0002:00005358       ??_C@_1M@OONGHFHE@?$AAe?$AAs?$AA?9?$AAA?$AAR?$AA?$AA@ 0000000180028358     libucrt:lcidtoname_downlevel.obj
 0002:00005368       ??_C@_1M@OOJFGBHE@?$AAa?$AAr?$AA?9?$AAL?$AAB?$AA?$AA@ 0000000180028368     libucrt:lcidtoname_downlevel.obj
 0002:00005378       ??_C@_1M@GCEJHNEG@?$AAe?$AAn?$AA?9?$AAZ?$AAW?$AA?$AA@ 0000000180028378     libucrt:lcidtoname_downlevel.obj
 0002:00005388       ??_C@_1M@JNOCAHJI@?$AAe?$AAs?$AA?9?$AAE?$AAC?$AA?$AA@ 0000000180028388     libucrt:lcidtoname_downlevel.obj
 0002:00005398       ??_C@_1M@JEFHPGGB@?$AAa?$AAr?$AA?9?$AAK?$AAW?$AA?$AA@ 0000000180028398     libucrt:lcidtoname_downlevel.obj
 0002:000053a8       ??_C@_1M@MLKIBJOJ@?$AAe?$AAn?$AA?9?$AAP?$AAH?$AA?$AA@ 00000001800283a8     libucrt:lcidtoname_downlevel.obj
 0002:000053b8       ??_C@_1M@BDNIPEND@?$AAe?$AAs?$AA?9?$AAC?$AAL?$AA?$AA@ 00000001800283b8     libucrt:lcidtoname_downlevel.obj
 0002:000053c8       ??_C@_1M@MPNMEKBD@?$AAa?$AAr?$AA?9?$AAA?$AAE?$AA?$AA@ 00000001800283c8     libucrt:lcidtoname_downlevel.obj
 0002:000053d8       ??_C@_1M@KBJALCPI@?$AAe?$AAs?$AA?9?$AAU?$AAY?$AA?$AA@ 00000001800283d8     libucrt:lcidtoname_downlevel.obj
 0002:000053e8       ??_C@_1M@LLCCOAGA@?$AAa?$AAr?$AA?9?$AAB?$AAH?$AA?$AA@ 00000001800283e8     libucrt:lcidtoname_downlevel.obj
 0002:000053f8       ??_C@_1M@PBFNCDEL@?$AAe?$AAs?$AA?9?$AAP?$AAY?$AA?$AA@ 00000001800283f8     libucrt:lcidtoname_downlevel.obj
 0002:00005408       ??_C@_1M@EDGINPNP@?$AAa?$AAr?$AA?9?$AAQ?$AAA?$AA?$AA@ 0000000180028408     libucrt:lcidtoname_downlevel.obj
 0002:00005418       ??_C@_1M@MKDBIIJI@?$AAe?$AAs?$AA?9?$AAB?$AAO?$AA?$AA@ 0000000180028418     libucrt:lcidtoname_downlevel.obj
 0002:00005428       ??_C@_1M@CPKKEBLD@?$AAe?$AAs?$AA?9?$AAS?$AAV?$AA?$AA@ 0000000180028428     libucrt:lcidtoname_downlevel.obj
 0002:00005438       ??_C@_1M@NDBGMMJL@?$AAe?$AAs?$AA?9?$AAH?$AAN?$AA?$AA@ 0000000180028438     libucrt:lcidtoname_downlevel.obj
 0002:00005448       ??_C@_1M@JIJIBHDP@?$AAe?$AAs?$AA?9?$AAN?$AAI?$AA?$AA@ 0000000180028448     libucrt:lcidtoname_downlevel.obj
 0002:00005458       ??_C@_1M@CGFMKEEK@?$AAe?$AAs?$AA?9?$AAP?$AAR?$AA?$AA@ 0000000180028458     libucrt:lcidtoname_downlevel.obj
 0002:00005468       ??_C@_1O@ICJHKIIK@?$AAz?$AAh?$AA?9?$AAC?$AAH?$AAT?$AA?$AA@ 0000000180028468     libucrt:lcidtoname_downlevel.obj
 0002:00005478       ??_C@_15CLNEJCE@?$AAs?$AAr?$AA?$AA@ 0000000180028478     libucrt:lcidtoname_downlevel.obj
 0002:000062c0       ??_C@_1M@KAHEKEIG@?$AAa?$AAf?$AA?9?$AAz?$AAa?$AA?$AA@ 00000001800292c0     libucrt:lcidtoname_downlevel.obj
 0002:000062d0       ??_C@_1M@GIECOABL@?$AAa?$AAr?$AA?9?$AAa?$AAe?$AA?$AA@ 00000001800292d0     libucrt:lcidtoname_downlevel.obj
 0002:000062e0       ??_C@_1M@BMLMEKGI@?$AAa?$AAr?$AA?9?$AAb?$AAh?$AA?$AA@ 00000001800292e0     libucrt:lcidtoname_downlevel.obj
 0002:000062f0       ??_C@_1M@DAPFDGGB@?$AAa?$AAr?$AA?9?$AAd?$AAz?$AA?$AA@ 00000001800292f0     libucrt:lcidtoname_downlevel.obj
 0002:00006300       ??_C@_1M@FJNKGKIG@?$AAa?$AAr?$AA?9?$AAe?$AAg?$AA?$AA@ 0000000180029300     libucrt:lcidtoname_downlevel.obj
 0002:00006310       ??_C@_1M@FLGKKCLO@?$AAa?$AAr?$AA?9?$AAi?$AAq?$AA?$AA@ 0000000180029310     libucrt:lcidtoname_downlevel.obj
 0002:00006320       ??_C@_1M@GNDIPALM@?$AAa?$AAr?$AA?9?$AAj?$AAo?$AA?$AA@ 0000000180029320     libucrt:lcidtoname_downlevel.obj
 0002:00006330       ??_C@_1M@DDMJFMGJ@?$AAa?$AAr?$AA?9?$AAk?$AAw?$AA?$AA@ 0000000180029330     libucrt:lcidtoname_downlevel.obj
 0002:00006340       ??_C@_1M@EJALMLHM@?$AAa?$AAr?$AA?9?$AAl?$AAb?$AA?$AA@ 0000000180029340     libucrt:lcidtoname_downlevel.obj
 0002:00006350       ??_C@_1M@MOBDBLOC@?$AAa?$AAr?$AA?9?$AAl?$AAy?$AA?$AA@ 0000000180029350     libucrt:lcidtoname_downlevel.obj
 0002:00006360       ??_C@_1M@JAOCLHDH@?$AAa?$AAr?$AA?9?$AAm?$AAa?$AA?$AA@ 0000000180029360     libucrt:lcidtoname_downlevel.obj
 0002:00006370       ??_C@_1M@JHPMKJIE@?$AAa?$AAr?$AA?9?$AAo?$AAm?$AA?$AA@ 0000000180029370     libucrt:lcidtoname_downlevel.obj
 0002:00006380       ??_C@_1M@OEPGHFNH@?$AAa?$AAr?$AA?9?$AAq?$AAa?$AA?$AA@ 0000000180029380     libucrt:lcidtoname_downlevel.obj
 0002:00006390       ??_C@_1M@KJDONENM@?$AAa?$AAr?$AA?9?$AAs?$AAa?$AA?$AA@ 0000000180029390     libucrt:lcidtoname_downlevel.obj
 0002:000063a0       ??_C@_1M@DMJDKLKM@?$AAa?$AAr?$AA?9?$AAs?$AAy?$AA?$AA@ 00000001800293a0     libucrt:lcidtoname_downlevel.obj
 0002:000063b0       ??_C@_1M@OMFIPEDC@?$AAa?$AAr?$AA?9?$AAt?$AAn?$AA?$AA@ 00000001800293b0     libucrt:lcidtoname_downlevel.obj
 0002:000063c0       ??_C@_1M@IHMHGAON@?$AAa?$AAr?$AA?9?$AAy?$AAe?$AA?$AA@ 00000001800293c0     libucrt:lcidtoname_downlevel.obj
 0002:000063d0       ??_C@_1BG@KDCPGJGB@?$AAa?$AAz?$AA?9?$AAa?$AAz?$AA?9?$AAc?$AAy?$AAr?$AAl?$AA?$AA@ 00000001800293d0     libucrt:lcidtoname_downlevel.obj
 0002:000063e8       ??_C@_1BG@IBCKDDOE@?$AAa?$AAz?$AA?9?$AAa?$AAz?$AA?9?$AAl?$AAa?$AAt?$AAn?$AA?$AA@ 00000001800293e8     libucrt:lcidtoname_downlevel.obj
 0002:00006400       ??_C@_1M@EGPFDCPD@?$AAb?$AAe?$AA?9?$AAb?$AAy?$AA?$AA@ 0000000180029400     libucrt:lcidtoname_downlevel.obj
 0002:00006410       ??_C@_1M@PCMGMCGC@?$AAb?$AAg?$AA?9?$AAb?$AAg?$AA?$AA@ 0000000180029410     libucrt:lcidtoname_downlevel.obj
 0002:00006420       ??_C@_1M@BJBMFGOB@?$AAb?$AAn?$AA?9?$AAi?$AAn?$AA?$AA@ 0000000180029420     libucrt:lcidtoname_downlevel.obj
 0002:00006430       ??_C@_1BG@EAKMMACD@?$AAb?$AAs?$AA?9?$AAb?$AAa?$AA?9?$AAl?$AAa?$AAt?$AAn?$AA?$AA@ 0000000180029430     libucrt:lcidtoname_downlevel.obj
 0002:00006448       ??_C@_1M@KGADAODK@?$AAc?$AAa?$AA?9?$AAe?$AAs?$AA?$AA@ 0000000180029448     libucrt:lcidtoname_downlevel.obj
 0002:00006458       ??_C@_1M@COAJPDHI@?$AAc?$AAs?$AA?9?$AAc?$AAz?$AA?$AA@ 0000000180029458     libucrt:lcidtoname_downlevel.obj
 0002:00006468       ??_C@_1M@DHBHFONH@?$AAc?$AAy?$AA?9?$AAg?$AAb?$AA?$AA@ 0000000180029468     libucrt:lcidtoname_downlevel.obj
 0002:00006478       ??_C@_1M@IMGKELGA@?$AAd?$AAa?$AA?9?$AAd?$AAk?$AA?$AA@ 0000000180029478     libucrt:lcidtoname_downlevel.obj
 0002:00006488       ??_C@_1M@NNDGDNGA@?$AAd?$AAe?$AA?9?$AAa?$AAt?$AA?$AA@ 0000000180029488     libucrt:lcidtoname_downlevel.obj
 0002:00006498       ??_C@_1M@IKDBHEEM@?$AAd?$AAe?$AA?9?$AAc?$AAh?$AA?$AA@ 0000000180029498     libucrt:lcidtoname_downlevel.obj
 0002:000064a8       ??_C@_1M@GFFOJMCJ@?$AAd?$AAe?$AA?9?$AAd?$AAe?$AA?$AA@ 00000001800294a8     libucrt:lcidtoname_downlevel.obj
 0002:000064b8       ??_C@_1M@MDNLKBPM@?$AAd?$AAe?$AA?9?$AAl?$AAi?$AA?$AA@ 00000001800294b8     libucrt:lcidtoname_downlevel.obj
 0002:000064c8       ??_C@_1M@NJBEEJNL@?$AAd?$AAe?$AA?9?$AAl?$AAu?$AA?$AA@ 00000001800294c8     libucrt:lcidtoname_downlevel.obj
 0002:000064d8       ??_C@_1O@GNNELBAP@?$AAd?$AAi?$AAv?$AA?9?$AAm?$AAv?$AA?$AA@ 00000001800294d8     libucrt:lcidtoname_downlevel.obj
 0002:000064e8       ??_C@_1M@EJLEOGAE@?$AAe?$AAl?$AA?9?$AAg?$AAr?$AA?$AA@ 00000001800294e8     libucrt:lcidtoname_downlevel.obj
 0002:000064f8       ??_C@_1M@GMPONJN@?$AAe?$AAn?$AA?9?$AAa?$AAu?$AA?$AA@ 00000001800294f8     libucrt:lcidtoname_downlevel.obj
 0002:00006508       ??_C@_1M@NIDIIPGF@?$AAe?$AAn?$AA?9?$AAb?$AAz?$AA?$AA@ 0000000180029508     libucrt:lcidtoname_downlevel.obj
 0002:00006518       ??_C@_1M@JEHMIMFO@?$AAe?$AAn?$AA?9?$AAc?$AAa?$AA?$AA@ 0000000180029518     libucrt:lcidtoname_downlevel.obj
 0002:00006528       ??_C@_1M@IGMJCDLA@?$AAe?$AAn?$AA?9?$AAc?$AAb?$AA?$AA@ 0000000180029528     libucrt:lcidtoname_downlevel.obj
 0002:00006538       ??_C@_1M@BNFIGBKG@?$AAe?$AAn?$AA?9?$AAg?$AAb?$AA?$AA@ 0000000180029538     libucrt:lcidtoname_downlevel.obj
 0002:00006548       ??_C@_1M@LKIFDIGP@?$AAe?$AAn?$AA?9?$AAi?$AAe?$AA?$AA@ 0000000180029548     libucrt:lcidtoname_downlevel.obj
 0002:00006558       ??_C@_1M@PJKFGCCO@?$AAe?$AAn?$AA?9?$AAj?$AAm?$AA?$AA@ 0000000180029558     libucrt:lcidtoname_downlevel.obj
 0002:00006568       ??_C@_1M@KPPKEPBO@?$AAe?$AAn?$AA?9?$AAn?$AAz?$AA?$AA@ 0000000180029568     libucrt:lcidtoname_downlevel.obj
 0002:00006578       ??_C@_1M@GMDGLDOB@?$AAe?$AAn?$AA?9?$AAp?$AAh?$AA?$AA@ 0000000180029578     libucrt:lcidtoname_downlevel.obj
 0002:00006588       ??_C@_1M@ONGIBJNA@?$AAe?$AAn?$AA?9?$AAt?$AAt?$AA?$AA@ 0000000180029588     libucrt:lcidtoname_downlevel.obj
 0002:00006598       ??_C@_1M@LLODPCMM@?$AAe?$AAn?$AA?9?$AAu?$AAs?$AA?$AA@ 0000000180029598     libucrt:lcidtoname_downlevel.obj
 0002:000065a8       ??_C@_1M@LAKFNPAN@?$AAe?$AAn?$AA?9?$AAz?$AAa?$AA?$AA@ 00000001800295a8     libucrt:lcidtoname_downlevel.obj
 0002:000065b8       ??_C@_1M@MFNHNHEO@?$AAe?$AAn?$AA?9?$AAz?$AAw?$AA?$AA@ 00000001800295b8     libucrt:lcidtoname_downlevel.obj
 0002:000065c8       ??_C@_1M@EJEINPHM@?$AAe?$AAs?$AA?9?$AAa?$AAr?$AA?$AA@ 00000001800295c8     libucrt:lcidtoname_downlevel.obj
 0002:000065d8       ??_C@_1M@GNKPCCJA@?$AAe?$AAs?$AA?9?$AAb?$AAo?$AA?$AA@ 00000001800295d8     libucrt:lcidtoname_downlevel.obj
 0002:000065e8       ??_C@_1M@LEEGFONL@?$AAe?$AAs?$AA?9?$AAc?$AAl?$AA?$AA@ 00000001800295e8     libucrt:lcidtoname_downlevel.obj
 0002:000065f8       ??_C@_1M@KGPDPBDF@?$AAe?$AAs?$AA?9?$AAc?$AAo?$AA?$AA@ 00000001800295f8     libucrt:lcidtoname_downlevel.obj
 0002:00006608       ??_C@_1M@EIAHOHH@?$AAe?$AAs?$AA?9?$AAc?$AAr?$AA?$AA@ 0000000180029608     libucrt:lcidtoname_downlevel.obj
 0002:00006618       ??_C@_1M@LLPGMBIN@?$AAe?$AAs?$AA?9?$AAd?$AAo?$AA?$AA@ 0000000180029618     libucrt:lcidtoname_downlevel.obj
 0002:00006628       ??_C@_1M@DKHMKNJA@?$AAe?$AAs?$AA?9?$AAe?$AAc?$AA?$AA@ 0000000180029628     libucrt:lcidtoname_downlevel.obj
 0002:00006638       ??_C@_1M@GKGFPKAP@?$AAe?$AAs?$AA?9?$AAe?$AAs?$AA?$AA@ 0000000180029638     libucrt:lcidtoname_downlevel.obj
 0002:00006648       ??_C@_1M@LKHKGDLN@?$AAe?$AAs?$AA?9?$AAg?$AAt?$AA?$AA@ 0000000180029648     libucrt:lcidtoname_downlevel.obj
 0002:00006658       ??_C@_1M@HEIIGGJD@?$AAe?$AAs?$AA?9?$AAh?$AAn?$AA?$AA@ 0000000180029658     libucrt:lcidtoname_downlevel.obj
 0002:00006668       ??_C@_1M@FBDHPPGD@?$AAe?$AAs?$AA?9?$AAm?$AAx?$AA?$AA@ 0000000180029668     libucrt:lcidtoname_downlevel.obj
 0002:00006678       ??_C@_1M@DPAGLNDH@?$AAe?$AAs?$AA?9?$AAn?$AAi?$AA?$AA@ 0000000180029678     libucrt:lcidtoname_downlevel.obj
 0002:00006688       ??_C@_1M@MDGOPGDD@?$AAe?$AAs?$AA?9?$AAp?$AAa?$AA?$AA@ 0000000180029688     libucrt:lcidtoname_downlevel.obj
 0002:00006698       ??_C@_1M@EMAMGBGE@?$AAe?$AAs?$AA?9?$AAp?$AAe?$AA?$AA@ 0000000180029698     libucrt:lcidtoname_downlevel.obj
 0002:000066a8       ??_C@_1M@IBMCAOEC@?$AAe?$AAs?$AA?9?$AAp?$AAr?$AA?$AA@ 00000001800296a8     libucrt:lcidtoname_downlevel.obj
 0002:000066b8       ??_C@_1M@FGMDIJED@?$AAe?$AAs?$AA?9?$AAp?$AAy?$AA?$AA@ 00000001800296b8     libucrt:lcidtoname_downlevel.obj
 0002:000066c8       ??_C@_1M@IIDEOLLL@?$AAe?$AAs?$AA?9?$AAs?$AAv?$AA?$AA@ 00000001800296c8     libucrt:lcidtoname_downlevel.obj
 0002:000066d8       ??_C@_1M@GAOBIPA@?$AAe?$AAs?$AA?9?$AAu?$AAy?$AA?$AA@ 00000001800296d8     libucrt:lcidtoname_downlevel.obj
 0002:000066e8       ??_C@_1M@JKFFICHJ@?$AAe?$AAs?$AA?9?$AAv?$AAe?$AA?$AA@ 00000001800296e8     libucrt:lcidtoname_downlevel.obj
 0002:000066f8       ??_C@_1M@PNMLOJDF@?$AAe?$AAt?$AA?9?$AAe?$AAe?$AA?$AA@ 00000001800296f8     libucrt:lcidtoname_downlevel.obj
 0002:00006708       ??_C@_1M@GHHLIKEI@?$AAe?$AAu?$AA?9?$AAe?$AAs?$AA?$AA@ 0000000180029708     libucrt:lcidtoname_downlevel.obj
 0002:00006718       ??_C@_1M@PBNONODE@?$AAf?$AAa?$AA?9?$AAi?$AAr?$AA?$AA@ 0000000180029718     libucrt:lcidtoname_downlevel.obj
 0002:00006728       ??_C@_1M@JEEHPMIL@?$AAf?$AAi?$AA?9?$AAf?$AAi?$AA?$AA@ 0000000180029728     libucrt:lcidtoname_downlevel.obj
 0002:00006738       ??_C@_1M@LMDCNDBA@?$AAf?$AAo?$AA?9?$AAf?$AAo?$AA?$AA@ 0000000180029738     libucrt:lcidtoname_downlevel.obj
 0002:00006748       ??_C@_1M@JKEOHLDK@?$AAf?$AAr?$AA?9?$AAb?$AAe?$AA?$AA@ 0000000180029748     libucrt:lcidtoname_downlevel.obj
 0002:00006758       ??_C@_1M@NOHADPMI@?$AAf?$AAr?$AA?9?$AAc?$AAa?$AA?$AA@ 0000000180029758     libucrt:lcidtoname_downlevel.obj
 0002:00006768       ??_C@_1M@KDHIHAEC@?$AAf?$AAr?$AA?9?$AAc?$AAh?$AA?$AA@ 0000000180029768     libucrt:lcidtoname_downlevel.obj
 0002:00006778       ??_C@_1M@MMBBFGAK@?$AAf?$AAr?$AA?9?$AAf?$AAr?$AA?$AA@ 0000000180029778     libucrt:lcidtoname_downlevel.obj
 0002:00006788       ??_C@_1M@PAFNENNF@?$AAf?$AAr?$AA?9?$AAl?$AAu?$AA?$AA@ 0000000180029788     libucrt:lcidtoname_downlevel.obj
 0002:00006798       ??_C@_1M@EOHDJGDD@?$AAf?$AAr?$AA?9?$AAm?$AAc?$AA?$AA@ 0000000180029798     libucrt:lcidtoname_downlevel.obj
 0002:000067a8       ??_C@_1M@FAPLLOPF@?$AAg?$AAl?$AA?9?$AAe?$AAs?$AA?$AA@ 00000001800297a8     libucrt:lcidtoname_downlevel.obj
 0002:000067b8       ??_C@_1M@FOPBFLOO@?$AAg?$AAu?$AA?9?$AAi?$AAn?$AA?$AA@ 00000001800297b8     libucrt:lcidtoname_downlevel.obj
 0002:000067c8       ??_C@_1M@KBMCINPM@?$AAh?$AAe?$AA?9?$AAi?$AAl?$AA?$AA@ 00000001800297c8     libucrt:lcidtoname_downlevel.obj
 0002:000067d8       ??_C@_1M@BBPHKFPJ@?$AAh?$AAi?$AA?9?$AAi?$AAn?$AA?$AA@ 00000001800297d8     libucrt:lcidtoname_downlevel.obj
 0002:000067e8       ??_C@_1M@PMBNDPHD@?$AAh?$AAr?$AA?9?$AAb?$AAa?$AA?$AA@ 00000001800297e8     libucrt:lcidtoname_downlevel.obj
 0002:000067f8       ??_C@_1M@BPCKOEGE@?$AAh?$AAr?$AA?9?$AAh?$AAr?$AA?$AA@ 00000001800297f8     libucrt:lcidtoname_downlevel.obj
 0002:00006808       ??_C@_1M@GACBMHKE@?$AAh?$AAu?$AA?9?$AAh?$AAu?$AA?$AA@ 0000000180029808     libucrt:lcidtoname_downlevel.obj
 0002:00006818       ??_C@_1M@MILPAJJC@?$AAh?$AAy?$AA?9?$AAa?$AAm?$AA?$AA@ 0000000180029818     libucrt:lcidtoname_downlevel.obj
 0002:00006828       ??_C@_1M@BABBICEC@?$AAi?$AAd?$AA?9?$AAi?$AAd?$AA?$AA@ 0000000180029828     libucrt:lcidtoname_downlevel.obj
 0002:00006838       ??_C@_1M@BIKNHHPF@?$AAi?$AAs?$AA?9?$AAi?$AAs?$AA?$AA@ 0000000180029838     libucrt:lcidtoname_downlevel.obj
 0002:00006848       ??_C@_1M@NMPCJPHE@?$AAi?$AAt?$AA?9?$AAc?$AAh?$AA?$AA@ 0000000180029848     libucrt:lcidtoname_downlevel.obj
 0002:00006858       ??_C@_1M@GHKGFEDF@?$AAi?$AAt?$AA?9?$AAi?$AAt?$AA?$AA@ 0000000180029858     libucrt:lcidtoname_downlevel.obj
 0002:00006868       ??_C@_1M@NIEJCJJA@?$AAj?$AAa?$AA?9?$AAj?$AAp?$AA?$AA@ 0000000180029868     libucrt:lcidtoname_downlevel.obj
 0002:00006878       ??_C@_1M@JILFNBIM@?$AAk?$AAa?$AA?9?$AAg?$AAe?$AA?$AA@ 0000000180029878     libucrt:lcidtoname_downlevel.obj
 0002:00006888       ??_C@_1M@PACPMGPH@?$AAk?$AAk?$AA?9?$AAk?$AAz?$AA?$AA@ 0000000180029888     libucrt:lcidtoname_downlevel.obj
 0002:00006898       ??_C@_1M@IELFGMHA@?$AAk?$AAn?$AA?9?$AAi?$AAn?$AA?$AA@ 0000000180029898     libucrt:lcidtoname_downlevel.obj
 0002:000068a8       ??_C@_1O@IBBJHCH@?$AAk?$AAo?$AAk?$AA?9?$AAi?$AAn?$AA?$AA@ 00000001800298a8     libucrt:lcidtoname_downlevel.obj
 0002:000068b8       ??_C@_1M@DMHAEOGC@?$AAk?$AAo?$AA?9?$AAk?$AAr?$AA?$AA@ 00000001800298b8     libucrt:lcidtoname_downlevel.obj
 0002:000068c8       ??_C@_1M@HBAHBIGA@?$AAk?$AAy?$AA?9?$AAk?$AAg?$AA?$AA@ 00000001800298c8     libucrt:lcidtoname_downlevel.obj
 0002:000068d8       ??_C@_1M@KPMILCJG@?$AAl?$AAt?$AA?9?$AAl?$AAt?$AA?$AA@ 00000001800298d8     libucrt:lcidtoname_downlevel.obj
 0002:000068e8       ??_C@_1M@BDEKKCA@?$AAl?$AAv?$AA?9?$AAl?$AAv?$AA?$AA@ 00000001800298e8     libucrt:lcidtoname_downlevel.obj
 0002:000068f8       ??_C@_1M@ELCKCCJJ@?$AAm?$AAi?$AA?9?$AAn?$AAz?$AA?$AA@ 00000001800298f8     libucrt:lcidtoname_downlevel.obj
 0002:00006908       ??_C@_1M@CBOOLAPA@?$AAm?$AAk?$AA?9?$AAm?$AAk?$AA?$AA@ 0000000180029908     libucrt:lcidtoname_downlevel.obj
 0002:00006918       ??_C@_1M@GPHNBJKN@?$AAm?$AAl?$AA?9?$AAi?$AAn?$AA?$AA@ 0000000180029918     libucrt:lcidtoname_downlevel.obj
 0002:00006928       ??_C@_1M@PABJILIG@?$AAm?$AAn?$AA?9?$AAm?$AAn?$AA?$AA@ 0000000180029928     libucrt:lcidtoname_downlevel.obj
 0002:00006938       ??_C@_1M@FGBKKIPG@?$AAm?$AAr?$AA?9?$AAi?$AAn?$AA?$AA@ 0000000180029938     libucrt:lcidtoname_downlevel.obj
 0002:00006948       ??_C@_1M@NDBPDDAL@?$AAm?$AAs?$AA?9?$AAb?$AAn?$AA?$AA@ 0000000180029948     libucrt:lcidtoname_downlevel.obj
 0002:00006958       ??_C@_1M@OPIHOOPI@?$AAm?$AAs?$AA?9?$AAm?$AAy?$AA?$AA@ 0000000180029958     libucrt:lcidtoname_downlevel.obj
 0002:00006968       ??_C@_1M@PPDBCNFM@?$AAm?$AAt?$AA?9?$AAm?$AAt?$AA?$AA@ 0000000180029968     libucrt:lcidtoname_downlevel.obj
 0002:00006978       ??_C@_1M@KDJDKMDD@?$AAn?$AAb?$AA?9?$AAn?$AAo?$AA?$AA@ 0000000180029978     libucrt:lcidtoname_downlevel.obj
 0002:00006988       ??_C@_1M@KFCFLMJP@?$AAn?$AAl?$AA?9?$AAb?$AAe?$AA?$AA@ 0000000180029988     libucrt:lcidtoname_downlevel.obj
 0002:00006998       ??_C@_1M@KPOPDDGO@?$AAn?$AAl?$AA?9?$AAn?$AAl?$AA?$AA@ 0000000180029998     libucrt:lcidtoname_downlevel.obj
 0002:000069a8       ??_C@_1M@LJKPEMLN@?$AAn?$AAn?$AA?9?$AAn?$AAo?$AA?$AA@ 00000001800299a8     libucrt:lcidtoname_downlevel.obj
 0002:000069b8       ??_C@_1M@BDGHHBFL@?$AAn?$AAs?$AA?9?$AAz?$AAa?$AA?$AA@ 00000001800299b8     libucrt:lcidtoname_downlevel.obj
 0002:000069c8       ??_C@_1M@IDEHOAP@?$AAp?$AAa?$AA?9?$AAi?$AAn?$AA?$AA@ 00000001800299c8     libucrt:lcidtoname_downlevel.obj
 0002:000069d8       ??_C@_1M@HDBKGOGH@?$AAp?$AAl?$AA?9?$AAp?$AAl?$AA?$AA@ 00000001800299d8     libucrt:lcidtoname_downlevel.obj
 0002:000069e8       ??_C@_1M@LJLLCMEH@?$AAp?$AAt?$AA?9?$AAb?$AAr?$AA?$AA@ 00000001800299e8     libucrt:lcidtoname_downlevel.obj
 0002:000069f8       ??_C@_1M@NCMONAAL@?$AAp?$AAt?$AA?9?$AAp?$AAt?$AA?$AA@ 00000001800299f8     libucrt:lcidtoname_downlevel.obj
 0002:00006a08       ??_C@_1O@EAKMAJDN@?$AAq?$AAu?$AAz?$AA?9?$AAb?$AAo?$AA?$AA@ 0000000180029a08     libucrt:lcidtoname_downlevel.obj
 0002:00006a18       ??_C@_1O@BHHPIGDN@?$AAq?$AAu?$AAz?$AA?9?$AAe?$AAc?$AA?$AA@ 0000000180029a18     libucrt:lcidtoname_downlevel.obj
 0002:00006a28       ??_C@_1O@GBAPEKMJ@?$AAq?$AAu?$AAz?$AA?9?$AAp?$AAe?$AA?$AA@ 0000000180029a28     libucrt:lcidtoname_downlevel.obj
 0002:00006a38       ??_C@_1M@CLGLEFBO@?$AAr?$AAo?$AA?9?$AAr?$AAo?$AA?$AA@ 0000000180029a38     libucrt:lcidtoname_downlevel.obj
 0002:00006a48       ??_C@_1M@CEEDODME@?$AAr?$AAu?$AA?9?$AAr?$AAu?$AA?$AA@ 0000000180029a48     libucrt:lcidtoname_downlevel.obj
 0002:00006a58       ??_C@_1M@HPKKKMPP@?$AAs?$AAa?$AA?9?$AAi?$AAn?$AA?$AA@ 0000000180029a58     libucrt:lcidtoname_downlevel.obj
 0002:00006a68       ??_C@_1M@BKMAIGOJ@?$AAs?$AAe?$AA?9?$AAf?$AAi?$AA?$AA@ 0000000180029a68     libucrt:lcidtoname_downlevel.obj
 0002:00006a78       ??_C@_1M@NDPIFLFI@?$AAs?$AAe?$AA?9?$AAn?$AAo?$AA?$AA@ 0000000180029a78     libucrt:lcidtoname_downlevel.obj
 0002:00006a88       ??_C@_1M@DANKKHJ@?$AAs?$AAe?$AA?9?$AAs?$AAe?$AA?$AA@ 0000000180029a88     libucrt:lcidtoname_downlevel.obj
 0002:00006a98       ??_C@_1M@PNBLONPJ@?$AAs?$AAk?$AA?9?$AAs?$AAk?$AA?$AA@ 0000000180029a98     libucrt:lcidtoname_downlevel.obj
 0002:00006aa8       ??_C@_1M@LFMODOAL@?$AAs?$AAl?$AA?9?$AAs?$AAi?$AA?$AA@ 0000000180029aa8     libucrt:lcidtoname_downlevel.obj
 0002:00006ab8       ??_C@_1O@DFKOMPG@?$AAs?$AAm?$AAa?$AA?9?$AAn?$AAo?$AA?$AA@ 0000000180029ab8     libucrt:lcidtoname_downlevel.obj
 0002:00006ac8       ??_C@_1O@NDKPBNNH@?$AAs?$AAm?$AAa?$AA?9?$AAs?$AAe?$AA?$AA@ 0000000180029ac8     libucrt:lcidtoname_downlevel.obj
 0002:00006ad8       ??_C@_1O@PLLKBHAB@?$AAs?$AAm?$AAj?$AA?9?$AAn?$AAo?$AA?$AA@ 0000000180029ad8     libucrt:lcidtoname_downlevel.obj
 0002:00006ae8       ??_C@_1O@CLEPOGCA@?$AAs?$AAm?$AAj?$AA?9?$AAs?$AAe?$AA?$AA@ 0000000180029ae8     libucrt:lcidtoname_downlevel.obj
 0002:00006af8       ??_C@_1O@DLGJGKMK@?$AAs?$AAm?$AAn?$AA?9?$AAf?$AAi?$AA?$AA@ 0000000180029af8     libucrt:lcidtoname_downlevel.obj
 0002:00006b08       ??_C@_1O@OJDJGAJC@?$AAs?$AAm?$AAs?$AA?9?$AAf?$AAi?$AA?$AA@ 0000000180029b08     libucrt:lcidtoname_downlevel.obj
 0002:00006b18       ??_C@_1M@BOFOGHPB@?$AAs?$AAq?$AA?9?$AAa?$AAl?$AA?$AA@ 0000000180029b18     libucrt:lcidtoname_downlevel.obj
 0002:00006b28       ??_C@_1BG@LJBBIPGB@?$AAs?$AAr?$AA?9?$AAb?$AAa?$AA?9?$AAc?$AAy?$AAr?$AAl?$AA?$AA@ 0000000180029b28     libucrt:lcidtoname_downlevel.obj
 0002:00006b40       ??_C@_1BG@JLBENFOE@?$AAs?$AAr?$AA?9?$AAb?$AAa?$AA?9?$AAl?$AAa?$AAt?$AAn?$AA?$AA@ 0000000180029b40     libucrt:lcidtoname_downlevel.obj
 0002:00006b58       ??_C@_1BG@KODPNHE@?$AAs?$AAr?$AA?9?$AAs?$AAp?$AA?9?$AAc?$AAy?$AAr?$AAl?$AA?$AA@ 0000000180029b58     libucrt:lcidtoname_downlevel.obj
 0002:00006b70       ??_C@_1BG@CIOGKHPB@?$AAs?$AAr?$AA?9?$AAs?$AAp?$AA?9?$AAl?$AAa?$AAt?$AAn?$AA?$AA@ 0000000180029b70     libucrt:lcidtoname_downlevel.obj
 0002:00006b88       ??_C@_1M@NGFJLMAC@?$AAs?$AAv?$AA?9?$AAf?$AAi?$AA?$AA@ 0000000180029b88     libucrt:lcidtoname_downlevel.obj
 0002:00006b98       ??_C@_1M@MPJEJAJC@?$AAs?$AAv?$AA?9?$AAs?$AAe?$AA?$AA@ 0000000180029b98     libucrt:lcidtoname_downlevel.obj
 0002:00006ba8       ??_C@_1M@MPNDHLFK@?$AAs?$AAw?$AA?9?$AAk?$AAe?$AA?$AA@ 0000000180029ba8     libucrt:lcidtoname_downlevel.obj
 0002:00006bb8       ??_C@_1O@KOHBJJI@?$AAs?$AAy?$AAr?$AA?9?$AAs?$AAy?$AA?$AA@ 0000000180029bb8     libucrt:lcidtoname_downlevel.obj
 0002:00006bc8       ??_C@_1M@LDCEFHA@?$AAt?$AAa?$AA?9?$AAi?$AAn?$AA?$AA@ 0000000180029bc8     libucrt:lcidtoname_downlevel.obj
 0002:00006bd8       ??_C@_1M@CNJOFAK@?$AAt?$AAe?$AA?9?$AAi?$AAn?$AA?$AA@ 0000000180029bd8     libucrt:lcidtoname_downlevel.obj
 0002:00006be8       ??_C@_1M@GNAECACD@?$AAt?$AAh?$AA?9?$AAt?$AAh?$AA?$AA@ 0000000180029be8     libucrt:lcidtoname_downlevel.obj
 0002:00006bf8       ??_C@_1M@CHBIHOJO@?$AAt?$AAn?$AA?9?$AAz?$AAa?$AA?$AA@ 0000000180029bf8     libucrt:lcidtoname_downlevel.obj
 0002:00006c08       ??_C@_1M@GCCMIGPJ@?$AAt?$AAr?$AA?9?$AAt?$AAr?$AA?$AA@ 0000000180029c08     libucrt:lcidtoname_downlevel.obj
 0002:00006c18       ??_C@_1M@CELMCNBK@?$AAt?$AAt?$AA?9?$AAr?$AAu?$AA?$AA@ 0000000180029c18     libucrt:lcidtoname_downlevel.obj
 0002:00006c28       ??_C@_1M@KLMCELGA@?$AAu?$AAk?$AA?9?$AAu?$AAa?$AA?$AA@ 0000000180029c28     libucrt:lcidtoname_downlevel.obj
 0002:00006c38       ??_C@_1M@EPAJJAJF@?$AAu?$AAr?$AA?9?$AAp?$AAk?$AA?$AA@ 0000000180029c38     libucrt:lcidtoname_downlevel.obj
 0002:00006c48       ??_C@_1BG@GEGPMCDJ@?$AAu?$AAz?$AA?9?$AAu?$AAz?$AA?9?$AAc?$AAy?$AAr?$AAl?$AA?$AA@ 0000000180029c48     libucrt:lcidtoname_downlevel.obj
 0002:00006c60       ??_C@_1BG@EGGKJILM@?$AAu?$AAz?$AA?9?$AAu?$AAz?$AA?9?$AAl?$AAa?$AAt?$AAn?$AA?$AA@ 0000000180029c60     libucrt:lcidtoname_downlevel.obj
 0002:00006c78       ??_C@_1M@GFOCLFF@?$AAv?$AAi?$AA?9?$AAv?$AAn?$AA?$AA@ 0000000180029c78     libucrt:lcidtoname_downlevel.obj
 0002:00006c88       ??_C@_1M@CPAMEDFI@?$AAx?$AAh?$AA?9?$AAz?$AAa?$AA?$AA@ 0000000180029c88     libucrt:lcidtoname_downlevel.obj
 0002:00006c98       ??_C@_1O@EBKIFIGN@?$AAz?$AAh?$AA?9?$AAc?$AAh?$AAs?$AA?$AA@ 0000000180029c98     libucrt:lcidtoname_downlevel.obj
 0002:00006ca8       ??_C@_1O@NMHPGANE@?$AAz?$AAh?$AA?9?$AAc?$AAh?$AAt?$AA?$AA@ 0000000180029ca8     libucrt:lcidtoname_downlevel.obj
 0002:00006cb8       ??_C@_1M@LPINJOMC@?$AAz?$AAh?$AA?9?$AAc?$AAn?$AA?$AA@ 0000000180029cb8     libucrt:lcidtoname_downlevel.obj
 0002:00006cc8       ??_C@_1M@OCJEJODD@?$AAz?$AAh?$AA?9?$AAh?$AAk?$AA?$AA@ 0000000180029cc8     libucrt:lcidtoname_downlevel.obj
 0002:00006cd8       ??_C@_1M@DNDLJINH@?$AAz?$AAh?$AA?9?$AAm?$AAo?$AA?$AA@ 0000000180029cd8     libucrt:lcidtoname_downlevel.obj
 0002:00006ce8       ??_C@_1M@MBFDNDND@?$AAz?$AAh?$AA?9?$AAs?$AAg?$AA?$AA@ 0000000180029ce8     libucrt:lcidtoname_downlevel.obj
 0002:00006cf8       ??_C@_1M@IMEPLEPE@?$AAz?$AAh?$AA?9?$AAt?$AAw?$AA?$AA@ 0000000180029cf8     libucrt:lcidtoname_downlevel.obj
 0002:00006d08       ??_C@_1M@BBGHNHJP@?$AAz?$AAu?$AA?9?$AAz?$AAa?$AA?$AA@ 0000000180029d08     libucrt:lcidtoname_downlevel.obj
 0002:00006d18       __real@3ff0000000000000    0000000180029d18     libucrt:ceil.obj
 0002:00006f70       ??_C@_1BA@BALFACEM@?$AAC?$AAO?$AAN?$AAO?$AAU?$AAT?$AA$?$AA?$AA@ 0000000180029f70     libucrt:initcon.obj
 0002:00006f80       __log10_256_lead           0000000180029f80     libucrt:log10_256_lead_tail_table.obj
 0002:00007790       __log10_256_tail           000000018002a790     libucrt:log10_256_lead_tail_table.obj
 0002:00007fa0       __log_F_inv_qword          000000018002afa0     libucrt:log_f_inv_qword_table.obj
 0002:000087b0       ??_C@_05HGHHAHAP@log10?$AA@ 000000018002b7b0     libucrt:log_special.obj
 0002:000087d0       ??_C@_00CNPNBAHC@?$AA@     000000018002b7d0     serialport.obj
 0002:000087d8       ??_C@_0BA@JFNIOLAK@string?5too?5long?$AA@ 000000018002b7d8     serialport.obj
 0002:000087f0       ??_C@_1LK@LEFOJNNA@?$AAc?$AA?3?$AA?2?$AAs?$AAr?$AAc?$AA?2?$AAj?$AAi?$AAt?$AA?9?$AAg?$AAu?$AAi?$AA?2?$AAs?$AAo?$AAf?$AAt?$AAw?$AAa?$AAr?$AAe?$AA?2?$AAn?$AAo?$AAd?$AAe?$AA_?$AAm?$AAo?$AAd@ 000000018002b7f0     serialport.obj
 0002:000088b0       ??_C@_1FK@CBGIJHDF@?$AAv?$AAa?$AAl?$AAu?$AAe?$AA?4?$AAs?$AAi?$AAz?$AAe?$AA?$CI?$AA?$CJ?$AA?5?$AA?$DM?$AA?$DN?$AA?5?$AAI?$AAN?$AAT?$AA_?$AAM?$AAA?$AAX?$AA?5?$AA?$CG?$AA?$CG?$AA?5?$AA?$CC?$AAs?$AAt?$AAr?$AAi@ 000000018002b8b0     serialport.obj
 0002:00008910       ??_C@_1IO@ELJMADNP@?$AAC?$AA?3?$AA?2?$AAs?$AAr?$AAc?$AA?2?$AAj?$AAi?$AAt?$AA?9?$AAg?$AAu?$AAi?$AA?2?$AAs?$AAo?$AAf?$AAt?$AAw?$AAa?$AAr?$AAe?$AA?2?$AAn?$AAo?$AAd?$AAe?$AA_?$AAm?$AAo?$AAd@ 000000018002b910     serialport.obj
 0002:000089a0       ??_C@_1BO@OPFMAOCA@?$AAl?$AAe?$AAn?$AA?5?$AA?$DM?$AA?$DN?$AA?5?$AAI?$AAN?$AAT?$AA_?$AAM?$AAA?$AAX?$AA?$AA@ 000000018002b9a0     serialport.obj
 0002:000089c0       ??_C@_1BE@CKDJNAPC@?$AAs?$AAt?$AAr?$AA_?$AA?5?$AA?$CB?$AA?$DN?$AA?5?$AA0?$AA?$AA@ 000000018002b9c0     serialport.obj
 0002:000089d8       ??_C@_0CA@PHEBDBMF@First?5argument?5must?5be?5a?5string?$AA@ 000000018002b9d8     serialport.obj
 0002:000089f8       ??_C@_0CC@DOLIGLGO@Second?5argument?5must?5be?5an?5objec@ 000000018002b9f8     serialport.obj
 0002:00008a20       ??_C@_0CC@KNCIJJMF@Third?5argument?5must?5be?5a?5functio@ 000000018002ba20     serialport.obj
 0002:00008a48       ??_C@_08NACMADDF@baudRate?$AA@ 000000018002ba48     serialport.obj
 0002:00008a58       ??_C@_08OMEAOKAC@dataBits?$AA@ 000000018002ba58     serialport.obj
 0002:00008a68       ??_C@_0L@FCEIMOFK@bufferSize?$AA@ 000000018002ba68     serialport.obj
 0002:00008a74       ??_C@_06CFGKCFEA@parity?$AA@ 000000018002ba74     serialport.obj
 0002:00008a80       ??_C@_08LNOJODPP@stopBits?$AA@ 000000018002ba80     serialport.obj
 0002:00008a8c       ??_C@_06EJNMIGBP@rtscts?$AA@ 000000018002ba8c     serialport.obj
 0002:00008a94       ??_C@_03MIMFGCKE@xon?$AA@  000000018002ba94     serialport.obj
 0002:00008a98       ??_C@_04OMMHDPAK@xoff?$AA@ 000000018002ba98     serialport.obj
 0002:00008aa0       ??_C@_04MPFBBHBP@xany?$AA@ 000000018002baa0     serialport.obj
 0002:00008aa8       ??_C@_05HDEOENJK@hupcl?$AA@ 000000018002baa8     serialport.obj
 0002:00008ab0       ??_C@_04MKMCLCOO@lock?$AA@ 000000018002bab0     serialport.obj
 0002:00008ab8       ??_C@_0BA@MGPPHKHC@platformOptions?$AA@ 000000018002bab8     serialport.obj
 0002:00008ac8       ??_C@_0N@JJGGGCOE@dataCallback?$AA@ 000000018002bac8     serialport.obj
 0002:00008ad8       ??_C@_0BF@MMKFENOF@disconnectedCallback?$AA@ 000000018002bad8     serialport.obj
 0002:00008af0       ??_C@_0O@GBPNIDIK@errorCallback?$AA@ 000000018002baf0     serialport.obj
 0002:00008b00       ??_C@_0BO@BHDHAAIC@First?5argument?5must?5be?5an?5int?$AA@ 000000018002bb00     serialport.obj
 0002:00008b20       ??_C@_0CH@LMLBKNAD@baudRate?5must?5be?5set?5on?5options?5@ 000000018002bb20     serialport.obj
 0002:00008b48       ??_C@_0CB@CADFKPNI@Second?5argument?5must?5be?5a?5buffer@ 000000018002bb48     serialport.obj
 0002:00008b70       ??_C@_0DJ@LHGJDFBA@There?8s?5no?5write?5queue?5for?5that?5@ 000000018002bb70     serialport.obj
 0002:00008bb0       ??_C@_0DP@OOBEEJFH@There?8s?5no?5write?5queue?5for?5that?5@ 000000018002bbb0     serialport.obj
 0002:00008bf0       ??_C@_0CD@FDCLPLBL@Second?5argument?5must?5be?5a?5functi@ 000000018002bbf0     serialport.obj
 0002:00008c18       ??_C@_0CC@LODBDECI@First?5argument?5must?5be?5a?5functio@ 000000018002bc18     serialport.obj
 0002:00008c40       ??_C@_07DBPBBGJJ@comName?$AA@ 000000018002bc40     serialport.obj
 0002:00008c48       ??_C@_0N@KCKFIEGL@manufacturer?$AA@ 000000018002bc48     serialport.obj
 0002:00008c58       ??_C@_0N@OMOHFKCJ@serialNumber?$AA@ 000000018002bc58     serialport.obj
 0002:00008c68       ??_C@_05HGPICCMB@pnpId?$AA@ 000000018002bc68     serialport.obj
 0002:00008c70       ??_C@_0L@BOGINKLP@locationId?$AA@ 000000018002bc70     serialport.obj
 0002:00008c80       ??_C@_08OOCGBFEC@vendorId?$AA@ 000000018002bc80     serialport.obj
 0002:00008c90       ??_C@_09FNKBJNGL@productId?$AA@ 000000018002bc90     serialport.obj
 0002:00008c9c       ??_C@_03JOOIBBDJ@brk?$AA@  000000018002bc9c     serialport.obj
 0002:00008ca0       ??_C@_03EIGHKCEN@rts?$AA@  000000018002bca0     serialport.obj
 0002:00008ca4       ??_C@_03KAMCJCLH@cts?$AA@  000000018002bca4     serialport.obj
 0002:00008ca8       ??_C@_03CEAOJLEP@dtr?$AA@  000000018002bca8     serialport.obj
 0002:00008cac       ??_C@_03CBEBINMK@dsr?$AA@  000000018002bcac     serialport.obj
 0002:00008cb0       ??_C@_04CGFJFPFD@none?$AA@ 000000018002bcb0     serialport.obj
 0002:00008cb8       ??_C@_04JDDJEAHN@even?$AA@ 000000018002bcb8     serialport.obj
 0002:00008cc0       ??_C@_04KJJCFCK@mark?$AA@  000000018002bcc0     serialport.obj
 0002:00008cc8       ??_C@_03PDLBAKOJ@odd?$AA@  000000018002bcc8     serialport.obj
 0002:00008ccc       ??_C@_05OLNILLAB@space?$AA@ 000000018002bccc     serialport.obj
 0002:00008cd4       ??_C@_03KCHOJKKI@set?$AA@  000000018002bcd4     serialport.obj
 0002:00008cd8       ??_C@_04PMOCAHAA@open?$AA@ 000000018002bcd8     serialport.obj
 0002:00008ce0       ??_C@_06HDLLMMEJ@update?$AA@ 000000018002bce0     serialport.obj
 0002:00008ce8       ??_C@_05NGFEDHGN@write?$AA@ 000000018002bce8     serialport.obj
 0002:00008cf0       ??_C@_05LBOHBHFK@close?$AA@ 000000018002bcf0     serialport.obj
 0002:00008cf8       ??_C@_04DONFEANM@list?$AA@ 000000018002bcf8     serialport.obj
 0002:00008d00       ??_C@_05GLCAEPFP@flush?$AA@ 000000018002bd00     serialport.obj
 0002:00008d08       ??_C@_05GBKIIGFP@drain?$AA@ 000000018002bd08     serialport.obj
 0002:00008d10       ??_C@_0BG@BKNJDEGG@?4?4?2src?2serialport?4cpp?$AA@ 000000018002bd10     serialport.obj
 0002:00008d28       ??_C@_0L@BMBGKDA@serialport?$AA@ 000000018002bd28     serialport.obj
 0002:00008d38       ??_C@_0BI@CFPLBAOH@invalid?5string?5position?$AA@ 000000018002bd38     serialport.obj
 0002:00008d50       ??_C@_1GA@PFOOBIAG@?$AAl?$AAe?$AAn?$AAg?$AAt?$AAh?$AA?5?$AA?$DM?$AA?$DN?$AA?5?$AAi?$AAm?$AAp?$AA?3?$AA?3?$AAk?$AAM?$AAa?$AAx?$AAL?$AAe?$AAn?$AAg?$AAt?$AAh?$AA?5?$AA?$CG?$AA?$CG?$AA?5?$AA?$CC?$AAt?$AAo@ 000000018002bd50     serialport_win.obj
 0002:00008db0       ??_C@_0BD@BLPNGLIH@?$CFs?3?5File?5not?5found?$AA@ 000000018002bdb0     serialport_win.obj
 0002:00008dc8       ??_C@_0BD@GPOKPNCK@?$CFs?3?5Invalid?5handle?$AA@ 000000018002bdc8     serialport_win.obj
 0002:00008de0       ??_C@_0BC@KPJPBKFJ@?$CFs?3?5Access?5denied?$AA@ 000000018002bde0     serialport_win.obj
 0002:00008df8       ??_C@_0BG@FFOFPOPJ@?$CFs?3?5operation?5aborted?$AA@ 000000018002bdf8     serialport_win.obj
 0002:00008e10       ??_C@_0BK@JFNDFHEK@?$CFs?3?5Unknown?5error?5code?5?$CFd?$AA@ 000000018002be10     serialport_win.obj
 0002:00008e2c       ??_C@_04GBDIODIA@?2?2?4?2?$AA@ 000000018002be2c     serialport_win.obj
 0002:00008e38       ??_C@_0L@GJHAJNIB@Opening?5?$CFs?$AA@ 000000018002be38     serialport_win.obj
 0002:00008e48       ??_C@_0N@NHAHINCA@GetCommState?$AA@ 000000018002be48     serialport_win.obj
 0002:00008e58       ??_C@_0N@KDLJEBGM@SetCommState?$AA@ 000000018002be58     serialport_win.obj
 0002:00008e68       ??_C@_0BA@NHFMBHEE@SetCommTimeouts?$AA@ 000000018002be68     serialport_win.obj
 0002:00008e78       ??_C@_0CK@NCBLKDEH@Setting?5options?5on?5COM?5port?5?$CISet@ 000000018002be78     serialport_win.obj
 0002:00008ea8       ??_C@_0CB@IFPFGDDE@Reading?5from?5COM?5port?5?$CIReadFile?$CJ@ 000000018002bea8     serialport_win.obj
 0002:00008ed0       ??_C@_0CM@KIDAHMDM@Reading?5from?5COM?5port?5?$CIGetOverla@ 000000018002bed0     serialport_win.obj
 0002:00008f00       ??_C@_0CA@DEKDENAJ@Writing?5to?5COM?5port?5?$CIWriteFile?$CJ?$AA@ 000000018002bf00     serialport_win.obj
 0002:00008f20       ??_C@_0CK@BGPOGOML@Writing?5to?5COM?5port?5?$CIGetOverlapp@ 000000018002bf20     serialport_win.obj
 0002:00008f50       ??_C@_0N@MDJJJHMB@kernel32?4dll?$AA@ 000000018002bf50     serialport_win.obj
 0002:00008f60       ??_C@_0L@COJLGOAG@CancelIoEx?$AA@ 000000018002bf60     serialport_win.obj
 0002:00008f70       ??_C@_0BD@FABABKML@closing?5connection?$AA@ 000000018002bf70     serialport_win.obj
 0002:00008f90       ??_C@_1HC@HPPDILKB@?$AAw?$AAi?$AAn?$AAm?$AAg?$AAm?$AAt?$AAs?$AA?3?$AA?$HL?$AAi?$AAm?$AAp?$AAe?$AAr?$AAs?$AAo?$AAn?$AAa?$AAt?$AAi?$AAo?$AAn?$AAL?$AAe?$AAv?$AAe?$AAl?$AA?$DN?$AAi?$AAm?$AAp@ 000000018002bf90     serialport_win.obj
 0002:00009008       ??_C@_1DM@IDNHBLIN@?$AAS?$AAe?$AAl?$AAe?$AAc?$AAt?$AA?5?$AA?$CK?$AA?5?$AAf?$AAr?$AAo?$AAm?$AA?5?$AAW?$AAi?$AAn?$AA3?$AA2?$AA_?$AAP?$AAn?$AAP?$AAE?$AAn?$AAt?$AAi?$AAt?$AAy?$AA?$AA@ 000000018002c008     serialport_win.obj
 0002:00009048       ??_C@_1BO@OMPDANMO@?$AA?4?$AAE?$AAx?$AAe?$AAc?$AAQ?$AAu?$AAe?$AAr?$AAy?$AA?$CI?$AA?$CF?$AAS?$AA?$CJ?$AA?$AA@ 000000018002c048     serialport_win.obj
 0002:00009068       ??_C@_15HKBJCNIM@?$AA?$CF?$AAo?$AA?$AA@ 000000018002c068     serialport_win.obj
 0002:00009070       ??_C@_1M@FBIKLNPF@?$AA?4?$AAN?$AAa?$AAm?$AAe?$AA?$AA@ 000000018002c070     serialport_win.obj
 0002:0000907c       ??_C@_15GANGMFKL@?$AA?$CF?$AAs?$AA?$AA@ 000000018002c07c     serialport_win.obj
 0002:00009088       ??_C@_1BK@HLEKJOLB@?$AA?4?$AAP?$AAn?$AAP?$AAD?$AAe?$AAv?$AAi?$AAc?$AAe?$AAI?$AAD?$AA?$AA@ 000000018002c088     serialport_win.obj
 0002:000090a4       ??_C@_04HPNMGAEB@?$CICOM?$AA@ 000000018002c0a4     serialport_win.obj
 0002:000090b0       ??_C@_1BM@OHCJMGPI@?$AA?4?$AAM?$AAa?$AAn?$AAu?$AAf?$AAa?$AAc?$AAt?$AAu?$AAr?$AAe?$AAr?$AA?$AA@ 000000018002c0b0     serialport_win.obj
 0002:000090cc       ??_C@_02HCKGKOFO@?$CI?$CJ?$AA@ 000000018002c0cc     serialport_win.obj
 0002:000090d0       ??_C@_05BIOCGAFO@COM?$CFu?$AA@ 000000018002c0d0     serialport_win.obj
 0002:000090d8       ??_C@_0CH@GEGDMILK@flushing?5connection?5?$CIFlushFileBu@ 000000018002c0d8     serialport_win.obj
 0002:00009100       ??_C@_0CH@MALLNKLF@draining?5connection?5?$CIFlushFileBu@ 000000018002c100     serialport_win.obj
 0002:00009128       ??_C@_0BB@MOGOBHAF@list?$DMT?$DO?5too?5long?$AA@ 000000018002c128     serialport_win.obj
 0002:00009140       ??_C@_1BO@HDBDBCJG@?$AAC?$AAr?$AAe?$AAa?$AAt?$AAe?$AAO?$AAb?$AAj?$AAe?$AAc?$AAt?$AAE?$AAx?$AA?$AA@ 000000018002c140     disphelper.obj
 0002:00009160       ??_C@_1BI@DMFBAPEL@?$AAG?$AAe?$AAt?$AAO?$AAb?$AAj?$AAe?$AAc?$AAt?$AAE?$AAx?$AA?$AA@ 000000018002c160     disphelper.obj
 0002:00009178       ??_C@_1BE@MLEHPFBH@?$AAG?$AAe?$AAt?$AAO?$AAb?$AAj?$AAe?$AAc?$AAt?$AA?$AA@ 000000018002c178     disphelper.obj
 0002:00009190       ??_C@_1BC@EOKMJIGM@?$AAG?$AAe?$AAt?$AAV?$AAa?$AAl?$AAu?$AAe?$AA?$AA@ 000000018002c190     disphelper.obj
 0002:000091a8       ??_C@_1BI@PDIILNOC@?$AAI?$AAn?$AAv?$AAo?$AAk?$AAe?$AAA?$AAr?$AAr?$AAa?$AAy?$AA?$AA@ 000000018002c1a8     disphelper.obj
 0002:000091c0       ??_C@_1BE@NJPKCBAP@?$AAG?$AAe?$AAt?$AAV?$AAa?$AAl?$AAu?$AAe?$AAV?$AA?$AA@ 000000018002c1c0     disphelper.obj
 0002:000091d8       ??_C@_1BA@HHECJPLE@?$AAI?$AAn?$AAv?$AAo?$AAk?$AAe?$AAV?$AA?$AA@ 000000018002c1d8     disphelper.obj
 0002:000091e8       ??_C@_1CG@GNAEBGGB@?$AAT?$AAr?$AAa?$AAv?$AAe?$AAr?$AAs?$AAe?$AAS?$AAu?$AAb?$AAO?$AAb?$AAj?$AAe?$AAc?$AAt?$AAs?$AA?$AA@ 000000018002c1e8     disphelper.obj
 0002:00009210       ??_C@_1CA@CLNDPHIN@?$AAI?$AAn?$AAt?$AAe?$AAr?$AAn?$AAa?$AAl?$AAI?$AAn?$AAv?$AAo?$AAk?$AAe?$AAV?$AA?$AA@ 000000018002c210     disphelper.obj
 0002:00009230       ??_C@_1CI@INCHDFDD@?$AAC?$AAr?$AAe?$AAa?$AAt?$AAe?$AAA?$AAr?$AAg?$AAu?$AAm?$AAe?$AAn?$AAt?$AAA?$AAr?$AAr?$AAa?$AAy?$AA?$AA@ 000000018002c230     disphelper.obj
 0002:00009258       ??_C@_1BG@MNFFKJJK@?$AAE?$AAn?$AAu?$AAm?$AAB?$AAe?$AAg?$AAi?$AAn?$AAV?$AA?$AA@ 000000018002c258     disphelper.obj
 0002:00009270       ??_C@_1BC@IDLEPMAN@?$AA_?$AAN?$AAe?$AAw?$AAE?$AAn?$AAu?$AAm?$AA?$AA@ 000000018002c270     disphelper.obj
 0002:00009288       ??_C@_1BG@BDNAMAIA@?$AAE?$AAn?$AAu?$AAm?$AAe?$AAr?$AAa?$AAt?$AAo?$AAr?$AA?$AA@ 000000018002c288     disphelper.obj
 0002:000092a0       ??_C@_1BO@IAFBFOJB@?$AAE?$AAn?$AAu?$AAm?$AAN?$AAe?$AAx?$AAt?$AAO?$AAb?$AAj?$AAe?$AAc?$AAt?$AA?$AA@ 000000018002c2a0     disphelper.obj
 0002:000092c0       ??_C@_1BE@ELBMMOIE@?$AAE?$AAn?$AAu?$AAm?$AAB?$AAe?$AAg?$AAi?$AAn?$AA?$AA@ 000000018002c2c0     disphelper.obj
 0002:000092e0       ??_C@_1EA@IPGDCEJG@?$AAN?$AAo?$AA?5?$AAe?$AAr?$AAr?$AAo?$AAr?$AA?5?$AAi?$AAn?$AAf?$AAo?$AAr?$AAm?$AAa?$AAt?$AAi?$AAo?$AAn?$AA?5?$AAa?$AAv?$AAa?$AAi?$AAl?$AAa?$AAb?$AAl?$AAe?$AA?4?$AA?$AA@ 000000018002c2e0     disphelper.obj
 0002:00009320       ??_C@_1CI@EMFHHJCI@?$AAI?$AAD?$AAi?$AAs?$AAp?$AAa?$AAt?$AAc?$AAh?$AA?5?$AAI?$AAn?$AAt?$AAe?$AAr?$AAf?$AAa?$AAc?$AAe?$AA?$AA@ 000000018002c320     disphelper.obj
 0002:00009348       ??_C@_1BI@JBDNBBGL@?$AAA?$AAp?$AAp?$AAl?$AAi?$AAc?$AAa?$AAt?$AAi?$AAo?$AAn?$AA?$AA@ 000000018002c348     disphelper.obj
 0002:00009360       ??_C@_1CA@NMPDLHEN@?$AAO?$AAb?$AAj?$AAe?$AAc?$AAt?$AA?5?$AAr?$AAe?$AAq?$AAu?$AAi?$AAr?$AAe?$AAd?$AA?$AA@ 000000018002c360     disphelper.obj
 0002:00009380       ??_C@_1GK@OIIAPLCE@?$AAO?$AAb?$AAj?$AAe?$AAc?$AAt?$AA?5?$AAd?$AAo?$AAe?$AAs?$AAn?$AA?8?$AAt?$AA?5?$AAs?$AAu?$AAp?$AAp?$AAo?$AAr?$AAt?$AA?5?$AAt?$AAh?$AAi?$AAs?$AA?5?$AAp?$AAr?$AAo?$AAp@ 000000018002c380     disphelper.obj
 0002:000093f0       ??_C@_1FA@BOGLMBCH@?$AAT?$AAy?$AAp?$AAe?$AA?5?$AAm?$AAi?$AAs?$AAm?$AAa?$AAt?$AAc?$AAh?$AA?3?$AA?5?$AA?8?$AA?$CF?$AAs?$AA?8?$AA?4?$AA?5?$AAA?$AAr?$AAg?$AAu?$AAm?$AAe?$AAn?$AAt?$AA?5?$AAI?$AAn@ 000000018002c3f0     disphelper.obj
 0002:00009440       ??_C@_1CM@DGABBFHF@?$AAU?$AAn?$AAk?$AAn?$AAo?$AAw?$AAn?$AA?5?$AAr?$AAu?$AAn?$AAt?$AAi?$AAm?$AAe?$AA?5?$AAe?$AAr?$AAr?$AAo?$AAr?$AA?$AA@ 000000018002c440     disphelper.obj
 0002:00009470       ??_C@_1KM@HFFPFOI@?$AAM?$AAe?$AAm?$AAb?$AAe?$AAr?$AA?3?$AA?7?$AA?5?$AA?5?$AA?$CF?$AAs?$AA?$AN?$AA?6?$AAF?$AAu?$AAn?$AAc?$AAt?$AAi?$AAo?$AAn?$AA?3?$AA?7?$AA?5?$AA?5?$AA?$CF?$AAs?$AA?7?$AA?7?$AA?$AN?$AA?6@ 000000018002c470     disphelper.obj
 0002:000095c0       ??_C@_03GJALCMIF@COM?$AA@  000000018002c5c0     enumser.obj
 0002:000095c8       ??_C@_0BD@OLBABOEK@vector?$DMT?$DO?5too?5long?$AA@ 000000018002c5c8     enumser.obj
 0002:00009ba8       __real@3fe0000000000000    000000018002cba8     disphelper.obj
 0002:00009bb0       __real@3ff6666666666666    000000018002cbb0     serialport.obj
 0002:00009bb8       __real@3ff999999999999a    000000018002cbb8     serialport.obj
 0002:00009bc0       __real@4000000000000000    000000018002cbc0     serialport.obj
 0002:00009bc8       __real@40d8f84000000000    000000018002cbc8     disphelper.obj
 0002:00009bd0       __real@40f5180000000000    000000018002cbd0     disphelper.obj
 0002:00009bd8       __real@43e0000000000000    000000018002cbd8     disphelper.obj
 0002:00009be0       __real@c0faa95000000000    000000018002cbe0     disphelper.obj
 0002:00009de8       _pDestructExceptionObject  000000018002cde8     libvcruntime:frame.obj
 0002:00009df8       ??_7bad_exception@std@@6B@ 000000018002cdf8     libvcruntime:frame.obj
 0002:00009e08       ??_C@_0O@DPKOEFFH@bad?5exception?$AA@ 000000018002ce08     libvcruntime:frame.obj
 0002:00009e18       __real@bff0000000000000    000000018002ce18     libucrt:floor.obj
 0002:00009e80       _load_config_used          000000018002ce80     LIBCMT:loadcfg.obj
 0002:00009f18       ??_R4exception@std@@6B@    000000018002cf18     libcpmt:xthrow.obj
 0002:00009f40       ??_R3exception@std@@8      000000018002cf40     libcpmt:xthrow.obj
 0002:00009f58       ??_R2exception@std@@8      000000018002cf58     libcpmt:xthrow.obj
 0002:00009f68       ??_R1A@?0A@EA@exception@std@@8 000000018002cf68     libcpmt:xthrow.obj
 0002:00009f90       ??_R4bad_alloc@std@@6B@    000000018002cf90     libcpmt:xthrow.obj
 0002:00009fb8       ??_R3bad_alloc@std@@8      000000018002cfb8     libcpmt:xthrow.obj
 0002:00009fd0       ??_R2bad_alloc@std@@8      000000018002cfd0     libcpmt:xthrow.obj
 0002:00009fe8       ??_R1A@?0A@EA@bad_alloc@std@@8 000000018002cfe8     libcpmt:xthrow.obj
 0002:0000a010       ??_R4logic_error@std@@6B@  000000018002d010     libcpmt:xthrow.obj
 0002:0000a038       ??_R3logic_error@std@@8    000000018002d038     libcpmt:xthrow.obj
 0002:0000a050       ??_R2logic_error@std@@8    000000018002d050     libcpmt:xthrow.obj
 0002:0000a068       ??_R1A@?0A@EA@logic_error@std@@8 000000018002d068     libcpmt:xthrow.obj
 0002:0000a090       ??_R4length_error@std@@6B@ 000000018002d090     libcpmt:xthrow.obj
 0002:0000a0b8       ??_R3length_error@std@@8   000000018002d0b8     libcpmt:xthrow.obj
 0002:0000a0d0       ??_R2length_error@std@@8   000000018002d0d0     libcpmt:xthrow.obj
 0002:0000a0f0       ??_R1A@?0A@EA@length_error@std@@8 000000018002d0f0     libcpmt:xthrow.obj
 0002:0000a118       ??_R4out_of_range@std@@6B@ 000000018002d118     libcpmt:xthrow.obj
 0002:0000a140       ??_R3out_of_range@std@@8   000000018002d140     libcpmt:xthrow.obj
 0002:0000a158       ??_R2out_of_range@std@@8   000000018002d158     libcpmt:xthrow.obj
 0002:0000a178       ??_R1A@?0A@EA@out_of_range@std@@8 000000018002d178     libcpmt:xthrow.obj
 0002:0000a1a0       ??_R4type_info@@6B@        000000018002d1a0     LIBCMT:std_type_info_static.obj
 0002:0000a1c8       ??_R3type_info@@8          000000018002d1c8     LIBCMT:std_type_info_static.obj
 0002:0000a1e0       ??_R2type_info@@8          000000018002d1e0     LIBCMT:std_type_info_static.obj
 0002:0000a1f0       ??_R1A@?0A@EA@type_info@@8 000000018002d1f0     LIBCMT:std_type_info_static.obj
 0002:0000a218       ??_R4bad_array_new_length@std@@6B@ 000000018002d218     LIBCMT:throw_bad_alloc.obj
 0002:0000a240       ??_R3bad_array_new_length@std@@8 000000018002d240     LIBCMT:throw_bad_alloc.obj
 0002:0000a258       ??_R2bad_array_new_length@std@@8 000000018002d258     LIBCMT:throw_bad_alloc.obj
 0002:0000a278       ??_R1A@?0A@EA@bad_array_new_length@std@@8 000000018002d278     LIBCMT:throw_bad_alloc.obj
 0002:0000a2a0       ??_R4bad_exception@std@@6B@ 000000018002d2a0     libvcruntime:frame.obj
 0002:0000a2c8       ??_R3bad_exception@std@@8  000000018002d2c8     libvcruntime:frame.obj
 0002:0000a2e0       ??_R2bad_exception@std@@8  000000018002d2e0     libvcruntime:frame.obj
 0002:0000a2f8       ??_R1A@?0A@EA@bad_exception@std@@8 000000018002d2f8     libvcruntime:frame.obj
 0002:0000a320       ?_TraceLoggingMetadata@?1??_TlgWrite@__vcrt_trace_logging_provider@@YAJPEBU_TlgProvider_t@2@PEFBXPEBU_GUID@@2IPEAU_EVENT_DATA_DESCRIPTOR@@@Z@4U_TraceLoggingMetadata_t@2@B 000000018002d320     libvcruntime:telemetry.obj
 0002:0000a3d3       ?_TraceLoggingMetadataEnd@?1??_TlgWrite@__vcrt_trace_logging_provider@@YAJPEBU_TlgProvider_t@2@PEFBXPEBU_GUID@@2IPEAU_EVENT_DATA_DESCRIPTOR@@@Z@4EB 000000018002d3d3     libvcruntime:telemetry.obj
 0002:0000a7d8       __rtc_iaa                  000000018002d7d8     LIBCMT:_initsect_.obj
 0002:0000a7e0       __rtc_izz                  000000018002d7e0     LIBCMT:_initsect_.obj
 0002:0000a7e8       __rtc_taa                  000000018002d7e8     LIBCMT:_initsect_.obj
 0002:0000a7f0       __rtc_tzz                  000000018002d7f0     LIBCMT:_initsect_.obj
 0002:0000d0f0       _TI2?AVbad_alloc@std@@     00000001800300f0     libcpmt:xthrow.obj
 0002:0000d110       _CTA2?AVbad_alloc@std@@    0000000180030110     libcpmt:xthrow.obj
 0002:0000d128       _CT??_R0?AVbad_alloc@std@@@8??0bad_alloc@std@@QEAA@AEBV01@@Z24 0000000180030128     libcpmt:xthrow.obj
 0002:0000d150       _CT??_R0?AVexception@std@@@8??0exception@std@@QEAA@AEBV01@@Z24 0000000180030150     libcpmt:xthrow.obj
 0002:0000d178       _CT??_R0?AVlogic_error@std@@@8??0logic_error@std@@QEAA@AEBV01@@Z24 0000000180030178     libcpmt:xthrow.obj
 0002:0000d1a0       _TI3?AVlength_error@std@@  00000001800301a0     libcpmt:xthrow.obj
 0002:0000d1c0       _CTA3?AVlength_error@std@@ 00000001800301c0     libcpmt:xthrow.obj
 0002:0000d1e0       _CT??_R0?AVlength_error@std@@@8??0length_error@std@@QEAA@AEBV01@@Z24 00000001800301e0     libcpmt:xthrow.obj
 0002:0000d208       _TI3?AVout_of_range@std@@  0000000180030208     libcpmt:xthrow.obj
 0002:0000d228       _CTA3?AVout_of_range@std@@ 0000000180030228     libcpmt:xthrow.obj
 0002:0000d248       _CT??_R0?AVout_of_range@std@@@8??0out_of_range@std@@QEAA@AEBV01@@Z24 0000000180030248     libcpmt:xthrow.obj
 0002:0000d270       _TI3?AVbad_array_new_length@std@@ 0000000180030270     LIBCMT:throw_bad_alloc.obj
 0002:0000d290       _CTA3?AVbad_array_new_length@std@@ 0000000180030290     LIBCMT:throw_bad_alloc.obj
 0002:0000d2b0       _CT??_R0?AVbad_array_new_length@std@@@8??0bad_array_new_length@std@@QEAA@AEBV01@@Z24 00000001800302b0     LIBCMT:throw_bad_alloc.obj
 0002:0000d2d8       _TI2?AVbad_exception@std@@ 00000001800302d8     libvcruntime:frame.obj
 0002:0000d2f8       _CTA2?AVbad_exception@std@@ 00000001800302f8     libvcruntime:frame.obj
 0002:0000d310       _CT??_R0?AVbad_exception@std@@@8??0bad_exception@std@@QEAA@AEBV01@@Z24 0000000180030310     libvcruntime:frame.obj
 0002:0000d398       __IMPORT_DESCRIPTOR_KERNEL32 0000000180030398     kernel32:KERNEL32.dll
 0002:0000d3ac       __IMPORT_DESCRIPTOR_USER32 00000001800303ac     user32:USER32.dll
 0002:0000d3c0       __IMPORT_DESCRIPTOR_ole32  00000001800303c0     ole32:ole32.dll
 0002:0000d3d4       __IMPORT_DESCRIPTOR_OLEAUT32 00000001800303d4     oleaut32:OLEAUT32.dll
 0002:0000d3e8       __IMPORT_DESCRIPTOR_node   00000001800303e8     node:node.dll
 0002:0000d3fc       __IMPORT_DESCRIPTOR_ADVAPI32 00000001800303fc     advapi32:ADVAPI32.dll
 0002:0000d410       __NULL_IMPORT_DESCRIPTOR   0000000180030410     kernel32:KERNEL32.dll
 0003:00000000       __scrt_native_dllmain_reason 0000000180032000     LIBCMT:utility.obj
 0003:00000008       __security_cookie          0000000180032008     LIBCMT:gs_cookie.obj
 0003:00000010       __security_cookie_complement 0000000180032010     LIBCMT:gs_cookie.obj
 0003:00000018       __isa_available            0000000180032018     LIBCMT:_cpu_disp_.obj
 0003:0000001c       __isa_enabled              000000018003201c     LIBCMT:_cpu_disp_.obj
 0003:00000020       __memcpy_nt_iters          0000000180032020     LIBCMT:_cpu_disp_.obj
 0003:00000090       __abort_behavior           0000000180032090     libucrt:abort.obj
 0003:000000a0       _iob                       00000001800320a0     libucrt:_file.obj
 0003:000001b0       __acrt_initial_locale_data 00000001800321b0     libucrt:nlsdata.obj
 0003:00000308       __acrt_initial_locale_pointers 0000000180032308     libucrt:nlsdata.obj
 0003:00000318       __acrt_wide_c_locale_string 0000000180032318     libucrt:nlsdata.obj
 0003:00000320       __badioinfo                0000000180032320     libucrt:ioinit.obj
 0003:00000410       _pwctype                   0000000180032410     libucrt:ctype.obj
 0003:00000420       __acrt_initial_multibyte_data 0000000180032420     libucrt:mbctype.obj
 0003:00000648       __acrt_current_multibyte_data 0000000180032648     libucrt:mbctype.obj
 0003:00000750       _mbctype                   0000000180032750     libucrt:mbctype.obj
 0003:00000860       _mbcasemap                 0000000180032860     libucrt:mbctype.obj
 0003:00000960       __globallocalestatus       0000000180032960     libucrt:glstatus.obj
 0003:00000970       __acrt_lconv_c             0000000180032970     libucrt:localeconv.obj
 0003:00000a08       __acrt_lconv_static_decimal 0000000180032a08     libucrt:localeconv.obj
 0003:00000a0c       __acrt_lconv_static_W_decimal 0000000180032a0c     libucrt:localeconv.obj
 0003:00000a10       __dcrt_lowio_console_output_handle 0000000180032a10     libucrt:initcon.obj
 0003:00000a30       _fltused                   0000000180032a30     LIBCMT:fltused.obj
 0003:00000a90       ??_R0?AVbad_alloc@std@@@8  0000000180032a90     libcpmt:xthrow.obj
 0003:00000ab8       ??_R0?AVexception@std@@@8  0000000180032ab8     libcpmt:xthrow.obj
 0003:00000ae0       ??_R0?AVlogic_error@std@@@8 0000000180032ae0     libcpmt:xthrow.obj
 0003:00000b08       ??_R0?AVlength_error@std@@@8 0000000180032b08     libcpmt:xthrow.obj
 0003:00000b30       ??_R0?AVout_of_range@std@@@8 0000000180032b30     libcpmt:xthrow.obj
 0003:00000b58       ??_R0?AVtype_info@@@8      0000000180032b58     LIBCMT:std_type_info_static.obj
 0003:00000b78       ??_R0?AVbad_array_new_length@std@@@8 0000000180032b78     LIBCMT:throw_bad_alloc.obj
 0003:00000ba8       ??_R0?AVbad_exception@std@@@8 0000000180032ba8     libvcruntime:frame.obj
 0003:00000bd0       __scrt_current_native_startup_state 0000000180032bd0     LIBCMT:utility.obj
 0003:00000bd8       __scrt_native_startup_lock 0000000180032bd8     LIBCMT:utility.obj
 0003:00001190       __favor                    0000000180033190     LIBCMT:_cpu_disp_.obj
 0003:00001194       __scrt_debugger_hook_flag  0000000180033194     LIBCMT:utility_desktop.obj
 0003:000011a0       ?__type_info_root_node@@3U__type_info_node@@A 00000001800331a0     LIBCMT:tncleanup.obj
 0003:000011b0       ?_OptionsStorage@?1??__local_stdio_scanf_options@@9@4_KA 00000001800331b0     LIBCMT:default_local_stdio_options.obj
 0003:000012d8       __pPurecall                00000001800332d8     libvcruntime:purevirt_data.obj
 0003:000012e0       ?pArgList@UnDecorator@@0PEAVReplicator@@EA 00000001800332e0     libvcruntime:undname.obj
 0003:000012e8       ?pZNameList@UnDecorator@@0PEAVReplicator@@EA 00000001800332e8     libvcruntime:undname.obj
 0003:000012f0       ?pTemplateArgList@UnDecorator@@0PEAVReplicator@@EA 00000001800332f0     libvcruntime:undname.obj
 0003:000012f8       ?gName@UnDecorator@@0PEBDEB 00000001800332f8     libvcruntime:undname.obj
 0003:00001300       ?name@UnDecorator@@0PEBDEB 0000000180033300     libvcruntime:undname.obj
 0003:00001308       ?outputString@UnDecorator@@0PEADEA 0000000180033308     libvcruntime:undname.obj
 0003:00001310       ?maxStringLength@UnDecorator@@0HA 0000000180033310     libvcruntime:undname.obj
 0003:00001314       ?disableFlags@UnDecorator@@0KA 0000000180033314     libvcruntime:undname.obj
 0003:00001318       ?fExplicitTemplateParams@UnDecorator@@0_NA 0000000180033318     libvcruntime:undname.obj
 0003:00001319       ?fGetTemplateArgumentList@UnDecorator@@0_NA 0000000180033319     libvcruntime:undname.obj
 0003:00001320       ?m_pGetParameter@UnDecorator@@0P6APEADJ@ZEA 0000000180033320     libvcruntime:undname.obj
 0003:00001488       _environ_table             0000000180033488     libucrt:environment_initialization.obj
 0003:00001490       _wenviron_table            0000000180033490     libucrt:environment_initialization.obj
 0003:00001498       __dcrt_initial_wide_environment 0000000180033498     libucrt:environment_initialization.obj
 0003:000014a0       __dcrt_initial_narrow_environment 00000001800334a0     libucrt:environment_initialization.obj
 0003:000014a8       __acrt_atexit_table        00000001800334a8     libucrt:onexit.obj
 0003:000014c0       __acrt_at_quick_exit_table 00000001800334c0     libucrt:onexit.obj
 0003:000014e0       _nstream                   00000001800334e0     libucrt:_file.obj
 0003:000014e8       __piob                     00000001800334e8     libucrt:_file.obj
 0003:000014f0       _cflush                    00000001800334f0     libucrt:_file.obj
 0003:00001520       __acrt_stdout_buffer       0000000180033520     libucrt:_sftbuf.obj
 0003:00001528       __acrt_stderr_buffer       0000000180033528     libucrt:_sftbuf.obj
 0003:00001530       __acrt_locale_changed_data 0000000180033530     libucrt:wsetlocale.obj
 0003:00001538       __acrt_current_locale_data 0000000180033538     libucrt:nlsdata.obj
 0003:00001540       __pioinfo                  0000000180033540     libucrt:ioinit.obj
 0003:00001940       _nhandle                   0000000180033940     libucrt:ioinit.obj
 0003:00001948       ?_timezone@@3V?$dual_state_global@J@__crt_state_management@@A 0000000180033948     libucrt:timeset.obj
 0003:0000194c       ?_daylight@@3V?$dual_state_global@H@__crt_state_management@@A 000000018003394c     libucrt:timeset.obj
 0003:00001950       ?_dstbias@@3V?$dual_state_global@J@__crt_state_management@@A 0000000180033950     libucrt:timeset.obj
 0003:00001de4       __mbcodepage               0000000180033de4     libucrt:mbctype.obj
 0003:00001de8       __ismbcodepage             0000000180033de8     libucrt:mbctype.obj
 0003:00001df0       __mbulinfo                 0000000180033df0     libucrt:mbctype.obj
 0003:00001e00       __mblocalename             0000000180033e00     libucrt:mbctype.obj
 0003:00001e0c       __argc                     0000000180033e0c     libucrt:argv_data.obj
 0003:00001e10       __argv                     0000000180033e10     libucrt:argv_data.obj
 0003:00001e18       __wargv                    0000000180033e18     libucrt:argv_data.obj
 0003:00001e20       _acmdln                    0000000180033e20     libucrt:argv_data.obj
 0003:00001e28       _wcmdln                    0000000180033e28     libucrt:argv_data.obj
 0003:00001e30       _pgmptr                    0000000180033e30     libucrt:argv_data.obj
 0003:00001e38       __acrt_heap                0000000180033e38     libucrt:heap_handle.obj
 0003:00001e4c       __acrt_lconv_static_null   0000000180033e4c     libucrt:localeconv.obj
 0003:00001e50       __acrt_lconv_static_W_null 0000000180033e50     libucrt:localeconv.obj
 0003:00001e54       __fma3_is_available        0000000180033e54     libucrt:fma3_available.obj
 0003:00001e58       __use_fma3_lib             0000000180033e58     libucrt:fma3_available.obj
 0003:00001e68       ?bufferSize@@3HA           0000000180033e68     serialport_win.obj
 0003:00001e70       ?g_closingHandles@@3V?$list@HV?$allocator@H@std@@@std@@A 0000000180033e70     serialport_win.obj
 0003:00001ea8       ?_OptionsStorage@?1??__local_stdio_printf_options@@9@4_KA 0000000180033ea8     serialport_win.obj
 0003:00001eb0       ?g_OutOfMemoryExceptionCallback@@3P6APEAXXZEA 0000000180033eb0     libvcruntime:frame.obj
 0003:00001eb8       __dyn_tls_init_callback    0000000180033eb8     <common>
 0003:00001ec0       __scrt_ucrt_dll_is_in_use  0000000180033ec0     <common>
 0003:00001ec4       dh_g_bIsUnicodeMode        0000000180033ec4     <common>

 entry point at        0001:0000990c

 Static symbols

 0000:fffc7000       .debug$S                   0000000180000000     kernel32:KERNEL32.dll
 0000:fffc7000       .debug$S                   0000000180000000     serialport.exp
 0000:fffc7000       .debug$S                   0000000180000000     kernel32:KERNEL32.dll
 0000:fffc7000       .debug$S                   0000000180000000     kernel32:KERNEL32.dll
 0000:fffc7000       .debug$S                   0000000180000000     kernel32:KERNEL32.dll
 0000:fffc7000       .debug$S                   0000000180000000     kernel32:KERNEL32.dll
 0000:fffc7000       .debug$S                   0000000180000000     kernel32:KERNEL32.dll
 0000:fffc7000       .debug$S                   0000000180000000     kernel32:KERNEL32.dll
 0000:fffc7000       .debug$S                   0000000180000000     kernel32:KERNEL32.dll
 0000:fffc7000       .debug$S                   0000000180000000     kernel32:KERNEL32.dll
 0000:fffc7000       .debug$S                   0000000180000000     kernel32:KERNEL32.dll
 0000:fffc7000       .debug$S                   0000000180000000     kernel32:KERNEL32.dll
 0000:fffc7000       .debug$S                   0000000180000000     kernel32:KERNEL32.dll
 0000:fffc7000       .debug$S                   0000000180000000     kernel32:KERNEL32.dll
 0000:fffc7000       .debug$S                   0000000180000000     kernel32:KERNEL32.dll
 0000:fffc7000       .debug$S                   0000000180000000     kernel32:KERNEL32.dll
 0000:fffc7000       .debug$S                   0000000180000000     kernel32:KERNEL32.dll
 0000:fffc7000       .debug$S                   0000000180000000     kernel32:KERNEL32.dll
 0000:fffc7000       .debug$S                   0000000180000000     kernel32:KERNEL32.dll
 0000:fffc7000       .debug$S                   0000000180000000     kernel32:KERNEL32.dll
 0000:fffc7000       .debug$S                   0000000180000000     kernel32:KERNEL32.dll
 0000:fffc7000       .debug$S                   0000000180000000     kernel32:KERNEL32.dll
 0000:fffc7000       .debug$S                   0000000180000000     kernel32:KERNEL32.dll
 0000:fffc7000       .debug$S                   0000000180000000     kernel32:KERNEL32.dll
 0000:fffc7000       .debug$S                   0000000180000000     kernel32:KERNEL32.dll
 0000:fffc7000       .debug$S                   0000000180000000     kernel32:KERNEL32.dll
 0000:fffc7000       .debug$S                   0000000180000000     kernel32:KERNEL32.dll
 0000:fffc7000       .debug$S                   0000000180000000     kernel32:KERNEL32.dll
 0000:fffc7000       .debug$S                   0000000180000000     kernel32:KERNEL32.dll
 0000:fffc7000       .debug$S                   0000000180000000     kernel32:KERNEL32.dll
 0000:fffc7000       .debug$S                   0000000180000000     kernel32:KERNEL32.dll
 0000:fffc7000       .debug$S                   0000000180000000     kernel32:KERNEL32.dll
 0000:fffc7000       .debug$S                   0000000180000000     kernel32:KERNEL32.dll
 0000:fffc7000       .debug$S                   0000000180000000     kernel32:KERNEL32.dll
 0000:fffc7000       .debug$S                   0000000180000000     kernel32:KERNEL32.dll
 0000:fffc7000       .debug$S                   0000000180000000     kernel32:KERNEL32.dll
 0000:fffc7000       .debug$S                   0000000180000000     kernel32:KERNEL32.dll
 0000:fffc7000       .debug$S                   0000000180000000     kernel32:KERNEL32.dll
 0000:fffc7000       .debug$S                   0000000180000000     node:node.dll
 0000:fffc7000       .debug$S                   0000000180000000     node:node.dll
 0000:fffc7000       .debug$S                   0000000180000000     node:node.dll
 0000:fffc7000       .debug$S                   0000000180000000     node:node.dll
 0000:fffc7000       .debug$S                   0000000180000000     node:node.dll
 0000:fffc7000       .debug$S                   0000000180000000     node:node.dll
 0000:fffc7000       .debug$S                   0000000180000000     node:node.dll
 0000:fffc7000       .debug$S                   0000000180000000     node:node.dll
 0000:fffc7000       .debug$S                   0000000180000000     node:node.dll
 0000:fffc7000       .debug$S                   0000000180000000     node:node.dll
 0000:fffc7000       .debug$S                   0000000180000000     node:node.dll
 0000:fffc7000       .debug$S                   0000000180000000     kernel32:KERNEL32.dll
 0000:fffc7000       .debug$S                   0000000180000000     node:node.dll
 0000:fffc7000       .debug$S                   0000000180000000     node:node.dll
 0000:fffc7000       .debug$S                   0000000180000000     kernel32:KERNEL32.dll
 0000:fffc7000       .debug$S                   0000000180000000     node:node.dll
 0000:fffc7000       .debug$S                   0000000180000000     node:node.dll
 0000:fffc7000       .debug$S                   0000000180000000     node:node.dll
 0000:fffc7000       .debug$S                   0000000180000000     node:node.dll
 0000:fffc7000       .debug$S                   0000000180000000     node:node.dll
 0000:fffc7000       .debug$S                   0000000180000000     node:node.dll
 0000:fffc7000       .debug$S                   0000000180000000     node:node.dll
 0000:fffc7000       .debug$S                   0000000180000000     node:node.dll
 0000:fffc7000       .debug$S                   0000000180000000     node:node.dll
 0000:fffc7000       .debug$S                   0000000180000000     node:node.dll
 0000:fffc7000       .debug$S                   0000000180000000     node:node.dll
 0000:fffc7000       .debug$S                   0000000180000000     node:node.dll
 0000:fffc7000       .debug$S                   0000000180000000     node:node.dll
 0000:fffc7000       .debug$S                   0000000180000000     node:node.dll
 0000:fffc7000       .debug$S                   0000000180000000     node:node.dll
 0000:fffc7000       .debug$S                   0000000180000000     node:node.dll
 0000:fffc7000       .debug$S                   0000000180000000     node:node.dll
 0000:fffc7000       .debug$S                   0000000180000000     node:node.dll
 0000:fffc7000       .debug$S                   0000000180000000     node:node.dll
 0000:fffc7000       .debug$S                   0000000180000000     node:node.dll
 0000:fffc7000       .debug$S                   0000000180000000     node:node.dll
 0000:fffc7000       .debug$S                   0000000180000000     node:node.dll
 0000:fffc7000       .debug$S                   0000000180000000     node:node.dll
 0000:fffc7000       .debug$S                   0000000180000000     node:node.dll
 0000:fffc7000       .debug$S                   0000000180000000     node:node.dll
 0000:fffc7000       .debug$S                   0000000180000000     node:node.dll
 0000:fffc7000       .debug$S                   0000000180000000     node:node.dll
 0000:fffc7000       .debug$S                   0000000180000000     node:node.dll
 0000:fffc7000       .debug$S                   0000000180000000     node:node.dll
 0000:fffc7000       .debug$S                   0000000180000000     node:node.dll
 0000:fffc7000       .debug$S                   0000000180000000     node:node.dll
 0000:fffc7000       .debug$S                   0000000180000000     node:node.dll
 0000:fffc7000       .debug$S                   0000000180000000     node:node.dll
 0000:fffc7000       .debug$S                   0000000180000000     kernel32:KERNEL32.dll
 0000:fffc7000       .debug$S                   0000000180000000     node:node.dll
 0000:fffc7000       .debug$S                   0000000180000000     node:node.dll
 0000:fffc7000       .debug$S                   0000000180000000     node:node.dll
 0000:fffc7000       .debug$S                   0000000180000000     node:node.dll
 0000:fffc7000       .debug$S                   0000000180000000     node:node.dll
 0000:fffc7000       .debug$S                   0000000180000000     node:node.dll
 0000:fffc7000       .debug$S                   0000000180000000     node:node.dll
 0000:fffc7000       .debug$S                   0000000180000000     node:node.dll
 0000:fffc7000       .debug$S                   0000000180000000     node:node.dll
 0000:fffc7000       .debug$S                   0000000180000000     node:node.dll
 0000:fffc7000       .debug$S                   0000000180000000     node:node.dll
 0000:fffc7000       .debug$S                   0000000180000000     node:node.dll
 0000:fffc7000       .debug$S                   0000000180000000     node:node.dll
 0000:fffc7000       .debug$S                   0000000180000000     node:node.dll
 0000:fffc7000       .debug$S                   0000000180000000     kernel32:KERNEL32.dll
 0000:fffc7000       .debug$S                   0000000180000000     node:node.dll
 0000:fffc7000       .debug$S                   0000000180000000     node:node.dll
 0000:fffc7000       .debug$S                   0000000180000000     kernel32:KERNEL32.dll
 0000:fffc7000       .debug$S                   0000000180000000     node:node.dll
 0000:fffc7000       .debug$S                   0000000180000000     node:node.dll
 0000:fffc7000       .debug$S                   0000000180000000     node:node.dll
 0000:fffc7000       .debug$S                   0000000180000000     node:node.dll
 0000:fffc7000       .debug$S                   0000000180000000     node:node.dll
 0000:fffc7000       .debug$S                   0000000180000000     node:node.dll
 0000:fffc7000       .debug$S                   0000000180000000     node:node.dll
 0000:fffc7000       .debug$S                   0000000180000000     oleaut32:OLEAUT32.dll
 0000:fffc7000       .debug$S                   0000000180000000     oleaut32:OLEAUT32.dll
 0000:fffc7000       .debug$S                   0000000180000000     oleaut32:OLEAUT32.dll
 0000:fffc7000       .debug$S                   0000000180000000     oleaut32:OLEAUT32.dll
 0000:fffc7000       .debug$S                   0000000180000000     oleaut32:OLEAUT32.dll
 0000:fffc7000       .debug$S                   0000000180000000     oleaut32:OLEAUT32.dll
 0000:fffc7000       .debug$S                   0000000180000000     oleaut32:OLEAUT32.dll
 0000:fffc7000       .debug$S                   0000000180000000     oleaut32:OLEAUT32.dll
 0000:fffc7000       .debug$S                   0000000180000000     ole32:ole32.dll
 0000:fffc7000       .debug$S                   0000000180000000     ole32:ole32.dll
 0000:fffc7000       .debug$S                   0000000180000000     ole32:ole32.dll
 0000:fffc7000       .debug$S                   0000000180000000     ole32:ole32.dll
 0000:fffc7000       .debug$S                   0000000180000000     ole32:ole32.dll
 0000:fffc7000       .debug$S                   0000000180000000     ole32:ole32.dll
 0000:fffc7000       .debug$S                   0000000180000000     advapi32:ADVAPI32.dll
 0000:fffc7000       .debug$S                   0000000180000000     user32:USER32.dll
 0000:fffc7000       .debug$S                   0000000180000000     kernel32:KERNEL32.dll
 0000:fffc7000       .debug$S                   0000000180000000     kernel32:KERNEL32.dll
 0000:fffc7000       .debug$S                   0000000180000000     kernel32:KERNEL32.dll
 0000:fffc7000       .debug$S                   0000000180000000     kernel32:KERNEL32.dll
 0000:fffc7000       .debug$S                   0000000180000000     kernel32:KERNEL32.dll
 0000:fffc7000       .debug$S                   0000000180000000     kernel32:KERNEL32.dll
 0000:fffc7000       .debug$S                   0000000180000000     kernel32:KERNEL32.dll
 0000:fffc7000       .debug$S                   0000000180000000     kernel32:KERNEL32.dll
 0000:fffc7000       .debug$S                   0000000180000000     kernel32:KERNEL32.dll
 0000:fffc7000       .debug$S                   0000000180000000     kernel32:KERNEL32.dll
 0000:fffc7000       .debug$S                   0000000180000000     kernel32:KERNEL32.dll
 0000:fffc7000       .debug$S                   0000000180000000     kernel32:KERNEL32.dll
 0000:fffc7000       .debug$S                   0000000180000000     kernel32:KERNEL32.dll
 0000:fffc7000       .debug$S                   0000000180000000     kernel32:KERNEL32.dll
 0000:fffc7000       .debug$S                   0000000180000000     kernel32:KERNEL32.dll
 0000:fffc7000       .debug$S                   0000000180000000     kernel32:KERNEL32.dll
 0000:fffc7000       .debug$S                   0000000180000000     kernel32:KERNEL32.dll
 0000:fffc7000       .debug$S                   0000000180000000     kernel32:KERNEL32.dll
 0000:fffc7000       .debug$S                   0000000180000000     kernel32:KERNEL32.dll
 0000:fffc7000       .debug$S                   0000000180000000     kernel32:KERNEL32.dll
 0000:fffc7000       .debug$S                   0000000180000000     kernel32:KERNEL32.dll
 0000:fffc7000       .debug$S                   0000000180000000     kernel32:KERNEL32.dll
 0000:fffc7000       .debug$S                   0000000180000000     kernel32:KERNEL32.dll
 0000:fffc7000       .debug$S                   0000000180000000     kernel32:KERNEL32.dll
 0000:fffc7000       .debug$S                   0000000180000000     kernel32:KERNEL32.dll
 0000:fffc7000       .debug$S                   0000000180000000     kernel32:KERNEL32.dll
 0000:fffc7000       .debug$S                   0000000180000000     kernel32:KERNEL32.dll
 0000:fffc7000       .debug$S                   0000000180000000     kernel32:KERNEL32.dll
 0000:fffc7000       .debug$S                   0000000180000000     kernel32:KERNEL32.dll
 0000:fffc7000       .debug$S                   0000000180000000     kernel32:KERNEL32.dll
 0000:fffc7000       .debug$S                   0000000180000000     kernel32:KERNEL32.dll
 0000:fffc7000       .debug$S                   0000000180000000     kernel32:KERNEL32.dll
 0000:fffc7000       .debug$S                   0000000180000000     kernel32:KERNEL32.dll
 0000:fffc7000       .debug$S                   0000000180000000     kernel32:KERNEL32.dll
 0000:fffc7000       .debug$S                   0000000180000000     kernel32:KERNEL32.dll
 0000:fffc7000       .debug$S                   0000000180000000     kernel32:KERNEL32.dll
 0000:fffc7000       .debug$S                   0000000180000000     kernel32:KERNEL32.dll
 0000:fffc7000       .debug$S                   0000000180000000     kernel32:KERNEL32.dll
 0000:fffc7000       .debug$S                   0000000180000000     kernel32:KERNEL32.dll
 0000:fffc7000       .debug$S                   0000000180000000     kernel32:KERNEL32.dll
 0000:fffc7000       .debug$S                   0000000180000000     kernel32:KERNEL32.dll
 0000:fffc7000       .debug$S                   0000000180000000     kernel32:KERNEL32.dll
 0000:fffc7000       .debug$S                   0000000180000000     kernel32:KERNEL32.dll
 0000:fffc7000       .debug$S                   0000000180000000     kernel32:KERNEL32.dll
 0000:fffc7000       .debug$S                   0000000180000000     kernel32:KERNEL32.dll
 0000:fffc7000       .debug$S                   0000000180000000     kernel32:KERNEL32.dll
 0000:fffc7000       .debug$S                   0000000180000000     kernel32:KERNEL32.dll
 0000:fffc7000       .debug$S                   0000000180000000     kernel32:KERNEL32.dll
 0000:fffc7000       .debug$S                   0000000180000000     kernel32:KERNEL32.dll
 0000:fffc7000       .debug$S                   0000000180000000     kernel32:KERNEL32.dll
 0000:fffc7000       .debug$S                   0000000180000000     kernel32:KERNEL32.dll
 0000:fffc7000       .debug$S                   0000000180000000     kernel32:KERNEL32.dll
 0000:fffc7000       .debug$S                   0000000180000000     kernel32:KERNEL32.dll
 0000:fffc7000       .debug$S                   0000000180000000     kernel32:KERNEL32.dll
 0000:fffc7000       .debug$S                   0000000180000000     kernel32:KERNEL32.dll
 0000:fffc7000       .debug$S                   0000000180000000     kernel32:KERNEL32.dll
 0000:fffc7000       .debug$S                   0000000180000000     kernel32:KERNEL32.dll
 0000:fffc7000       .debug$S                   0000000180000000     kernel32:KERNEL32.dll
 0000:fffc7000       .debug$S                   0000000180000000     kernel32:KERNEL32.dll
 0000:fffc7000       .debug$S                   0000000180000000     kernel32:KERNEL32.dll
 0000:fffc7000       .debug$S                   0000000180000000     kernel32:KERNEL32.dll
 0000:fffc7000       .debug$S                   0000000180000000     kernel32:KERNEL32.dll
 0000:fffc7000       .debug$S                   0000000180000000     kernel32:KERNEL32.dll
 0000:fffc7000       .debug$S                   0000000180000000     kernel32:KERNEL32.dll
 0000:fffc7000       .debug$S                   0000000180000000     kernel32:KERNEL32.dll
 0000:fffc7000       .debug$S                   0000000180000000     kernel32:KERNEL32.dll
 0001:000001e0       ??__Eg_closingHandles@@YAXXZ 00000001800011e0 f   serialport_win.obj
 0001:00000240       ?FunctionCallbackWrapper@imp@Nan@@YAXAEBV?$FunctionCallbackInfo@VValue@v8@@@v8@@@Z 0000000180001240 f   serialport.obj
 0001:00000780       ?newQForFD@@YAPEAU_WriteQueue@@H@Z 0000000180001780 f   serialport.obj
 0001:000053a0       ?FinalizerCallback@@YAXPEADPEAX@Z 00000001800063a0 f   serialport_win.obj
 0001:00006b94       $LN72                      0000000180007b94     disphelper.obj
 0001:00006bc0       $LN71                      0000000180007bc0     disphelper.obj
 0001:00006bf8       $LN70                      0000000180007bf8     disphelper.obj
 0001:00006c28       $LN69                      0000000180007c28     disphelper.obj
 0001:00006e30       TraverseSubObjects         0000000180007e30 f   disphelper.obj
 0001:00006fe0       InternalInvokeV            0000000180007fe0 f   disphelper.obj
 0001:000071c0       CreateArgumentArray        00000001800081c0 f   disphelper.obj
 0001:000073b0       ExtractArgument            00000001800083b0 f   disphelper.obj
 0001:000076b0       $LN50                      00000001800086b0     disphelper.obj
 0001:000076f4       $LN49                      00000001800086f4     disphelper.obj
 0001:00009140       $$000000                   000000018000a140     LIBCMT:_amdsecgs_.obj
 0001:0000959c       ?dllmain_crt_dispatch@@YAHQEAUHINSTANCE__@@KQEAX@Z 000000018000a59c f   LIBCMT:dll_dllmain.obj
 0001:000095ec       ?dllmain_crt_process_attach@@YAHQEAUHINSTANCE__@@QEAX@Z 000000018000a5ec f   LIBCMT:dll_dllmain.obj
 0001:00009718       ?dllmain_crt_process_detach@@YAH_N@Z 000000018000a718 f   LIBCMT:dll_dllmain.obj
 0001:0000979c       ?dllmain_dispatch@@YAHQEAUHINSTANCE__@@KQEAX@Z 000000018000a79c f   LIBCMT:dll_dllmain.obj
 0001:000098b8       ?dllmain_raw@@YAHQEAUHINSTANCE__@@KQEAX@Z 000000018000a8b8 f   LIBCMT:dll_dllmain.obj
 0001:00009b30       capture_current_context    000000018000ab30 f   LIBCMT:gs_report.obj
 0001:00009ba0       capture_previous_context   000000018000aba0 f   LIBCMT:gs_report.obj
 0001:0000a150       $$000000                   000000018000b150     libvcruntime:memcpy.obj
 0001:0000a1f7       MoveSmall                  000000018000b1f7     libvcruntime:memcpy.obj
 0001:0000ac2c       _TlgDefineProvider_annotation__Tlg_Microsoft_CRTProviderProv 000000018000bc2c f   libvcruntime:telemetry.obj
 0001:0000aea0       $$000000                   000000018000bea0     libvcruntime:memset.obj
 0001:0000af8c       MsetTab                    000000018000bf8c     libvcruntime:memset.obj
 0001:0000b2cc       ?try_get_function@@YAPEAXW4function_id@?A0x49c8dc86@@QEBDQEBW4module_id@2@2@Z 000000018000c2cc f   libvcruntime:winapi_downlevel.obj
 0001:0000b900       $$000000                   000000018000c900     libvcruntime:_jmpuwind_.obj
 0001:0000b974       ??$common_assert_to_message_box@_W@@YAXQEB_W0IQEAX@Z 000000018000c974 f   libucrt:assert.obj
 0001:0000ba38       ??$common_assert_to_message_box_build_string@_W@@YAXQEA_W_KQEB_W2IQEAX@Z 000000018000ca38 f   libucrt:assert.obj
 0001:0000c20c       ??$common_assert_to_stderr@_W@@YAXQEB_W0I@Z 000000018000d20c f   libucrt:assert.obj
 0001:0000c37c       ?get_assert_format@@YAPEB_W_W@Z 000000018000d37c f   libucrt:assert.obj
 0001:0000c890       ??$common_vsprintf@Vformat_validation_base@__crt_stdio_output@@D@@YAH_KQEAD0QEBDQEAU__crt_locale_pointers@@1@Z 000000018000d890 f   libucrt:output.obj
 0001:0000cf78       ??R<lambda_dd75445284c072d0bd3768540cc698fa>@@QEBAHXZ 000000018000df78 f   libucrt:output.obj
 0001:0000fac0       $$000000                   0000000180010ac0     libucrt:strncpy.obj
 0001:0000fca8       ??$common_mktime@_J@@YA_JQEAUtm@@_N@Z 0000000180010ca8 f   libucrt:mktime.obj
 0001:0001006c       ??$common_gmtime_s@_J@@YAHQEAUtm@@QEB_J@Z 000000018001106c f   libucrt:gmtime.obj
 0001:00010200       ?compute_year@@YAHAEA_JAEA_N@Z 0000000180011200 f   libucrt:gmtime.obj
 0001:00010380       ??$common_localtime_s@_J@@YAHQEAUtm@@QEB_J@Z 0000000180011380 f   libucrt:localtime.obj
 0001:000116b4       ?atexit_exception_filter@@YAHK@Z 00000001800126b4 f   libucrt:exit.obj
 0001:000116c0       ?common_exit@@YAXHW4_crt_exit_cleanup_mode@@W4_crt_exit_return_mode@@@Z 00000001800126c0 f   libucrt:exit.obj
 0001:0001182c       ?exit_or_terminate_process@@YAXI@Z 000000018001282c f   libucrt:exit.obj
 0001:00011878       ?try_cor_exit_process@@YAXI@Z 0000000180012878 f   libucrt:exit.obj
 0001:00011910       ??$parse_command_line@D@@YAXPEADPEAPEAD0PEA_K2@Z 0000000180012910 f   libucrt:argv_parsing.obj
 0001:00011ca8       ??$common_get_or_create_environment_nolock@D@@YAPEAPEADXZ 0000000180012ca8 f   libucrt:environment_initialization.obj
 0001:00011cf0       ??$common_initialize_environment_nolock@D@@YAHXZ 0000000180012cf0 f   libucrt:environment_initialization.obj
 0001:00011d5c       ??$create_environment@D@@YAQEAPEADQEAD@Z 0000000180012d5c f   libucrt:environment_initialization.obj
 0001:00011e58       ??$free_environment@D@@YAXQEAPEAD@Z 0000000180012e58 f   libucrt:environment_initialization.obj
 0001:00011e58       ??$free_environment@_W@@YAXQEAPEA_W@Z 0000000180012e58 f   libucrt:environment_initialization.obj
 0001:00011e9c       ??$initialize_environment_by_cloning_nolock@D@@YAHXZ 0000000180012e9c f   libucrt:environment_initialization.obj
 0001:00011f70       ??$uninitialize_environment_internal@D@@YAXAEAPEAPEAD@Z 0000000180012f70 f   libucrt:environment_initialization.obj
 0001:00011f8c       ??$uninitialize_environment_internal@_W@@YAXAEAPEAPEA_W@Z 0000000180012f8c f   libucrt:environment_initialization.obj
 0001:000121cc       ??R<lambda_4e60a939b0d047cfe11ddc22648dfba9>@@QEBAHXZ 00000001800131cc f   libucrt:onexit.obj
 0001:0001247c       initialize_global_variables 000000018001347c f   libucrt:initialization.obj
 0001:00012490       initialize_c               0000000180013490 f   libucrt:initialization.obj
 0001:000124b4       uninitialize_environment   00000001800134b4 f   libucrt:initialization.obj
 0001:000124c4       uninitialize_c             00000001800134c4 f   libucrt:initialization.obj
 0001:000124c4       initialize_global_state_isolation 00000001800134c4 f   libucrt:initialization.obj
 0001:000124c4       initialize_environment     00000001800134c4 f   libucrt:initialization.obj
 0001:000124c4       uninitialize_global_state_isolation 00000001800134c4 f   libucrt:initialization.obj
 0001:000124c4       report_memory_leaks        00000001800134c4 f   libucrt:initialization.obj
 0001:000124c8       initialize_pointers        00000001800134c8 f   libucrt:initialization.obj
 0001:0001251c       uninitialize_vcruntime     000000018001351c f   libucrt:initialization.obj
 0001:00012524       uninitialize_allocated_memory 0000000180013524 f   libucrt:initialization.obj
 0001:000129ac       ??$common_xtox@K_W@@YAHKQEA_W_KI_N@Z 00000001800139ac f   libucrt:xtoa.obj
 0001:00012a58       ??$common_xtox_s@K_W@@YAHKQEA_W_KI_N@Z 0000000180013a58 f   libucrt:xtoa.obj
 0001:00012d1c       ??$message_box_wait_thread@_W@@YAKQEAX@Z 0000000180013d1c f   libucrt:crtmbox.obj
 0001:000130d8       common_flush_all           00000001800140d8 f   libucrt:fflush.obj
 0001:00013240       ??R<lambda_b721fa326cdb32351d23dfa67958c160>@@QEBAHXZ 0000000180014240 f   libucrt:setvbuf.obj
 0001:0001382c       ?construct_ptd_array@@YAXQEAU__acrt_ptd@@@Z 000000018001482c f   libucrt:per_thread_data.obj
 0001:000138fc       ?destroy_fls@@YAXPEAX@Z    00000001800148fc f   libucrt:per_thread_data.obj
 0001:0001391c       ?destroy_ptd_array@@YAXQEAU__acrt_ptd@@@Z 000000018001491c f   libucrt:per_thread_data.obj
 0001:00013a14       ?replace_current_thread_locale_nolock@@YAXQEAU__acrt_ptd@@QEAU__crt_locale_data@@@Z 0000000180014a14 f   libucrt:per_thread_data.obj
 0001:00013d5c       ?internal_isupper_l@@YA_NHQEAU__crt_locale_pointers@@@Z 0000000180014d5c f   libucrt:tolower_toupper.obj
 0001:00014690       ?fp_format_a@@YAHQEBNPEAD_KQEAD2H_NIQEAU__crt_locale_pointers@@@Z 0000000180015690 f   libucrt:cvt.obj
 0001:000149f0       ?fp_format_e@@YAHQEBNQEAD_K12H_NIQEAU__crt_locale_pointers@@@Z 00000001800159f0 f   libucrt:cvt.obj
 0001:00014ac0       ?fp_format_e_internal@@YAHQEAD_KH_NIQEAU_strflt@@2QEAU__crt_locale_pointers@@@Z 0000000180015ac0 f   libucrt:cvt.obj
 0001:00014c9c       ?fp_format_f_internal@@YAHQEAD_KHQEAU_strflt@@_NQEAU__crt_locale_pointers@@@Z 0000000180015c9c f   libucrt:cvt.obj
 0001:00014de4       ?fp_format_g@@YAHQEBNQEAD_K12H_NIQEAU__crt_locale_pointers@@@Z 0000000180015de4 f   libucrt:cvt.obj
 0001:00014f1c       ?fp_format_nan_or_infinity@@YAHW4__acrt_fp_class@@_NPEAD_K1@Z 0000000180015f1c f   libucrt:cvt.obj
 0001:000155d8       ?initialize_inherited_file_handles_nolock@@YAXXZ 00000001800165d8 f   libucrt:ioinit.obj
 0001:000156c4       ?initialize_stdio_handles_nolock@@YAXXZ 00000001800166c4 f   libucrt:ioinit.obj
 0001:0001591c       ?_isindst_nolock@@YAHQEAUtm@@@Z 000000018001691c f   libucrt:tzset.obj
 0001:00015c38       ?cvtdate@@YAXW4transition_type@?A0x1b14ceb2@@W4date_type@2@HHHHHHHHH@Z 0000000180016c38 f   libucrt:tzset.obj
 0001:00015e2c       ?tzset_from_environment_nolock@@YAXPEAD@Z 0000000180016e2c f   libucrt:tzset.obj
 0001:0001607c       ?tzset_from_system_nolock@@YAXXZ 000000018001707c f   libucrt:tzset.obj
 0001:00016250       ?tzset_nolock@@YAXXZ       0000000180017250 f   libucrt:tzset.obj
 0001:0001662c       ?try_get_function@@YAPEAXW4function_id@?A0x63058377@@QEBDQEBW4module_id@2@2@Z 000000018001762c f   libucrt:winapi_thunks.obj
 0001:00016f48       ?<helper_func_cdecl>@<lambda_2feae5270eb4d0d5532525f423405775>@@CAHPEBX0@Z 0000000180017f48 f   libucrt:argv_wildcards.obj
 0001:00016f5c       ??$common_expand_argv_wildcards@D@@YAHQEAPEADQEAPEAPEAD@Z 0000000180017f5c f   libucrt:argv_wildcards.obj
 0001:00017168       ??$copy_and_add_argument_to_buffer@D@@YAHQEBD0_KAEAV?$argument_list@D@?A0xca0879c4@@@Z 0000000180018168 f   libucrt:argv_wildcards.obj
 0001:00017278       ??$expand_argument_wildcards@D@@YAHQEAD0AEAV?$argument_list@D@?A0xca0879c4@@@Z 0000000180018278 f   libucrt:argv_wildcards.obj
 0001:0001752c       ??R<lambda_ad1ced32f4ac17aa236e5ef05d6b3b7c>@@QEBAXXZ 000000018001852c f   libucrt:mbctype.obj
 0001:00017744       ?getSystemCP@@YAHH@Z       0000000180018744 f   libucrt:mbctype.obj
 0001:000177c4       ?setSBCS@@YAXPEAU__crt_multibyte_data@@@Z 00000001800187c4 f   libucrt:mbctype.obj
 0001:00017854       ?setSBUpLow@@YAXPEAU__crt_multibyte_data@@@Z 0000000180018854 f   libucrt:mbctype.obj
 0001:00017a38       ?setmbcp_internal@@YAHH_N@Z 0000000180018a38 f   libucrt:mbctype.obj
 0001:00017f80       ?x_ismbbtype_l@@YAHPEAU__crt_locale_pointers@@IHH@Z 0000000180018f80 f   libucrt:ismbbyte.obj
 0001:00018138       ??$common_set_variable_in_environment_nolock@D@@YAHQEADH@Z 0000000180019138 f   libucrt:setenv.obj
 0001:00018428       ??$copy_environment@D@@YAPEAPEADQEAPEAD@Z 0000000180019428 f   libucrt:setenv.obj
 0001:00018954       ?write_double_translated_ansi_nolock@@YA?AUwrite_result@?A0x9c548279@@HQEBDI@Z 0000000180019954 f   libucrt:write.obj
 0001:00018b5c       ?write_text_ansi_nolock@@YA?AUwrite_result@?A0x9c548279@@HQEBDI@Z 0000000180019b5c f   libucrt:write.obj
 0001:00018c64       ?write_text_utf16le_nolock@@YA?AUwrite_result@?A0x9c548279@@HQEBDI@Z 0000000180019c64 f   libucrt:write.obj
 0001:00018d80       ?write_text_utf8_nolock@@YA?AUwrite_result@?A0x9c548279@@HQEBDI@Z 0000000180019d80 f   libucrt:write.obj
 0001:000196d0       ?__acrt_LCMapStringA_stat@@YAHPEAU__crt_locale_pointers@@PEB_WKPEBDHPEADHHH@Z 000000018001a6d0 f   libucrt:lcmapstringa.obj
 0001:0001b3fc       memcpy_s                   000000018001c3fc f   libucrt:cfout.obj
 0001:0001b484       ??$write_buffer_nolock@D@@YA_NDV__crt_stdio_stream@@@Z 000000018001c484 f   libucrt:_flsbuf.obj
 0001:0001b588       ??$write_buffer_nolock@_W@@YA_N_WV__crt_stdio_stream@@@Z 000000018001c588 f   libucrt:_flsbuf.obj
 0001:0001ba40       ?free_crt_array_internal@@YAXQEAPEBX_K@Z 000000018001ca40 f   libucrt:inittime.obj
 0001:0001c070       ??$common_getenv_nolock@D@@YAPEADQEBD@Z 000000018001d070 f   libucrt:getenv.obj
 0001:0001c0f8       ??$common_getenv_s@D@@YAHQEA_KQEAD_KQEBD@Z 000000018001d0f8 f   libucrt:getenv.obj
 0001:0001c200       ?GetTableIndexFromLocaleName@@YAHPEB_W@Z 000000018001d200 f   libucrt:lcidtoname_downlevel.obj
 0001:0001c300       ?shortsort@@YAXPEAD0_KP6AHPEBX2@Z@Z 000000018001d300 f   libucrt:qsort.obj
 0001:0001c844       ?initialize_multibyte@@YAHXZ 000000018001d844 f   libucrt:multibyte_initializer.obj
 0001:0001cb24       ??$common_lseek@_J@@YA_JH_JH@Z 000000018001db24 f   libucrt:lseek.obj
 0001:0001cc14       ??$common_lseek_nolock@_J@@YA_JH_JH@Z 000000018001dc14 f   libucrt:lseek.obj
 0001:0001cec0       $$000000                   000000018001dec0     libucrt:log10.obj
 0001:0001d4d0       ?InternalCompareStringA@@YAHPEAU__crt_locale_pointers@@PEB_WKPEBDH2HH@Z 000000018001e4d0 f   libucrt:comparestringa.obj
 0001:0001dc94       common_control87           000000018001ec94 f   libucrt:ieee.obj
 0001:0001df2c       _call_matherr              000000018001ef2c f   libucrt:libm_error.obj
 0001:0001df94       _exception_enabled         000000018001ef94 f   libucrt:libm_error.obj
 0001:0001e230       _log_special_common        000000018001f230 f   libucrt:log_special.obj
 0001:0001e2d0       $$000000                   000000018001f2d0     libucrt:fpsr.obj
 0001:0001e8c0       $$000000                   000000018001f8c0     LIBCMT:_chkstk_.obj
 0001:0001ea70       $$000000                   000000018001fa70     libvcruntime:memcmp.obj
 0001:0001f4ac       ?CatchIt@@YAXPEAUEHExceptionRecord@@PEA_KPEAU_CONTEXT@@PEAU_xDISPATCHER_CONTEXT@@PEBU_s_FuncInfo@@PEBU_s_HandlerType@@PEBU_s_CatchableType@@PEBU_s_TryBlockMapEntry@@H1EE@Z 00000001800204ac f   libvcruntime:frame.obj
 0001:0001f570       ?ExFilterRethrow@@YAHPEAU_EXCEPTION_POINTERS@@PEAUEHExceptionRecord@@PEAH@Z 0000000180020570 f   libvcruntime:frame.obj
 0001:0001f5f8       ?FindHandler@@YAXPEAUEHExceptionRecord@@PEA_KPEAU_CONTEXT@@PEAU_xDISPATCHER_CONTEXT@@PEBU_s_FuncInfo@@EH1@Z 00000001800205f8 f   libvcruntime:frame.obj
 0001:0001faac       ?FindHandlerForForeignException@@YAXPEAUEHExceptionRecord@@PEA_KPEAU_CONTEXT@@PEAU_xDISPATCHER_CONTEXT@@PEBU_s_FuncInfo@@HH1@Z 0000000180020aac f   libvcruntime:frame.obj
 0001:0001fd18       ?IsInExceptionSpec@@YAEPEAUEHExceptionRecord@@PEBU_s_ESTypeList@@@Z 0000000180020d18 f   libvcruntime:frame.obj
 0001:00020840       $$000000                   0000000180021840     libvcruntime:handlers.obj
 0001:00020940       $$000000                   0000000180021940     LIBCMT:_guard_dispatch_.obj
 0001:00020960       ?dtor$0@?0??New@?$Factory@VFunctionTemplate@v8@@@imp@Nan@@SA?AV?$Local@VFunctionTemplate@v8@@@v8@@P6AXAEBV?$FunctionCallbackInfo@VValue@v8@@@3@@ZV?$Local@VValue@v8@@@5@V?$Local@VSignature@v8@@@5@@Z@4HA 0000000180021960 f   serialport.obj
 0001:0002096e       ?dtor$1@?0??New@?$Factory@VFunctionTemplate@v8@@@imp@Nan@@SA?AV?$Local@VFunctionTemplate@v8@@@v8@@P6AXAEBV?$FunctionCallbackInfo@VValue@v8@@@3@@ZV?$Local@VValue@v8@@@5@V?$Local@VSignature@v8@@@5@@Z@4HA 000000018002196e f   serialport.obj
 0001:00020980       ?dtor$0@?0???1EscapableHandleScope@Nan@@QEAA@XZ@4HA 0000000180021980 f   serialport.obj
 0001:0002098e       ?dtor$1@?0???1EscapableHandleScope@Nan@@QEAA@XZ@4HA 000000018002198e f   serialport.obj
 0001:000209a0       ?dtor$0@?0???1HandleScope@Nan@@QEAA@XZ@4HA 00000001800219a0 f   serialport.obj
 0001:000209b0       ?dtor$1@?0??EIO_AfterWatchPort@@YAXPEAUuv_work_s@@@Z@4HA 00000001800219b0 f   serialport_win.obj
 0001:000209b0       ?dtor$1@?0??ThrowTypeError@Nan@@YAXPEBD@Z@4HA 00000001800219b0 f   serialport.obj
 0001:000209be       ?dtor$0@?0??EIO_AfterWatchPort@@YAXPEAUuv_work_s@@@Z@4HA 00000001800219be f   serialport_win.obj
 0001:000209be       ?dtor$0@?0??ThrowTypeError@Nan@@YAXPEBD@Z@4HA 00000001800219be f   serialport.obj
 0001:000209ca       ?dtor$6@?0??EIO_AfterWatchPort@@YAXPEAUuv_work_s@@@Z@4HA 00000001800219ca f   serialport_win.obj
 0001:000209ca       ?dtor$2@?0??ThrowTypeError@Nan@@YAXPEBD@Z@4HA 00000001800219ca f   serialport.obj
 0001:000209e0       ?dtor$1@?0??Error@Nan@@YA?AV?$Local@VValue@v8@@@v8@@PEBD@Z@4HA 00000001800219e0 f   serialport_win.obj
 0001:000209e0       ?dtor$1@?0??Call_@Callback@Nan@@AEBA?AV?$Local@VValue@v8@@@v8@@PEAVIsolate@4@V?$Local@VObject@v8@@@4@HQEAV34@@Z@4HA 00000001800219e0 f   serialport.obj
 0001:000209ee       ?dtor$0@?0??Call_@Callback@Nan@@AEBA?AV?$Local@VValue@v8@@@v8@@PEAVIsolate@4@V?$Local@VObject@v8@@@4@HQEAV34@@Z@4HA 00000001800219ee f   serialport.obj
 0001:000209ee       ?dtor$0@?0??Error@Nan@@YA?AV?$Local@VValue@v8@@@v8@@PEBD@Z@4HA 00000001800219ee f   serialport_win.obj
 0001:000209fa       ?dtor$2@?0??Error@Nan@@YA?AV?$Local@VValue@v8@@@v8@@PEBD@Z@4HA 00000001800219fa f   serialport_win.obj
 0001:000209fa       ?dtor$2@?0??Call_@Callback@Nan@@AEBA?AV?$Local@VValue@v8@@@v8@@PEAVIsolate@4@V?$Local@VObject@v8@@@4@HQEAV34@@Z@4HA 00000001800219fa f   serialport.obj
 0001:00020a08       ?dtor$3@?0??Call_@Callback@Nan@@AEBA?AV?$Local@VValue@v8@@@v8@@PEAVIsolate@4@V?$Local@VObject@v8@@@4@HQEAV34@@Z@4HA 0000000180021a08 f   serialport.obj
 0001:00020a08       ?dtor$3@?0??Error@Nan@@YA?AV?$Local@VValue@v8@@@v8@@PEBD@Z@4HA 0000000180021a08 f   serialport_win.obj
 0001:00020a20       ?dtor$0@?0???1?$Persistent@VObject@v8@@V?$NonCopyablePersistentTraits@VObject@v8@@@2@@Nan@@QEAA@XZ@4HA 0000000180021a20 f   serialport.obj
 0001:00020a20       ?dtor$0@?0???1?$Persistent@VFunction@v8@@V?$NonCopyablePersistentTraits@VFunction@v8@@@2@@Nan@@QEAA@XZ@4HA 0000000180021a20 f   serialport.obj
 0001:00020a30       ?dtor$0@?0??newQForFD@@YAPEAU_WriteQueue@@H@Z@4HA 0000000180021a30 f   serialport.obj
 0001:00020a4d       ?dtor$2@?0??newQForFD@@YAPEAU_WriteQueue@@H@Z@4HA 0000000180021a4d f   serialport.obj
 0001:00020a5d       ?dtor$1@?0??newQForFD@@YAPEAU_WriteQueue@@H@Z@4HA 0000000180021a5d f   serialport.obj
 0001:00020a7a       ?dtor$3@?0??newQForFD@@YAPEAU_WriteQueue@@H@Z@4HA 0000000180021a7a f   serialport.obj
 0001:00020a90       ?dtor$0@?0???_G_WriteQueue@@QEAAPEAXI@Z@4HA 0000000180021a90 f   serialport.obj
 0001:00020aa0       ?dtor$0@?0??getValueFromObject@@YA?AV?$Local@VValue@v8@@@v8@@V?$Local@VObject@v8@@@2@V?$basic_string@DU?$char_traits@D@std@@V?$allocator@D@2@@std@@@Z@4HA 0000000180021aa0 f   serialport.obj
 0001:00020aac       ?dtor$1@?0??getValueFromObject@@YA?AV?$Local@VValue@v8@@@v8@@V?$Local@VObject@v8@@@2@V?$basic_string@DU?$char_traits@D@std@@V?$allocator@D@2@@std@@@Z@4HA 0000000180021aac f   serialport.obj
 0001:00020ac0       ?dtor$0@?0??getIntFromObject@@YAHV?$Local@VObject@v8@@@v8@@V?$basic_string@DU?$char_traits@D@std@@V?$allocator@D@2@@std@@@Z@4HA 0000000180021ac0 f   serialport.obj
 0001:00020ac0       ?dtor$0@?0??getBoolFromObject@@YA_NV?$Local@VObject@v8@@@v8@@V?$basic_string@DU?$char_traits@D@std@@V?$allocator@D@2@@std@@@Z@4HA 0000000180021ac0 f   serialport.obj
 0001:00020ac0       ?dtor$0@?0??getDoubleFromObject@@YANV?$Local@VObject@v8@@@v8@@V?$basic_string@DU?$char_traits@D@std@@V?$allocator@D@2@@std@@@Z@4HA 0000000180021ac0 f   serialport.obj
 0001:00020acc       ?dtor$1@?0??getBoolFromObject@@YA_NV?$Local@VObject@v8@@@v8@@V?$basic_string@DU?$char_traits@D@std@@V?$allocator@D@2@@std@@@Z@4HA 0000000180021acc f   serialport.obj
 0001:00020acc       ?dtor$1@?0??getIntFromObject@@YAHV?$Local@VObject@v8@@@v8@@V?$basic_string@DU?$char_traits@D@std@@V?$allocator@D@2@@std@@@Z@4HA 0000000180021acc f   serialport.obj
 0001:00020acc       ?dtor$1@?0??getDoubleFromObject@@YANV?$Local@VObject@v8@@@v8@@V?$basic_string@DU?$char_traits@D@std@@V?$allocator@D@2@@std@@@Z@4HA 0000000180021acc f   serialport.obj
 0001:00020ae0       ?dtor$0@?0??getStringFromObj@@YA?AV?$Local@VString@v8@@@v8@@V?$Local@VObject@v8@@@2@V?$basic_string@DU?$char_traits@D@std@@V?$allocator@D@2@@std@@@Z@4HA 0000000180021ae0 f   serialport.obj
 0001:00020aec       ?dtor$1@?0??getStringFromObj@@YA?AV?$Local@VString@v8@@@v8@@V?$Local@VObject@v8@@@2@V?$basic_string@DU?$char_traits@D@std@@V?$allocator@D@2@@std@@@Z@4HA 0000000180021aec f   serialport.obj
 0001:00020b00       ?dtor$0@?0??Open@@YAXAEBV?$FunctionCallbackInfo@VValue@v8@@@Nan@@@Z@4HA 0000000180021b00 f   serialport.obj
 0001:00020b0e       ?dtor$1@?0??Open@@YAXAEBV?$FunctionCallbackInfo@VValue@v8@@@Nan@@@Z@4HA 0000000180021b0e f   serialport.obj
 0001:00020b1a       ?dtor$2@?0??Open@@YAXAEBV?$FunctionCallbackInfo@VValue@v8@@@Nan@@@Z@4HA 0000000180021b1a f   serialport.obj
 0001:00020b26       ?dtor$3@?0??Open@@YAXAEBV?$FunctionCallbackInfo@VValue@v8@@@Nan@@@Z@4HA 0000000180021b26 f   serialport.obj
 0001:00020b32       ?dtor$4@?0??Open@@YAXAEBV?$FunctionCallbackInfo@VValue@v8@@@Nan@@@Z@4HA 0000000180021b32 f   serialport.obj
 0001:00020b3e       ?dtor$5@?0??Open@@YAXAEBV?$FunctionCallbackInfo@VValue@v8@@@Nan@@@Z@4HA 0000000180021b3e f   serialport.obj
 0001:00020b4a       ?dtor$6@?0??Open@@YAXAEBV?$FunctionCallbackInfo@VValue@v8@@@Nan@@@Z@4HA 0000000180021b4a f   serialport.obj
 0001:00020b56       ?dtor$7@?0??Open@@YAXAEBV?$FunctionCallbackInfo@VValue@v8@@@Nan@@@Z@4HA 0000000180021b56 f   serialport.obj
 0001:00020b62       ?dtor$8@?0??Open@@YAXAEBV?$FunctionCallbackInfo@VValue@v8@@@Nan@@@Z@4HA 0000000180021b62 f   serialport.obj
 0001:00020b6e       ?dtor$9@?0??Open@@YAXAEBV?$FunctionCallbackInfo@VValue@v8@@@Nan@@@Z@4HA 0000000180021b6e f   serialport.obj
 0001:00020b7a       ?dtor$10@?0??Open@@YAXAEBV?$FunctionCallbackInfo@VValue@v8@@@Nan@@@Z@4HA 0000000180021b7a f   serialport.obj
 0001:00020b86       ?dtor$11@?0??Open@@YAXAEBV?$FunctionCallbackInfo@VValue@v8@@@Nan@@@Z@4HA 0000000180021b86 f   serialport.obj
 0001:00020b92       ?dtor$12@?0??Open@@YAXAEBV?$FunctionCallbackInfo@VValue@v8@@@Nan@@@Z@4HA 0000000180021b92 f   serialport.obj
 0001:00020b9e       ?dtor$13@?0??Open@@YAXAEBV?$FunctionCallbackInfo@VValue@v8@@@Nan@@@Z@4HA 0000000180021b9e f   serialport.obj
 0001:00020bbe       ?dtor$23@?0??Open@@YAXAEBV?$FunctionCallbackInfo@VValue@v8@@@Nan@@@Z@4HA 0000000180021bbe f   serialport.obj
 0001:00020bca       ?dtor$22@?0??Open@@YAXAEBV?$FunctionCallbackInfo@VValue@v8@@@Nan@@@Z@4HA 0000000180021bca f   serialport.obj
 0001:00020bd6       ?dtor$14@?0??Open@@YAXAEBV?$FunctionCallbackInfo@VValue@v8@@@Nan@@@Z@4HA 0000000180021bd6 f   serialport.obj
 0001:00020bf6       ?dtor$15@?0??Open@@YAXAEBV?$FunctionCallbackInfo@VValue@v8@@@Nan@@@Z@4HA 0000000180021bf6 f   serialport.obj
 0001:00020c02       ?dtor$25@?0??Open@@YAXAEBV?$FunctionCallbackInfo@VValue@v8@@@Nan@@@Z@4HA 0000000180021c02 f   serialport.obj
 0001:00020c0e       ?dtor$24@?0??Open@@YAXAEBV?$FunctionCallbackInfo@VValue@v8@@@Nan@@@Z@4HA 0000000180021c0e f   serialport.obj
 0001:00020c1a       ?dtor$16@?0??Open@@YAXAEBV?$FunctionCallbackInfo@VValue@v8@@@Nan@@@Z@4HA 0000000180021c1a f   serialport.obj
 0001:00020c3a       ?dtor$17@?0??Open@@YAXAEBV?$FunctionCallbackInfo@VValue@v8@@@Nan@@@Z@4HA 0000000180021c3a f   serialport.obj
 0001:00020c46       ?dtor$27@?0??Open@@YAXAEBV?$FunctionCallbackInfo@VValue@v8@@@Nan@@@Z@4HA 0000000180021c46 f   serialport.obj
 0001:00020c52       ?dtor$26@?0??Open@@YAXAEBV?$FunctionCallbackInfo@VValue@v8@@@Nan@@@Z@4HA 0000000180021c52 f   serialport.obj
 0001:00020c5e       ?dtor$18@?0??Open@@YAXAEBV?$FunctionCallbackInfo@VValue@v8@@@Nan@@@Z@4HA 0000000180021c5e f   serialport.obj
 0001:00020c7e       ?dtor$19@?0??Open@@YAXAEBV?$FunctionCallbackInfo@VValue@v8@@@Nan@@@Z@4HA 0000000180021c7e f   serialport.obj
 0001:00020c8a       ?dtor$29@?0??Open@@YAXAEBV?$FunctionCallbackInfo@VValue@v8@@@Nan@@@Z@4HA 0000000180021c8a f   serialport.obj
 0001:00020c96       ?dtor$28@?0??Open@@YAXAEBV?$FunctionCallbackInfo@VValue@v8@@@Nan@@@Z@4HA 0000000180021c96 f   serialport.obj
 0001:00020cb0       ?dtor$1@?0??EIO_AfterOpen@@YAXPEAUuv_work_s@@@Z@4HA 0000000180021cb0 f   serialport.obj
 0001:00020cbe       ?dtor$0@?0??EIO_AfterOpen@@YAXPEAUuv_work_s@@@Z@4HA 0000000180021cbe f   serialport.obj
 0001:00020cca       ?dtor$2@?0??EIO_AfterOpen@@YAXPEAUuv_work_s@@@Z@4HA 0000000180021cca f   serialport.obj
 0001:00020cd6       ?dtor$3@?0??EIO_AfterOpen@@YAXPEAUuv_work_s@@@Z@4HA 0000000180021cd6 f   serialport.obj
 0001:00020ce2       ?dtor$4@?0??EIO_AfterOpen@@YAXPEAUuv_work_s@@@Z@4HA 0000000180021ce2 f   serialport.obj
 0001:00020cee       ?dtor$5@?0??EIO_AfterOpen@@YAXPEAUuv_work_s@@@Z@4HA 0000000180021cee f   serialport.obj
 0001:00020cfa       ?dtor$6@?0??EIO_AfterOpen@@YAXPEAUuv_work_s@@@Z@4HA 0000000180021cfa f   serialport.obj
 0001:00020d06       ?dtor$7@?0??EIO_AfterOpen@@YAXPEAUuv_work_s@@@Z@4HA 0000000180021d06 f   serialport.obj
 0001:00020d12       ?dtor$9@?0??EIO_AfterOpen@@YAXPEAUuv_work_s@@@Z@4HA 0000000180021d12 f   serialport.obj
 0001:00020d1e       ?dtor$10@?0??EIO_AfterOpen@@YAXPEAUuv_work_s@@@Z@4HA 0000000180021d1e f   serialport.obj
 0001:00020d2a       ?dtor$11@?0??EIO_AfterOpen@@YAXPEAUuv_work_s@@@Z@4HA 0000000180021d2a f   serialport.obj
 0001:00020d40       ?dtor$0@?0??Update@@YAXAEBV?$FunctionCallbackInfo@VValue@v8@@@Nan@@@Z@4HA 0000000180021d40 f   serialport.obj
 0001:00020d5d       ?dtor$2@?0??Update@@YAXAEBV?$FunctionCallbackInfo@VValue@v8@@@Nan@@@Z@4HA 0000000180021d5d f   serialport.obj
 0001:00020d69       ?dtor$1@?0??Update@@YAXAEBV?$FunctionCallbackInfo@VValue@v8@@@Nan@@@Z@4HA 0000000180021d69 f   serialport.obj
 0001:00020d80       ?dtor$1@?0??EIO_AfterDrain@@YAXPEAUuv_work_s@@@Z@4HA 0000000180021d80 f   serialport.obj
 0001:00020d80       ?dtor$1@?0??EIO_AfterUpdate@@YAXPEAUuv_work_s@@@Z@4HA 0000000180021d80 f   serialport.obj
 0001:00020d80       ?dtor$1@?0??EIO_AfterSet@@YAXPEAUuv_work_s@@@Z@4HA 0000000180021d80 f   serialport.obj
 0001:00020d8e       ?dtor$0@?0??EIO_AfterUpdate@@YAXPEAUuv_work_s@@@Z@4HA 0000000180021d8e f   serialport.obj
 0001:00020d8e       ?dtor$0@?0??EIO_AfterSet@@YAXPEAUuv_work_s@@@Z@4HA 0000000180021d8e f   serialport.obj
 0001:00020d8e       ?dtor$0@?0??EIO_AfterDrain@@YAXPEAUuv_work_s@@@Z@4HA 0000000180021d8e f   serialport.obj
 0001:00020d9a       ?dtor$3@?0??EIO_AfterUpdate@@YAXPEAUuv_work_s@@@Z@4HA 0000000180021d9a f   serialport.obj
 0001:00020d9a       ?dtor$3@?0??EIO_AfterDrain@@YAXPEAUuv_work_s@@@Z@4HA 0000000180021d9a f   serialport.obj
 0001:00020d9a       ?dtor$3@?0??EIO_AfterSet@@YAXPEAUuv_work_s@@@Z@4HA 0000000180021d9a f   serialport.obj
 0001:00020da6       ?dtor$4@?0??EIO_AfterSet@@YAXPEAUuv_work_s@@@Z@4HA 0000000180021da6 f   serialport.obj
 0001:00020da6       ?dtor$4@?0??EIO_AfterDrain@@YAXPEAUuv_work_s@@@Z@4HA 0000000180021da6 f   serialport.obj
 0001:00020da6       ?dtor$4@?0??EIO_AfterUpdate@@YAXPEAUuv_work_s@@@Z@4HA 0000000180021da6 f   serialport.obj
 0001:00020db2       ?dtor$5@?0??EIO_AfterSet@@YAXPEAUuv_work_s@@@Z@4HA 0000000180021db2 f   serialport.obj
 0001:00020db2       ?dtor$5@?0??EIO_AfterUpdate@@YAXPEAUuv_work_s@@@Z@4HA 0000000180021db2 f   serialport.obj
 0001:00020db2       ?dtor$5@?0??EIO_AfterDrain@@YAXPEAUuv_work_s@@@Z@4HA 0000000180021db2 f   serialport.obj
 0001:00020dc0       ?dtor$0@?0??Write@@YAXAEBV?$FunctionCallbackInfo@VValue@v8@@@Nan@@@Z@4HA 0000000180021dc0 f   serialport.obj
 0001:00020ddd       ?dtor$4@?0??Write@@YAXAEBV?$FunctionCallbackInfo@VValue@v8@@@Nan@@@Z@4HA 0000000180021ddd f   serialport.obj
 0001:00020de9       ?dtor$3@?0??Write@@YAXAEBV?$FunctionCallbackInfo@VValue@v8@@@Nan@@@Z@4HA 0000000180021de9 f   serialport.obj
 0001:00020df9       ?dtor$1@?0??Write@@YAXAEBV?$FunctionCallbackInfo@VValue@v8@@@Nan@@@Z@4HA 0000000180021df9 f   serialport.obj
 0001:00020e16       ?dtor$6@?0??Write@@YAXAEBV?$FunctionCallbackInfo@VValue@v8@@@Nan@@@Z@4HA 0000000180021e16 f   serialport.obj
 0001:00020e22       ?dtor$5@?0??Write@@YAXAEBV?$FunctionCallbackInfo@VValue@v8@@@Nan@@@Z@4HA 0000000180021e22 f   serialport.obj
 0001:00020e2e       ?dtor$2@?0??Write@@YAXAEBV?$FunctionCallbackInfo@VValue@v8@@@Nan@@@Z@4HA 0000000180021e2e f   serialport.obj
 0001:00020e50       ?dtor$1@?0??EIO_AfterWrite@@YAXPEAUuv_work_s@@@Z@4HA 0000000180021e50 f   serialport.obj
 0001:00020e5e       ?dtor$0@?0??EIO_AfterWrite@@YAXPEAUuv_work_s@@@Z@4HA 0000000180021e5e f   serialport.obj
 0001:00020e6a       ?dtor$5@?0??EIO_AfterWrite@@YAXPEAUuv_work_s@@@Z@4HA 0000000180021e6a f   serialport.obj
 0001:00020e76       ?dtor$6@?0??EIO_AfterWrite@@YAXPEAUuv_work_s@@@Z@4HA 0000000180021e76 f   serialport.obj
 0001:00020e82       ?dtor$7@?0??EIO_AfterWrite@@YAXPEAUuv_work_s@@@Z@4HA 0000000180021e82 f   serialport.obj
 0001:00020e92       ?dtor$8@?0??EIO_AfterWrite@@YAXPEAUuv_work_s@@@Z@4HA 0000000180021e92 f   serialport.obj
 0001:00020e9e       ?dtor$9@?0??EIO_AfterWrite@@YAXPEAUuv_work_s@@@Z@4HA 0000000180021e9e f   serialport.obj
 0001:00020eb0       ?dtor$0@?0??Flush@@YAXAEBV?$FunctionCallbackInfo@VValue@v8@@@Nan@@@Z@4HA 0000000180021eb0 f   serialport.obj
 0001:00020eb0       ?dtor$0@?0??Drain@@YAXAEBV?$FunctionCallbackInfo@VValue@v8@@@Nan@@@Z@4HA 0000000180021eb0 f   serialport.obj
 0001:00020eb0       ?dtor$0@?0??Close@@YAXAEBV?$FunctionCallbackInfo@VValue@v8@@@Nan@@@Z@4HA 0000000180021eb0 f   serialport.obj
 0001:00020ecd       ?dtor$2@?0??Close@@YAXAEBV?$FunctionCallbackInfo@VValue@v8@@@Nan@@@Z@4HA 0000000180021ecd f   serialport.obj
 0001:00020ecd       ?dtor$2@?0??Flush@@YAXAEBV?$FunctionCallbackInfo@VValue@v8@@@Nan@@@Z@4HA 0000000180021ecd f   serialport.obj
 0001:00020ecd       ?dtor$2@?0??Drain@@YAXAEBV?$FunctionCallbackInfo@VValue@v8@@@Nan@@@Z@4HA 0000000180021ecd f   serialport.obj
 0001:00020ed9       ?dtor$1@?0??Flush@@YAXAEBV?$FunctionCallbackInfo@VValue@v8@@@Nan@@@Z@4HA 0000000180021ed9 f   serialport.obj
 0001:00020ed9       ?dtor$1@?0??Drain@@YAXAEBV?$FunctionCallbackInfo@VValue@v8@@@Nan@@@Z@4HA 0000000180021ed9 f   serialport.obj
 0001:00020ed9       ?dtor$1@?0??Close@@YAXAEBV?$FunctionCallbackInfo@VValue@v8@@@Nan@@@Z@4HA 0000000180021ed9 f   serialport.obj
 0001:00020ef0       ?dtor$1@?0??EIO_AfterClose@@YAXPEAUuv_work_s@@@Z@4HA 0000000180021ef0 f   serialport.obj
 0001:00020efe       ?dtor$0@?0??EIO_AfterClose@@YAXPEAUuv_work_s@@@Z@4HA 0000000180021efe f   serialport.obj
 0001:00020f0a       ?dtor$3@?0??EIO_AfterClose@@YAXPEAUuv_work_s@@@Z@4HA 0000000180021f0a f   serialport.obj
 0001:00020f16       ?dtor$4@?0??EIO_AfterClose@@YAXPEAUuv_work_s@@@Z@4HA 0000000180021f16 f   serialport.obj
 0001:00020f22       ?dtor$5@?0??EIO_AfterClose@@YAXPEAUuv_work_s@@@Z@4HA 0000000180021f22 f   serialport.obj
 0001:00020f30       ?dtor$0@?0??List@@YAXAEBV?$FunctionCallbackInfo@VValue@v8@@@Nan@@@Z@4HA 0000000180021f30 f   serialport.obj
 0001:00020f4d       ?dtor$4@?0??List@@YAXAEBV?$FunctionCallbackInfo@VValue@v8@@@Nan@@@Z@4HA 0000000180021f4d f   serialport.obj
 0001:00020f59       ?dtor$3@?0??List@@YAXAEBV?$FunctionCallbackInfo@VValue@v8@@@Nan@@@Z@4HA 0000000180021f59 f   serialport.obj
 0001:00020f65       ?dtor$2@?0??List@@YAXAEBV?$FunctionCallbackInfo@VValue@v8@@@Nan@@@Z@4HA 0000000180021f65 f   serialport.obj
 0001:00020f75       ?dtor$1@?0??List@@YAXAEBV?$FunctionCallbackInfo@VValue@v8@@@Nan@@@Z@4HA 0000000180021f75 f   serialport.obj
 0001:00020f92       ?dtor$6@?0??List@@YAXAEBV?$FunctionCallbackInfo@VValue@v8@@@Nan@@@Z@4HA 0000000180021f92 f   serialport.obj
 0001:00020f9e       ?dtor$5@?0??List@@YAXAEBV?$FunctionCallbackInfo@VValue@v8@@@Nan@@@Z@4HA 0000000180021f9e f   serialport.obj
 0001:00020fb0       ?dtor$0@?0??setIfNotEmpty@@YAXV?$Local@VObject@v8@@@v8@@V?$basic_string@DU?$char_traits@D@std@@V?$allocator@D@2@@std@@PEBD@Z@4HA 0000000180021fb0 f   serialport.obj
 0001:00020fbc       ?dtor$1@?0??setIfNotEmpty@@YAXV?$Local@VObject@v8@@@v8@@V?$basic_string@DU?$char_traits@D@std@@V?$allocator@D@2@@std@@PEBD@Z@4HA 0000000180021fbc f   serialport.obj
 0001:00020fd0       ?dtor$8@?0??EIO_AfterList@@YAXPEAUuv_work_s@@@Z@4HA 0000000180021fd0 f   serialport.obj
 0001:00020fde       ?dtor$0@?0??EIO_AfterList@@YAXPEAUuv_work_s@@@Z@4HA 0000000180021fde f   serialport.obj
 0001:00020fea       ?dtor$1@?0??EIO_AfterList@@YAXPEAUuv_work_s@@@Z@4HA 0000000180021fea f   serialport.obj
 0001:00020ff6       ?dtor$2@?0??EIO_AfterList@@YAXPEAUuv_work_s@@@Z@4HA 0000000180021ff6 f   serialport.obj
 0001:00021002       ?dtor$3@?0??EIO_AfterList@@YAXPEAUuv_work_s@@@Z@4HA 0000000180022002 f   serialport.obj
 0001:0002100e       ?dtor$4@?0??EIO_AfterList@@YAXPEAUuv_work_s@@@Z@4HA 000000018002200e f   serialport.obj
 0001:0002101a       ?dtor$5@?0??EIO_AfterList@@YAXPEAUuv_work_s@@@Z@4HA 000000018002201a f   serialport.obj
 0001:00021026       ?dtor$6@?0??EIO_AfterList@@YAXPEAUuv_work_s@@@Z@4HA 0000000180022026 f   serialport.obj
 0001:00021032       ?dtor$7@?0??EIO_AfterList@@YAXPEAUuv_work_s@@@Z@4HA 0000000180022032 f   serialport.obj
 0001:0002103e       ?dtor$10@?0??EIO_AfterList@@YAXPEAUuv_work_s@@@Z@4HA 000000018002203e f   serialport.obj
 0001:0002104a       ?dtor$11@?0??EIO_AfterList@@YAXPEAUuv_work_s@@@Z@4HA 000000018002204a f   serialport.obj
 0001:00021056       ?dtor$12@?0??EIO_AfterList@@YAXPEAUuv_work_s@@@Z@4HA 0000000180022056 f   serialport.obj
 0001:00021062       ?dtor$13@?0??EIO_AfterList@@YAXPEAUuv_work_s@@@Z@4HA 0000000180022062 f   serialport.obj
 0001:00021072       ?dtor$14@?0??EIO_AfterList@@YAXPEAUuv_work_s@@@Z@4HA 0000000180022072 f   serialport.obj
 0001:00021082       ?dtor$15@?0??EIO_AfterList@@YAXPEAUuv_work_s@@@Z@4HA 0000000180022082 f   serialport.obj
 0001:00021092       ?dtor$16@?0??EIO_AfterList@@YAXPEAUuv_work_s@@@Z@4HA 0000000180022092 f   serialport.obj
 0001:000210a5       ?dtor$17@?0??EIO_AfterList@@YAXPEAUuv_work_s@@@Z@4HA 00000001800220a5 f   serialport.obj
 0001:000210b8       ?dtor$18@?0??EIO_AfterList@@YAXPEAUuv_work_s@@@Z@4HA 00000001800220b8 f   serialport.obj
 0001:000210cb       ?dtor$19@?0??EIO_AfterList@@YAXPEAUuv_work_s@@@Z@4HA 00000001800220cb f   serialport.obj
 0001:000210e0       ?dtor$0@?0???_GListBaton@@QEAAPEAXI@Z@4HA 00000001800220e0 f   serialport.obj
 0001:000210f0       ?dtor$1@?0???_GListBaton@@QEAAPEAXI@Z@4HA 00000001800220f0 f   serialport.obj
 0001:000210fc       ?dtor$2@?0???_GListBaton@@QEAAPEAXI@Z@4HA 00000001800220fc f   serialport.obj
 0001:00021110       ?dtor$1@?0??EIO_AfterFlush@@YAXPEAUuv_work_s@@@Z@4HA 0000000180022110 f   serialport.obj
 0001:0002111e       ?dtor$0@?0??EIO_AfterFlush@@YAXPEAUuv_work_s@@@Z@4HA 000000018002211e f   serialport.obj
 0001:0002112a       ?dtor$3@?0??EIO_AfterFlush@@YAXPEAUuv_work_s@@@Z@4HA 000000018002212a f   serialport.obj
 0001:00021136       ?dtor$4@?0??EIO_AfterFlush@@YAXPEAUuv_work_s@@@Z@4HA 0000000180022136 f   serialport.obj
 0001:00021142       ?dtor$5@?0??EIO_AfterFlush@@YAXPEAUuv_work_s@@@Z@4HA 0000000180022142 f   serialport.obj
 0001:00021150       ?dtor$0@?0??Set@@YAXAEBV?$FunctionCallbackInfo@VValue@v8@@@Nan@@@Z@4HA 0000000180022150 f   serialport.obj
 0001:00021170       ?dtor$7@?0??Set@@YAXAEBV?$FunctionCallbackInfo@VValue@v8@@@Nan@@@Z@4HA 0000000180022170 f   serialport.obj
 0001:0002117c       ?dtor$6@?0??Set@@YAXAEBV?$FunctionCallbackInfo@VValue@v8@@@Nan@@@Z@4HA 000000018002217c f   serialport.obj
 0001:00021188       ?dtor$1@?0??Set@@YAXAEBV?$FunctionCallbackInfo@VValue@v8@@@Nan@@@Z@4HA 0000000180022188 f   serialport.obj
 0001:00021194       ?dtor$2@?0??Set@@YAXAEBV?$FunctionCallbackInfo@VValue@v8@@@Nan@@@Z@4HA 0000000180022194 f   serialport.obj
 0001:000211a0       ?dtor$3@?0??Set@@YAXAEBV?$FunctionCallbackInfo@VValue@v8@@@Nan@@@Z@4HA 00000001800221a0 f   serialport.obj
 0001:000211ac       ?dtor$4@?0??Set@@YAXAEBV?$FunctionCallbackInfo@VValue@v8@@@Nan@@@Z@4HA 00000001800221ac f   serialport.obj
 0001:000211b8       ?dtor$5@?0??Set@@YAXAEBV?$FunctionCallbackInfo@VValue@v8@@@Nan@@@Z@4HA 00000001800221b8 f   serialport.obj
 0001:000211d0       ?dtor$2@?0??ToParityEnum@@YA?AW4SerialPortParity@@AEBV?$Local@VString@v8@@@v8@@@Z@4HA 00000001800221d0 f   serialport.obj
 0001:000211de       ?dtor$0@?0??ToParityEnum@@YA?AW4SerialPortParity@@AEBV?$Local@VString@v8@@@v8@@@Z@4HA 00000001800221de f   serialport.obj
 0001:000211ea       ?dtor$1@?0??ToParityEnum@@YA?AW4SerialPortParity@@AEBV?$Local@VString@v8@@@v8@@@Z@4HA 00000001800221ea f   serialport.obj
 0001:00021207       ?dtor$3@?0??ToParityEnum@@YA?AW4SerialPortParity@@AEBV?$Local@VString@v8@@@v8@@@Z@4HA 0000000180022207 f   serialport.obj
 0001:00021220       init$dtor$1                0000000180022220 f   serialport.obj
 0001:0002122e       init$dtor$0                000000018002222e f   serialport.obj
 0001:0002123a       init$dtor$3                000000018002223a f   serialport.obj
 0001:00021248       init$dtor$2                0000000180022248 f   serialport.obj
 0001:00021254       init$dtor$4                0000000180022254 f   serialport.obj
 0001:00021262       init$dtor$6                0000000180022262 f   serialport.obj
 0001:00021270       init$dtor$5                0000000180022270 f   serialport.obj
 0001:0002127c       init$dtor$7                000000018002227c f   serialport.obj
 0001:0002128a       init$dtor$9                000000018002228a f   serialport.obj
 0001:00021298       init$dtor$8                0000000180022298 f   serialport.obj
 0001:000212a4       init$dtor$10               00000001800222a4 f   serialport.obj
 0001:000212b2       init$dtor$12               00000001800222b2 f   serialport.obj
 0001:000212c0       init$dtor$11               00000001800222c0 f   serialport.obj
 0001:000212cc       init$dtor$13               00000001800222cc f   serialport.obj
 0001:000212da       init$dtor$15               00000001800222da f   serialport.obj
 0001:000212e8       init$dtor$14               00000001800222e8 f   serialport.obj
 0001:000212f4       init$dtor$16               00000001800222f4 f   serialport.obj
 0001:00021302       init$dtor$18               0000000180022302 f   serialport.obj
 0001:00021310       init$dtor$17               0000000180022310 f   serialport.obj
 0001:0002131c       init$dtor$19               000000018002231c f   serialport.obj
 0001:0002132a       init$dtor$21               000000018002232a f   serialport.obj
 0001:00021338       init$dtor$20               0000000180022338 f   serialport.obj
 0001:00021344       init$dtor$22               0000000180022344 f   serialport.obj
 0001:00021352       init$dtor$24               0000000180022352 f   serialport.obj
 0001:00021360       init$dtor$23               0000000180022360 f   serialport.obj
 0001:0002136c       init$dtor$25               000000018002236c f   serialport.obj
 0001:0002137a       init$dtor$26               000000018002237a f   serialport.obj
 0001:00021390       ?dtor$0@?0???1?$list@PEAUListResultItem@@V?$allocator@PEAUListResultItem@@@std@@@std@@QEAA@XZ@4HA 0000000180022390 f   serialport.obj
 0001:0002139c       ?dtor$1@?0???1?$list@PEAUListResultItem@@V?$allocator@PEAUListResultItem@@@std@@@std@@QEAA@XZ@4HA 000000018002239c f   serialport.obj
 0001:000213b0       ?dtor$0@?0???1?$_List_buy@PEAUListResultItem@@V?$allocator@PEAUListResultItem@@@std@@@std@@QEAA@XZ@4HA 00000001800223b0 f   serialport.obj
 0001:000213c0       ?dtor$0@?0???$New@VString@v8@@V?$basic_string@DU?$char_traits@D@std@@V?$allocator@D@2@@std@@@Nan@@YA?AV?$MaybeLocal@VString@v8@@@v8@@V?$basic_string@DU?$char_traits@D@std@@V?$allocator@D@2@@std@@@Z@4HA 00000001800223c0 f   serialport.obj
 0001:000213d0       ?dtor$1@?0???__Eg_closingHandles@@YAXXZ@4HA 00000001800223d0 f   serialport_win.obj
 0001:000213dc       ?dtor$0@?0???__Eg_closingHandles@@YAXXZ@4HA 00000001800223dc f   serialport_win.obj
 0001:000213f0       ?dtor$0@?0???__Fg_closingHandles@@YAXXZ@4HA 00000001800223f0 f   serialport_win.obj
 0001:000213fc       ?dtor$1@?0???__Fg_closingHandles@@YAXXZ@4HA 00000001800223fc f   serialport_win.obj
 0001:00021410       ?dtor$0@?0??DisposeWatchPortCallbacks@@YAXPEAUWatchPortBaton@@@Z@4HA 0000000180022410 f   serialport_win.obj
 0001:0002141c       ?dtor$1@?0??DisposeWatchPortCallbacks@@YAXPEAUWatchPortBaton@@@Z@4HA 000000018002241c f   serialport_win.obj
 0001:00021428       ?dtor$2@?0??DisposeWatchPortCallbacks@@YAXPEAUWatchPortBaton@@@Z@4HA 0000000180022428 f   serialport_win.obj
 0001:00021434       ?dtor$3@?0??DisposeWatchPortCallbacks@@YAXPEAUWatchPortBaton@@@Z@4HA 0000000180022434 f   serialport_win.obj
 0001:00021440       ?dtor$4@?0??DisposeWatchPortCallbacks@@YAXPEAUWatchPortBaton@@@Z@4HA 0000000180022440 f   serialport_win.obj
 0001:0002144c       ?dtor$5@?0??DisposeWatchPortCallbacks@@YAXPEAUWatchPortBaton@@@Z@4HA 000000018002244c f   serialport_win.obj
 0001:00021460       ?dtor$0@?0??EIO_List@@YAXPEAUuv_work_s@@@Z@4HA 0000000180022460 f   serialport_win.obj
 0001:0002146c       ?dtor$1@?0??EIO_List@@YAXPEAUuv_work_s@@@Z@4HA 000000018002246c f   serialport_win.obj
 0001:00021478       ?dtor$2@?0??EIO_List@@YAXPEAUuv_work_s@@@Z@4HA 0000000180022478 f   serialport_win.obj
 0001:00021495       ?dtor$5@?0??EIO_List@@YAXPEAUuv_work_s@@@Z@4HA 0000000180022495 f   serialport_win.obj
 0001:000214a1       ?dtor$6@?0??EIO_List@@YAXPEAUuv_work_s@@@Z@4HA 00000001800224a1 f   serialport_win.obj
 0001:000214b1       ?dtor$7@?0??EIO_List@@YAXPEAUuv_work_s@@@Z@4HA 00000001800224b1 f   serialport_win.obj
 0001:000214c1       ?dtor$8@?0??EIO_List@@YAXPEAUuv_work_s@@@Z@4HA 00000001800224c1 f   serialport_win.obj
 0001:000214d1       ?dtor$9@?0??EIO_List@@YAXPEAUuv_work_s@@@Z@4HA 00000001800224d1 f   serialport_win.obj
 0001:000214e4       ?dtor$10@?0??EIO_List@@YAXPEAUuv_work_s@@@Z@4HA 00000001800224e4 f   serialport_win.obj
 0001:000214f7       ?dtor$11@?0??EIO_List@@YAXPEAUuv_work_s@@@Z@4HA 00000001800224f7 f   serialport_win.obj
 0001:0002150a       ?dtor$3@?0??EIO_List@@YAXPEAUuv_work_s@@@Z@4HA 000000018002250a f   serialport_win.obj
 0001:00021516       ?dtor$4@?0??EIO_List@@YAXPEAUuv_work_s@@@Z@4HA 0000000180022516 f   serialport_win.obj
 0001:00021533       ?dtor$12@?0??EIO_List@@YAXPEAUuv_work_s@@@Z@4HA 0000000180022533 f   serialport_win.obj
 0001:0002153f       ?dtor$13@?0??EIO_List@@YAXPEAUuv_work_s@@@Z@4HA 000000018002253f f   serialport_win.obj
 0001:0002154f       ?dtor$14@?0??EIO_List@@YAXPEAUuv_work_s@@@Z@4HA 000000018002254f f   serialport_win.obj
 0001:0002155f       ?dtor$15@?0??EIO_List@@YAXPEAUuv_work_s@@@Z@4HA 000000018002255f f   serialport_win.obj
 0001:0002156f       ?dtor$16@?0??EIO_List@@YAXPEAUuv_work_s@@@Z@4HA 000000018002256f f   serialport_win.obj
 0001:00021582       ?dtor$17@?0??EIO_List@@YAXPEAUuv_work_s@@@Z@4HA 0000000180022582 f   serialport_win.obj
 0001:00021595       ?dtor$18@?0??EIO_List@@YAXPEAUuv_work_s@@@Z@4HA 0000000180022595 f   serialport_win.obj
 0001:000215b0       ?dtor$0@?0???1?$_List_buy@HV?$allocator@H@std@@@std@@QEAA@XZ@4HA 00000001800225b0 f   serialport_win.obj
 0001:000215c0       ?dtor$0@?0??UsingQueryDosDevice@CEnumerateSerial@@SAHAEAV?$vector@IV?$allocator@I@std@@@std@@@Z@4HA 00000001800225c0 f   enumser.obj
 0001:000215cc       __scrt_is_nonwritable_in_current_image$filt$0 00000001800225cc f   LIBCMT:utility.obj
 0001:000215e4       ?fin$0@?0??dllmain_crt_process_attach@@YAHQEAUHINSTANCE__@@QEAX@Z@4HA 00000001800225e4 f   LIBCMT:dll_dllmain.obj
 0001:000215fb       ?fin$0@?0??dllmain_crt_process_detach@@YAH_N@Z@4HA 00000001800225fb f   LIBCMT:dll_dllmain.obj
 0001:00021617       ?filt$0@?0??dllmain_dispatch@@YAHQEAUHINSTANCE__@@KQEAX@Z@4HA 0000000180022617 f   LIBCMT:dll_dllmain.obj
 0001:0002164d       ?fin$0@?0???$?RV<lambda_7a5ef57ff966f610505f1d28a3d40618>@@AEAV<lambda_b721fa326cdb32351d23dfa67958c160>@@V<lambda_5e0fb27672408a07956fe59e48ccb2aa>@@@?$__crt_seh_guarded_call@H@@QEAAH$$QEAV<lambda_7a5ef57ff966f610505f1d28a3d40618>@@AEAV<lambda_b721fa326cdb32351d23dfa67958c160>@@$$QEAV<lambda_5e0fb27672408a07956fe59e48ccb2aa>@@@Z@4HA 000000018002264d f   libucrt:setvbuf.obj
 0001:0002164d       ?fin$0@?0???$?RV<lambda_7b91131dde12e1c3dfc74ff76b3f2eac>@@AEAV<lambda_dd75445284c072d0bd3768540cc698fa>@@V<lambda_16bc4ecb55b4718497c16bceaea2ceaf>@@@?$__crt_seh_guarded_call@H@@QEAAH$$QEAV<lambda_7b91131dde12e1c3dfc74ff76b3f2eac>@@AEAV<lambda_dd75445284c072d0bd3768540cc698fa>@@$$QEAV<lambda_16bc4ecb55b4718497c16bceaea2ceaf>@@@Z@4HA 000000018002264d f   libucrt:output.obj
 0001:00021668       _query_new_handler$fin$0   0000000180022668 f   libucrt:new_handler.obj
 0001:0002167e       ?filt$0@?0??common_exit@@YAXHW4_crt_exit_cleanup_mode@@W4_crt_exit_return_mode@@@Z@4HA 000000018002267e f   libucrt:exit.obj
 0001:00021699       ?fin$1@?0??common_exit@@YAXHW4_crt_exit_cleanup_mode@@W4_crt_exit_return_mode@@@Z@4HA 0000000180022699 f   libucrt:exit.obj
 0001:000216b2       ?fin$0@?0???$?RV<lambda_46352004c1216016012b18bd6f87e700>@@AEAV<lambda_3bd07e1a1191394380780325891bf33f>@@V<lambda_334532d3f185bcaa59b5be82d7d22bff>@@@?$__crt_seh_guarded_call@X@@QEAAX$$QEAV<lambda_46352004c1216016012b18bd6f87e700>@@AEAV<lambda_3bd07e1a1191394380780325891bf33f>@@$$QEAV<lambda_334532d3f185bcaa59b5be82d7d22bff>@@@Z@4HA 00000001800226b2 f   libucrt:per_thread_data.obj
 0001:000216b2       ?fin$0@?0???$?RV<lambda_99476a1ad63dd22509b5d3e65b0ffc95>@@AEAV<lambda_ad1ced32f4ac17aa236e5ef05d6b3b7c>@@V<lambda_f7424dd8d45958661754dc4f2697e9c3>@@@?$__crt_seh_guarded_call@X@@QEAAX$$QEAV<lambda_99476a1ad63dd22509b5d3e65b0ffc95>@@AEAV<lambda_ad1ced32f4ac17aa236e5ef05d6b3b7c>@@$$QEAV<lambda_f7424dd8d45958661754dc4f2697e9c3>@@@Z@4HA 00000001800226b2 f   libucrt:mbctype.obj
 0001:000216b2       ?fin$0@?0???$?RV<lambda_b8c45f8f788dd370798f47cfe8ac3a86>@@AEAV<lambda_4e60a939b0d047cfe11ddc22648dfba9>@@V<lambda_332c3edc96d0294ec56c57d38c1cdfd5>@@@?$__crt_seh_guarded_call@H@@QEAAH$$QEAV<lambda_b8c45f8f788dd370798f47cfe8ac3a86>@@AEAV<lambda_4e60a939b0d047cfe11ddc22648dfba9>@@$$QEAV<lambda_332c3edc96d0294ec56c57d38c1cdfd5>@@@Z@4HA 00000001800226b2 f   libucrt:onexit.obj
 0001:000216b2       ?fin$0@?0???$?RV<lambda_5e887d1dcbef67a5eb4283622ba103bf>@@AEAV<lambda_4466841279450cc726390878d4a41900>@@V<lambda_341c25c0346d94847f1f3c463c57e077>@@@?$__crt_seh_guarded_call@X@@QEAAX$$QEAV<lambda_5e887d1dcbef67a5eb4283622ba103bf>@@AEAV<lambda_4466841279450cc726390878d4a41900>@@$$QEAV<lambda_341c25c0346d94847f1f3c463c57e077>@@@Z@4HA 00000001800226b2 f   libucrt:per_thread_data.obj
 0001:000216b2       ?fin$0@?0???$?RV<lambda_c36588078e9f5dfd39652860aa6b3aaf>@@AEAV<lambda_ec61778202f4f5fc7e7711acc23c3bca>@@V<lambda_dc9d2797ccde5d239b4a0efae8ebd7db>@@@?$__crt_seh_guarded_call@P6AXH@Z@@QEAAP6AXH@Z$$QEAV<lambda_c36588078e9f5dfd39652860aa6b3aaf>@@AEAV<lambda_ec61778202f4f5fc7e7711acc23c3bca>@@$$QEAV<lambda_dc9d2797ccde5d239b4a0efae8ebd7db>@@@Z@4HA 00000001800226b2 f   libucrt:signal.obj
 0001:000216b2       ?fin$0@?0???$?RV<lambda_fb3a7dec4e47f37f22dae91bb15c9095>@@AEAV<lambda_698284760c8add0bfb0756c19673e34b>@@V<lambda_dfb8eca1e75fef3034a8fb18dd509707>@@@?$__crt_seh_guarded_call@X@@QEAAX$$QEAV<lambda_fb3a7dec4e47f37f22dae91bb15c9095>@@AEAV<lambda_698284760c8add0bfb0756c19673e34b>@@$$QEAV<lambda_dfb8eca1e75fef3034a8fb18dd509707>@@@Z@4HA 00000001800226b2 f   libucrt:per_thread_data.obj
 0001:000216b2       ?fin$0@?0???$?RV<lambda_72d1df2b273a38828b1ce30cbf4cdab5>@@AEAV<lambda_876a65b173b8412d3a47c70a915b0cf4>@@V<lambda_41932305e351933ebe8f8be3ed8bb5dc>@@@?$__crt_seh_guarded_call@X@@QEAAX$$QEAV<lambda_72d1df2b273a38828b1ce30cbf4cdab5>@@AEAV<lambda_876a65b173b8412d3a47c70a915b0cf4>@@$$QEAV<lambda_41932305e351933ebe8f8be3ed8bb5dc>@@@Z@4HA 00000001800226b2 f   libucrt:per_thread_data.obj
 0001:000216cc       ?fin$0@?0???$?RV<lambda_e24bbb7b643b32fcea6fa61b31d4c984>@@AEAV<lambda_275893d493268fdec8709772e3fcec0e>@@V<lambda_9d71df4d7cf3f480f8d633942495c3b0>@@@?$__crt_seh_guarded_call@H@@QEAAH$$QEAV<lambda_e24bbb7b643b32fcea6fa61b31d4c984>@@AEAV<lambda_275893d493268fdec8709772e3fcec0e>@@$$QEAV<lambda_9d71df4d7cf3f480f8d633942495c3b0>@@@Z@4HA 00000001800226cc f   libucrt:onexit.obj
 0001:000216e9       common_flush_all$fin$0     00000001800226e9 f   libucrt:fflush.obj
 0001:00021703       common_flush_all$fin$1     0000000180022703 f   libucrt:fflush.obj
 0001:0002171c       fclose$fin$0               000000018002271c f   libucrt:fclose.obj
 0001:0002171c       fflush$fin$0               000000018002271c f   libucrt:fflush.obj
 0001:00021734       raise$fin$0                0000000180022734 f   libucrt:signal.obj
 0001:00021758       __acrt_lowio_ensure_fh_exists$fin$0 0000000180022758 f   libucrt:osfinfo.obj
 0001:00021758       __acrt_initialize_lowio$fin$0 0000000180022758 f   libucrt:ioinit.obj
 0001:00021771       _isindst$fin$0             0000000180022771 f   libucrt:tzset.obj
 0001:00021771       __tzset$fin$0              0000000180022771 f   libucrt:tzset.obj
 0001:0002178a       __acrt_update_thread_multibyte_data$fin$0 000000018002278a f   libucrt:mbctype.obj
 0001:000217a3       _fcloseall$fin$0           00000001800227a3 f   libucrt:closeall.obj
 0001:000217bc       ?fin$0@?0???$?RV<lambda_b521505b218e5242e90febf6bfebc422>@@AEAV<lambda_6978c1fb23f02e42e1d9e99668cc68aa>@@V<lambda_314360699dd331753a4119843814e9a7>@@@?$__crt_seh_guarded_call@H@@QEAAH$$QEAV<lambda_b521505b218e5242e90febf6bfebc422>@@AEAV<lambda_6978c1fb23f02e42e1d9e99668cc68aa>@@$$QEAV<lambda_314360699dd331753a4119843814e9a7>@@@Z@4HA 00000001800227bc f   libucrt:commit.obj
 0001:000217bc       ?fin$0@?0???$?RV<lambda_bfedae4ebbf01fab1bb6dcc6a9e276e0>@@AEAV<lambda_2fe9b910cf3cbf4a0ab98a02ba45b3ec>@@V<lambda_237c231691f317818eb88cc1d5d642d6>@@@?$__crt_seh_guarded_call@H@@QEAAH$$QEAV<lambda_bfedae4ebbf01fab1bb6dcc6a9e276e0>@@AEAV<lambda_2fe9b910cf3cbf4a0ab98a02ba45b3ec>@@$$QEAV<lambda_237c231691f317818eb88cc1d5d642d6>@@@Z@4HA 00000001800227bc f   libucrt:close.obj
 0001:000217d6       ?fin$0@?0???$common_lseek@_J@@YA_JH_JH@Z@4HA 00000001800227d6 f   libucrt:lseek.obj
 0001:000217d6       _write$fin$0               00000001800227d6 f   libucrt:write.obj
 0001:000217ed       __acrt_update_thread_locale_data$fin$0 00000001800227ed f   libucrt:locale_refcounting.obj
 0001:000217ed       __acrt_uninitialize_locale$fin$0 00000001800227ed f   libucrt:wsetlocale.obj
 0001:00021806       ?fin$0@?0???$common_getenv_s@D@@YAHQEA_KQEAD_KQEBD@Z@4HA 0000000180022806 f   libucrt:getenv.obj
 0001:0002181f       common_control87$filt$0    000000018002281f f   libucrt:ieee.obj
 0001:0002181f       _ctrlfp$filt$0             000000018002281f f   libucrt:fpctrl.obj
 0001:00021850       _IsNonwritableInCurrentImage$filt$0 0000000180022850 f   LIBCMT:pesect.obj
 0001:00021870       _CallSETranslator$filt$0   0000000180022870 f   libvcruntime:trnsctrl.obj
 0001:000218bc       __CxxCallCatchBlock$filt$0 00000001800228bc f   libvcruntime:frame.obj
 0001:000218e1       __CxxCallCatchBlock$fin$1  00000001800228e1 f   libvcruntime:frame.obj
 0001:00021959       __DestructExceptionObject$filt$0 0000000180022959 f   libvcruntime:frame.obj
 0001:00021971       __FrameUnwindToState$filt$0 0000000180022971 f   libvcruntime:frame.obj
 0001:00021987       __FrameUnwindToState$fin$1 0000000180022987 f   libvcruntime:frame.obj
 0001:000219b0       ??__Fg_closingHandles@@YAXXZ 00000001800229b0 f   serialport_win.obj
 0002:00000588       ?g_closingHandles$initializer$@@3P6AXXZEA 0000000180023588     serialport_win.obj
 0002:000006f8       GS_ExceptionPointers       00000001800236f8     LIBCMT:gs_report.obj
 0002:00000740       ?ExceptionTemplate@?1??_CxxThrowException@@9@4UEHExceptionRecord@@B 0000000180023740     libvcruntime:throw.obj
 0002:000007b0       ?module_names@?A0x49c8dc86@@3QBQEB_WB 00000001800237b0     libvcruntime:winapi_downlevel.obj
 0002:0000087c       ?candidate_modules@?1??try_get_EventRegister@@YAP6AKPEBU_GUID@@P6AX0KE_K1PEAU_EVENT_FILTER_DESCRIPTOR@@PEAX@Z3PEA_K@ZXZ@4QBW4module_id@?A0x49c8dc86@@B 000000018002387c     libvcruntime:winapi_downlevel.obj
 0002:00000890       ?candidate_modules@?1??try_get_EventSetInformation@@YAP6AK_KW4_EVENT_INFO_CLASS@@PEAXK@ZXZ@4QBW4module_id@?A0x49c8dc86@@B 0000000180023890     libvcruntime:winapi_downlevel.obj
 0002:000008ac       ?candidate_modules@?1??try_get_EventUnregister@@YAP6AK_K@ZXZ@4QBW4module_id@?A0x49c8dc86@@B 00000001800238ac     libvcruntime:winapi_downlevel.obj
 0002:000008c0       ?candidate_modules@?1??try_get_EventWriteTransfer@@YAP6AK_KPEBU_EVENT_DESCRIPTOR@@PEBU_GUID@@2KPEAU_EVENT_DATA_DESCRIPTOR@@@ZXZ@4QBW4module_id@?A0x49c8dc86@@B 00000001800238c0     libvcruntime:winapi_downlevel.obj
 0002:000008e0       ?candidate_modules@?1??try_get_FlsAlloc@@YAP6AKP6AXPEAX@Z@ZXZ@4QBW4module_id@?A0x49c8dc86@@B 00000001800238e0     libvcruntime:winapi_downlevel.obj
 0002:000008f8       ?candidate_modules@?1??try_get_FlsFree@@YAP6AHK@ZXZ@4QBW4module_id@?A0x49c8dc86@@B 00000001800238f8     libvcruntime:winapi_downlevel.obj
 0002:00000908       ?candidate_modules@?1??try_get_FlsGetValue@@YAP6APEAXK@ZXZ@4QBW4module_id@?A0x49c8dc86@@B 0000000180023908     libvcruntime:winapi_downlevel.obj
 0002:00000920       ?candidate_modules@?1??try_get_FlsSetValue@@YAP6AHKPEAX@ZXZ@4QBW4module_id@?A0x49c8dc86@@B 0000000180023920     libvcruntime:winapi_downlevel.obj
 0002:00000938       ?candidate_modules@?1??try_get_InitializeCriticalSectionEx@@YAP6AHPEAU_RTL_CRITICAL_SECTION@@KK@ZXZ@4QBW4module_id@?A0x49c8dc86@@B 0000000180023938     libvcruntime:winapi_downlevel.obj
 0002:00000960       ?tokenTable@@3QBQEBDB      0000000180023960     libvcruntime:undname.obj
 0002:000009d0       ?nameTable@@3QBQEBDB       00000001800239d0     libvcruntime:undname.obj
 0002:00000c58       ?rttiTable@@3QBQEBDB       0000000180023c58     libvcruntime:undname.obj
 0002:000017a0       __acrt_initializers        00000001800247a0     libucrt:initialization.obj
 0002:00001890       errtable                   0000000180024890     libucrt:errno.obj
 0002:00002950       module_names               0000000180025950     libucrt:winapi_thunks.obj
 0002:00002e80       ?candidate_modules@?1??try_get_CompareStringEx@@YAP6AHPEB_WK0H0HPEAU_nlsversioninfo@@PEAX_J@ZXZ@4QBW4module_id@?A0x63058377@@B 0000000180025e80     libucrt:winapi_thunks.obj
 0002:00002e98       ?candidate_modules@?1??try_get_FlsAlloc@@YAP6AKP6AXPEAX@Z@ZXZ@4QBW4module_id@?A0x63058377@@B 0000000180025e98     libucrt:winapi_thunks.obj
 0002:00002ea0       ?candidate_modules@?1??try_get_FlsFree@@YAP6AHK@ZXZ@4QBW4module_id@?A0x63058377@@B 0000000180025ea0     libucrt:winapi_thunks.obj
 0002:00002ea8       ?candidate_modules@?1??try_get_FlsGetValue@@YAP6APEAXK@ZXZ@4QBW4module_id@?A0x63058377@@B 0000000180025ea8     libucrt:winapi_thunks.obj
 0002:00002eb0       ?candidate_modules@?1??try_get_FlsSetValue@@YAP6AHKPEAX@ZXZ@4QBW4module_id@?A0x63058377@@B 0000000180025eb0     libucrt:winapi_thunks.obj
 0002:00002eb8       ?candidate_modules@?1??try_get_GetActiveWindow@@YAP6APEAUHWND__@@XZXZ@4QBW4module_id@?A0x63058377@@B 0000000180025eb8     libucrt:winapi_thunks.obj
 0002:00002ed0       ?candidate_modules@?1??try_get_GetCurrentPackageId@@YAP6AJPEAIPEAE@ZXZ@4QBW4module_id@?A0x63058377@@B 0000000180025ed0     libucrt:winapi_thunks.obj
 0002:00002ef0       ?candidate_modules@?1??try_get_GetLastActivePopup@@YAP6APEAUHWND__@@PEAU2@@ZXZ@4QBW4module_id@?A0x63058377@@B 0000000180025ef0     libucrt:winapi_thunks.obj
 0002:00002f10       ?candidate_modules@?1??try_get_GetProcessWindowStation@@YAP6APEAUHWINSTA__@@XZXZ@4QBW4module_id@?A0x63058377@@B 0000000180025f10     libucrt:winapi_thunks.obj
 0002:00002f30       ?candidate_modules@?1??try_get_GetUserObjectInformationW@@YAP6AHPEAXH0KPEAK@ZXZ@4QBW4module_id@?A0x63058377@@B 0000000180025f30     libucrt:winapi_thunks.obj
 0002:00002f58       ?candidate_modules@?1??try_get_InitializeCriticalSectionEx@@YAP6AHPEAU_RTL_CRITICAL_SECTION@@KK@ZXZ@4QBW4module_id@?A0x63058377@@B 0000000180025f58     libucrt:winapi_thunks.obj
 0002:00002f60       ?candidate_modules@?1??try_get_LCMapStringEx@@YAP6AHPEB_WK0HPEA_WHPEAU_nlsversioninfo@@PEAX_J@ZXZ@4QBW4module_id@?A0x63058377@@B 0000000180025f60     libucrt:winapi_thunks.obj
 0002:00002f78       ?candidate_modules@?1??try_get_LocaleNameToLCID@@YAP6AKPEB_WK@ZXZ@4QBW4module_id@?A0x63058377@@B 0000000180025f78     libucrt:winapi_thunks.obj
 0002:00002f98       ?candidate_modules@?1??try_get_MessageBoxA@@YAP6AHPEAUHWND__@@PEBD1I@ZXZ@4QBW4module_id@?A0x63058377@@B 0000000180025f98     libucrt:winapi_thunks.obj
 0002:00002fb0       ?candidate_modules@?1??try_get_MessageBoxW@@YAP6AHPEAUHWND__@@PEB_W1I@ZXZ@4QBW4module_id@?A0x63058377@@B 0000000180025fb0     libucrt:winapi_thunks.obj
 0002:00002fc8       _mb_locale_names           0000000180025fc8     libucrt:mbctype.obj
 0002:00003a30       LcidToLocaleNameTable      0000000180026a30     libucrt:lcidtoname_downlevel.obj
 0002:00005480       LocaleNameToIndexTable     0000000180028480     libucrt:lcidtoname_downlevel.obj
 0002:00006d20       __real_ninf                0000000180029d20     libucrt:log10.obj
 0002:00006d30       __real_inf                 0000000180029d30     libucrt:log10.obj
 0002:00006d40       __real_neg_qnan            0000000180029d40     libucrt:log10.obj
 0002:00006d50       __real_qnanbit             0000000180029d50     libucrt:log10.obj
 0002:00006d60       __int_1023                 0000000180029d60     libucrt:log10.obj
 0002:00006d70       __mask_001                 0000000180029d70     libucrt:log10.obj
 0002:00006d80       __mask_mant                0000000180029d80     libucrt:log10.obj
 0002:00006d90       __mask_mant_top8           0000000180029d90     libucrt:log10.obj
 0002:00006da0       __mask_mant9               0000000180029da0     libucrt:log10.obj
 0002:00006db0       __real_log10_e             0000000180029db0     libucrt:log10.obj
 0002:00006dc0       __real_log10_e_lead        0000000180029dc0     libucrt:log10.obj
 0002:00006dd0       __real_log10_e_tail        0000000180029dd0     libucrt:log10.obj
 0002:00006de0       __real_log10_2_lead        0000000180029de0     libucrt:log10.obj
 0002:00006df0       __real_log10_2_tail        0000000180029df0     libucrt:log10.obj
 0002:00006e00       __real_two                 0000000180029e00     libucrt:log10.obj
 0002:00006e10       __real_one                 0000000180029e10     libucrt:log10.obj
 0002:00006e20       __real_half                0000000180029e20     libucrt:log10.obj
 0002:00006e30       __mask_100                 0000000180029e30     libucrt:log10.obj
 0002:00006e40       __real_1_over_512          0000000180029e40     libucrt:log10.obj
 0002:00006e50       __real_1_over_2            0000000180029e50     libucrt:log10.obj
 0002:00006e60       __real_1_over_3            0000000180029e60     libucrt:log10.obj
 0002:00006e70       __real_1_over_4            0000000180029e70     libucrt:log10.obj
 0002:00006e80       __real_1_over_5            0000000180029e80     libucrt:log10.obj
 0002:00006e90       __real_1_over_6            0000000180029e90     libucrt:log10.obj
 0002:00006ea0       __real_neg_1023            0000000180029ea0     libucrt:log10.obj
 0002:00006eb0       __mask_2045                0000000180029eb0     libucrt:log10.obj
 0002:00006ec0       __real_threshold           0000000180029ec0     libucrt:log10.obj
 0002:00006ed0       __real_near_one_lt         0000000180029ed0     libucrt:log10.obj
 0002:00006ee0       __real_near_one_gt         0000000180029ee0     libucrt:log10.obj
 0002:00006ef0       __real_min_norm            0000000180029ef0     libucrt:log10.obj
 0002:00006f00       __real_notsign             0000000180029f00     libucrt:log10.obj
 0002:00006f10       __real_ca1                 0000000180029f10     libucrt:log10.obj
 0002:00006f20       __real_ca2                 0000000180029f20     libucrt:log10.obj
 0002:00006f30       __real_ca3                 0000000180029f30     libucrt:log10.obj
 0002:00006f40       __real_ca4                 0000000180029f40     libucrt:log10.obj
 0002:00006f50       __mask_lower               0000000180029f50     libucrt:log10.obj
 0002:00006f60       __flag_x_zero              0000000180029f60     libucrt:log10.obj
 0002:00006f64       __flag_x_neg               0000000180029f64     libucrt:log10.obj
 0002:00006f68       __flag_x_nan               0000000180029f68     libucrt:log10.obj
 0002:000087c0       __real@433fffffffffffff    000000018002b7c0     libucrt:fpsr.obj
 0002:000087c8       __real@c33fffffffffffff    000000018002b7c8     libucrt:fpsr.obj
 0002:00009520       TIMET_VARIANT_OVERFLOW     000000018002c520     disphelper.obj
 0002:00009528       ?xx_szFunctionName_xx@?1??dhGetObjectEx@@9@9 000000018002c528     disphelper.obj
 0002:00009530       ?xx_szFunctionName_xx@?1??dhCreateObjectEx@@9@9 000000018002c530     disphelper.obj
 0002:00009538       ?xx_szFunctionName_xx@?1??dhEnumBegin@@9@9 000000018002c538     disphelper.obj
 0002:00009540       VARIANT_TIMET_DAY0         000000018002c540     disphelper.obj
 0002:00009548       FILE_TIME_VARIANT_OVERFLOW 000000018002c548     disphelper.obj
 0002:00009550       VARIANT_FILE_TIME_DAY0     000000018002c550     disphelper.obj
 0002:00009558       ?xx_szFunctionName_xx@?1??CreateArgumentArray@@9@9 000000018002c558     disphelper.obj
 0002:00009560       ?xx_szFunctionName_xx@?1??TraverseSubObjects@@9@9 000000018002c560     disphelper.obj
 0002:00009568       ?xx_szFunctionName_xx@?1??dhInvokeArray@@9@9 000000018002c568     disphelper.obj
 0002:00009570       TIMET_ONE_DAY              000000018002c570     disphelper.obj
 0002:00009578       ?xx_szFunctionName_xx@?1??dhGetObject@@9@9 000000018002c578     disphelper.obj
 0002:00009580       ?xx_szFunctionName_xx@?1??dhEnumBeginV@@9@9 000000018002c580     disphelper.obj
 0002:00009588       ?xx_szFunctionName_xx@?1??dhEnumNextObject@@9@9 000000018002c588     disphelper.obj
 0002:00009590       FILE_TIME_VARIANT_DAY0     000000018002c590     disphelper.obj
 0002:00009598       ?xx_szFunctionName_xx@?1??InternalInvokeV@@9@9 000000018002c598     disphelper.obj
 0002:000095a0       ?xx_szFunctionName_xx@?1??dhInvokeV@@9@9 000000018002c5a0     disphelper.obj
 0002:000095a8       ?xx_szFunctionName_xx@?1??dhGetValueV@@9@9 000000018002c5a8     disphelper.obj
 0002:000095b0       FILE_TIME_ONE_DAY          000000018002c5b0     disphelper.obj
 0002:000095b8       ?xx_szFunctionName_xx@?1??dhGetValue@@9@9 000000018002c5b8     disphelper.obj
 0002:000095e0       $cppxdata$??$New@VString@v8@@V?$basic_string@DU?$char_traits@D@std@@V?$allocator@D@2@@std@@@Nan@@YA?AV?$MaybeLocal@VString@v8@@@v8@@V?$basic_string@DU?$char_traits@D@std@@V?$allocator@D@2@@std@@@Z 000000018002c5e0     serialport.obj
 0002:00009608       $cppxdata$??1?$_List_buy@PEAUListResultItem@@V?$allocator@PEAUListResultItem@@@std@@@std@@QEAA@XZ 000000018002c608     serialport.obj
 0002:00009630       $cppxdata$??1?$Persistent@VFunction@v8@@V?$NonCopyablePersistentTraits@VFunction@v8@@@2@@v8@@QEAA@XZ 000000018002c630     serialport.obj
 0002:00009630       $cppxdata$??1?$Persistent@VObject@v8@@V?$NonCopyablePersistentTraits@VObject@v8@@@2@@v8@@QEAA@XZ 000000018002c630     serialport.obj
 0002:00009658       $cppxdata$??1?$list@PEAUListResultItem@@V?$allocator@PEAUListResultItem@@@std@@@std@@QEAA@XZ 000000018002c658     serialport.obj
 0002:00009680       $cppxdata$init             000000018002c680     serialport.obj
 0002:000096a8       $cppxdata$?ToParityEnum@@YA?AW4SerialPortParity@@AEBV?$Local@VString@v8@@@v8@@@Z 000000018002c6a8     serialport.obj
 0002:000096d0       $cppxdata$?EIO_AfterDrain@@YAXPEAUuv_work_s@@@Z 000000018002c6d0     serialport.obj
 0002:000096f8       $cppxdata$?Drain@@YAXAEBV?$FunctionCallbackInfo@VValue@v8@@@Nan@@@Z 000000018002c6f8     serialport.obj
 0002:00009720       $cppxdata$?EIO_AfterSet@@YAXPEAUuv_work_s@@@Z 000000018002c720     serialport.obj
 0002:00009748       $cppxdata$?Set@@YAXAEBV?$FunctionCallbackInfo@VValue@v8@@@Nan@@@Z 000000018002c748     serialport.obj
 0002:00009770       $cppxdata$?EIO_AfterFlush@@YAXPEAUuv_work_s@@@Z 000000018002c770     serialport.obj
 0002:00009798       $cppxdata$?Flush@@YAXAEBV?$FunctionCallbackInfo@VValue@v8@@@Nan@@@Z 000000018002c798     serialport.obj
 0002:000097c0       $cppxdata$??_GListBaton@@QEAAPEAXI@Z 000000018002c7c0     serialport.obj
 0002:000097e8       $cppxdata$?EIO_AfterList@@YAXPEAUuv_work_s@@@Z 000000018002c7e8     serialport.obj
 0002:00009810       $cppxdata$?setIfNotEmpty@@YAXV?$Local@VObject@v8@@@v8@@V?$basic_string@DU?$char_traits@D@std@@V?$allocator@D@2@@std@@PEBD@Z 000000018002c810     serialport.obj
 0002:00009838       $cppxdata$?List@@YAXAEBV?$FunctionCallbackInfo@VValue@v8@@@Nan@@@Z 000000018002c838     serialport.obj
 0002:00009860       $cppxdata$?EIO_AfterClose@@YAXPEAUuv_work_s@@@Z 000000018002c860     serialport.obj
 0002:00009888       $cppxdata$?Close@@YAXAEBV?$FunctionCallbackInfo@VValue@v8@@@Nan@@@Z 000000018002c888     serialport.obj
 0002:000098b0       $cppxdata$?EIO_AfterWrite@@YAXPEAUuv_work_s@@@Z 000000018002c8b0     serialport.obj
 0002:000098d8       $cppxdata$?Write@@YAXAEBV?$FunctionCallbackInfo@VValue@v8@@@Nan@@@Z 000000018002c8d8     serialport.obj
 0002:00009900       $cppxdata$?EIO_AfterUpdate@@YAXPEAUuv_work_s@@@Z 000000018002c900     serialport.obj
 0002:00009928       $cppxdata$?Update@@YAXAEBV?$FunctionCallbackInfo@VValue@v8@@@Nan@@@Z 000000018002c928     serialport.obj
 0002:00009950       $cppxdata$?EIO_AfterOpen@@YAXPEAUuv_work_s@@@Z 000000018002c950     serialport.obj
 0002:00009978       $cppxdata$?Open@@YAXAEBV?$FunctionCallbackInfo@VValue@v8@@@Nan@@@Z 000000018002c978     serialport.obj
 0002:000099a0       $cppxdata$?getDoubleFromObject@@YANV?$Local@VObject@v8@@@v8@@V?$basic_string@DU?$char_traits@D@std@@V?$allocator@D@2@@std@@@Z 000000018002c9a0     serialport.obj
 0002:000099c8       $cppxdata$?getStringFromObj@@YA?AV?$Local@VString@v8@@@v8@@V?$Local@VObject@v8@@@2@V?$basic_string@DU?$char_traits@D@std@@V?$allocator@D@2@@std@@@Z 000000018002c9c8     serialport.obj
 0002:000099f0       $cppxdata$?getBoolFromObject@@YA_NV?$Local@VObject@v8@@@v8@@V?$basic_string@DU?$char_traits@D@std@@V?$allocator@D@2@@std@@@Z 000000018002c9f0     serialport.obj
 0002:00009a18       $cppxdata$?getIntFromObject@@YAHV?$Local@VObject@v8@@@v8@@V?$basic_string@DU?$char_traits@D@std@@V?$allocator@D@2@@std@@@Z 000000018002ca18     serialport.obj
 0002:00009a40       $cppxdata$?getValueFromObject@@YA?AV?$Local@VValue@v8@@@v8@@V?$Local@VObject@v8@@@2@V?$basic_string@DU?$char_traits@D@std@@V?$allocator@D@2@@std@@@Z 000000018002ca40     serialport.obj
 0002:00009a68       $cppxdata$??_G_WriteQueue@@QEAAPEAXI@Z 000000018002ca68     serialport.obj
 0002:00009a90       $cppxdata$?newQForFD@@YAPEAU_WriteQueue@@H@Z 000000018002ca90     serialport.obj
 0002:00009ab8       $cppxdata$??1?$Persistent@VObject@v8@@V?$NonCopyablePersistentTraits@VObject@v8@@@2@@Nan@@QEAA@XZ 000000018002cab8     serialport.obj
 0002:00009ab8       $cppxdata$??1?$Persistent@VFunction@v8@@V?$NonCopyablePersistentTraits@VFunction@v8@@@2@@Nan@@QEAA@XZ 000000018002cab8     serialport.obj
 0002:00009ae0       $cppxdata$?Call_@Callback@Nan@@AEBA?AV?$Local@VValue@v8@@@v8@@PEAVIsolate@4@V?$Local@VObject@v8@@@4@HQEAV34@@Z 000000018002cae0     serialport.obj
 0002:00009b08       $cppxdata$?ThrowTypeError@Nan@@YAXPEBD@Z 000000018002cb08     serialport.obj
 0002:00009b30       $cppxdata$??1HandleScope@Nan@@QEAA@XZ 000000018002cb30     serialport.obj
 0002:00009b58       $cppxdata$??1EscapableHandleScope@Nan@@QEAA@XZ 000000018002cb58     serialport.obj
 0002:00009b80       $cppxdata$?New@?$Factory@VFunctionTemplate@v8@@@imp@Nan@@SA?AV?$Local@VFunctionTemplate@v8@@@v8@@P6AXAEBV?$FunctionCallbackInfo@VValue@v8@@@3@@ZV?$Local@VValue@v8@@@5@V?$Local@VSignature@v8@@@5@@Z 000000018002cb80     serialport.obj
 0002:00009be8       $cppxdata$??1?$_List_buy@HV?$allocator@H@std@@@std@@QEAA@XZ 000000018002cbe8     serialport_win.obj
 0002:00009c10       $cppxdata$?EIO_AfterWatchPort@@YAXPEAUuv_work_s@@@Z 000000018002cc10     serialport_win.obj
 0002:00009c38       $cppxdata$?DisposeWatchPortCallbacks@@YAXPEAUWatchPortBaton@@@Z 000000018002cc38     serialport_win.obj
 0002:00009c60       $cppxdata$??__Fg_closingHandles@@YAXXZ 000000018002cc60     serialport_win.obj
 0002:00009c88       $cppxdata$??__Eg_closingHandles@@YAXXZ 000000018002cc88     serialport_win.obj
 0002:00009cb0       $cppxdata$?Error@Nan@@YA?AV?$Local@VValue@v8@@@v8@@PEBD@Z 000000018002ccb0     serialport_win.obj
 0002:00009cd8       $cppxdata$?EIO_List@@YAXPEAUuv_work_s@@@Z 000000018002ccd8     serialport_win.obj
 0002:00009d00       $cppxdata$??1CAutoHeapAlloc@@QEAA@XZ 000000018002cd00     enumser.obj
 0002:00009d28       $cppxdata$?UsingQueryDosDevice@CEnumerateSerial@@SAHAEAV?$vector@IV?$allocator@I@std@@@std@@@Z 000000018002cd28     enumser.obj
 0002:00009d50       ?ExceptionTemplate@?1??_UnwindNestedFrames@@9@4U_EXCEPTION_RECORD@@B 000000018002cd50     libvcruntime:trnsctrl.obj
 0002:0000a330       ?_TlgEvent@?3??__telemetry_main_invoke_trigger@@9@4U<unnamed-type-_TlgEvent>@?3??1@YAXQEAUHINSTANCE__@@@Z@B 000000018002d330     libvcruntime:telemetry.obj
 0002:0000a36c       ?_TlgEvent@?3??__telemetry_main_return_trigger@@9@4U<unnamed-type-_TlgEvent>@?3??1@YAXQEAUHINSTANCE__@@@Z@B 000000018002d36c     libvcruntime:telemetry.obj
 0002:0000a3a7       ?_Tlg_Microsoft_CRTProviderProv_Meta@@3U<unnamed-type-_Tlg_Microsoft_CRTProviderProv_Meta>@@B 000000018002d3a7     libvcruntime:telemetry.obj
 0002:0000a800       $unwind$?FunctionCallbackWrapper@imp@Nan@@YAXAEBV?$FunctionCallbackInfo@VValue@v8@@@v8@@@Z 000000018002d800     serialport.obj
 0002:0000a810       $unwind$?New@?$Factory@VFunctionTemplate@v8@@@imp@Nan@@SA?AV?$Local@VFunctionTemplate@v8@@@v8@@P6AXAEBV?$FunctionCallbackInfo@VValue@v8@@@3@@ZV?$Local@VValue@v8@@@5@V?$Local@VSignature@v8@@@5@@Z 000000018002d810     serialport.obj
 0002:0000a828       $stateUnwindMap$?New@?$Factory@VFunctionTemplate@v8@@@imp@Nan@@SA?AV?$Local@VFunctionTemplate@v8@@@v8@@P6AXAEBV?$FunctionCallbackInfo@VValue@v8@@@3@@ZV?$Local@VValue@v8@@@5@V?$Local@VSignature@v8@@@5@@Z 000000018002d828     serialport.obj
 0002:0000a838       $ip2state$?New@?$Factory@VFunctionTemplate@v8@@@imp@Nan@@SA?AV?$Local@VFunctionTemplate@v8@@@v8@@P6AXAEBV?$FunctionCallbackInfo@VValue@v8@@@3@@ZV?$Local@VValue@v8@@@5@V?$Local@VSignature@v8@@@5@@Z 000000018002d838     serialport.obj
 0002:0000a850       $unwind$??1EscapableHandleScope@Nan@@QEAA@XZ 000000018002d850     serialport.obj
 0002:0000a860       $stateUnwindMap$??1EscapableHandleScope@Nan@@QEAA@XZ 000000018002d860     serialport.obj
 0002:0000a870       $ip2state$??1EscapableHandleScope@Nan@@QEAA@XZ 000000018002d870     serialport.obj
 0002:0000a878       $unwind$??1HandleScope@Nan@@QEAA@XZ 000000018002d878     serialport.obj
 0002:0000a888       $stateUnwindMap$??1HandleScope@Nan@@QEAA@XZ 000000018002d888     serialport.obj
 0002:0000a890       $ip2state$??1HandleScope@Nan@@QEAA@XZ 000000018002d890     serialport.obj
 0002:0000a898       $unwind$?ThrowTypeError@Nan@@YAXPEBD@Z 000000018002d898     serialport.obj
 0002:0000a8a8       $stateUnwindMap$?EIO_AfterWatchPort@@YAXPEAUuv_work_s@@@Z 000000018002d8a8     serialport_win.obj
 0002:0000a8a8       $stateUnwindMap$?ThrowTypeError@Nan@@YAXPEBD@Z 000000018002d8a8     serialport.obj
 0002:0000a8c0       $ip2state$?ThrowTypeError@Nan@@YAXPEBD@Z 000000018002d8c0     serialport.obj
 0002:0000a8d8       $unwind$??0Utf8String@Nan@@QEAA@V?$Local@VValue@v8@@@v8@@@Z 000000018002d8d8     serialport.obj
 0002:0000a8d8       $unwind$?EIO_Close@@YAXPEAUuv_work_s@@@Z 000000018002d8d8     serialport_win.obj
 0002:0000a8d8       $unwind$??0length_error@std@@QEAA@PEBD@Z 000000018002d8d8     libcpmt:xthrow.obj
 0002:0000a8d8       $unwind$??$common_xtox_s@K_W@@YAHKQEA_W_KI_N@Z 000000018002d8d8     libucrt:xtoa.obj
 0002:0000a8d8       $unwind$?EIO_Drain@@YAXPEAUuv_work_s@@@Z 000000018002d8d8     serialport_win.obj
 0002:0000a8d8       $unwind$strtol             000000018002d8d8     libucrt:strtox.obj
 0002:0000a8d8       $unwind$?EIO_Set@@YAXPEAUuv_work_s@@@Z 000000018002d8d8     serialport_win.obj
 0002:0000a8d8       $unwind$??0out_of_range@std@@QEAA@PEBD@Z 000000018002d8d8     libcpmt:xthrow.obj
 0002:0000a8d8       $unwind$?EIO_Flush@@YAXPEAUuv_work_s@@@Z 000000018002d8d8     serialport_win.obj
 0002:0000a8d8       $unwind$wcstol             000000018002d8d8     libucrt:strtox.obj
 0002:0000a8e0       $chain$0$??0Utf8String@Nan@@QEAA@V?$Local@VValue@v8@@@v8@@@Z 000000018002d8e0     serialport.obj
 0002:0000a8f4       $chain$1$??0Utf8String@Nan@@QEAA@V?$Local@VValue@v8@@@v8@@@Z 000000018002d8f4     serialport.obj
 0002:0000a904       $unwind$?Call_@Callback@Nan@@AEBA?AV?$Local@VValue@v8@@@v8@@PEAVIsolate@4@V?$Local@VObject@v8@@@4@HQEAV34@@Z 000000018002d904     serialport.obj
 0002:0000a918       $stateUnwindMap$?Error@Nan@@YA?AV?$Local@VValue@v8@@@v8@@PEBD@Z 000000018002d918     serialport_win.obj
 0002:0000a918       $stateUnwindMap$?Call_@Callback@Nan@@AEBA?AV?$Local@VValue@v8@@@v8@@PEAVIsolate@4@V?$Local@VObject@v8@@@4@HQEAV34@@Z 000000018002d918     serialport.obj
 0002:0000a938       $ip2state$?Call_@Callback@Nan@@AEBA?AV?$Local@VValue@v8@@@v8@@PEAVIsolate@4@V?$Local@VObject@v8@@@4@HQEAV34@@Z 000000018002d938     serialport.obj
 0002:0000a950       $unwind$??1?$Persistent@VFunction@v8@@V?$NonCopyablePersistentTraits@VFunction@v8@@@2@@Nan@@QEAA@XZ 000000018002d950     serialport.obj
 0002:0000a950       $unwind$??1?$Persistent@VObject@v8@@V?$NonCopyablePersistentTraits@VObject@v8@@@2@@Nan@@QEAA@XZ 000000018002d950     serialport.obj
 0002:0000a960       $stateUnwindMap$??1?$Persistent@VFunction@v8@@V?$NonCopyablePersistentTraits@VFunction@v8@@@2@@Nan@@QEAA@XZ 000000018002d960     serialport.obj
 0002:0000a960       $stateUnwindMap$??1?$Persistent@VObject@v8@@V?$NonCopyablePersistentTraits@VObject@v8@@@2@@Nan@@QEAA@XZ 000000018002d960     serialport.obj
 0002:0000a968       $ip2state$??1?$Persistent@VFunction@v8@@V?$NonCopyablePersistentTraits@VFunction@v8@@@2@@Nan@@QEAA@XZ 000000018002d968     serialport.obj
 0002:0000a968       $ip2state$??1?$Persistent@VObject@v8@@V?$NonCopyablePersistentTraits@VObject@v8@@@2@@Nan@@QEAA@XZ 000000018002d968     serialport.obj
 0002:0000a970       $unwind$?newQForFD@@YAPEAU_WriteQueue@@H@Z 000000018002d970     serialport.obj
 0002:0000a988       $stateUnwindMap$?newQForFD@@YAPEAU_WriteQueue@@H@Z 000000018002d988     serialport.obj
 0002:0000a9a8       $ip2state$?newQForFD@@YAPEAU_WriteQueue@@H@Z 000000018002d9a8     serialport.obj
 0002:0000a9e0       $unwind$?dtor$0@?0??Update@@YAXAEBV?$FunctionCallbackInfo@VValue@v8@@@Nan@@@Z@4HA 000000018002d9e0     serialport.obj
 0002:0000a9e0       $unwind$__acrt_initialize_lowio$fin$0 000000018002d9e0     libucrt:ioinit.obj
 0002:0000a9e0       $unwind$?dtor$4@?0??EIO_List@@YAXPEAUuv_work_s@@@Z@4HA 000000018002d9e0     serialport_win.obj
 0002:0000a9e0       $unwind$_write$fin$0       000000018002d9e0     libucrt:write.obj
 0002:0000a9e0       $unwind$__acrt_uninitialize_locale$fin$0 000000018002d9e0     libucrt:wsetlocale.obj
 0002:0000a9e0       $unwind$?dtor$2@?0??EIO_List@@YAXPEAUuv_work_s@@@Z@4HA 000000018002d9e0     serialport_win.obj
 0002:0000a9e0       $unwind$?dtor$0@?0??Flush@@YAXAEBV?$FunctionCallbackInfo@VValue@v8@@@Nan@@@Z@4HA 000000018002d9e0     serialport.obj
 0002:0000a9e0       $unwind$raise$fin$0        000000018002d9e0     libucrt:signal.obj
 0002:0000a9e0       $unwind$?fin$0@?0???$?RV<lambda_b8c45f8f788dd370798f47cfe8ac3a86>@@AEAV<lambda_4e60a939b0d047cfe11ddc22648dfba9>@@V<lambda_332c3edc96d0294ec56c57d38c1cdfd5>@@@?$__crt_seh_guarded_call@H@@QEAAH$$QEAV<lambda_b8c45f8f788dd370798f47cfe8ac3a86>@@AEAV<lambda_4e60a939b0d047cfe11ddc22648dfba9>@@$$QEAV<lambda_332c3edc96d0294ec56c57d38c1cdfd5>@@@Z@4HA 000000018002d9e0     libucrt:onexit.obj
 0002:0000a9e0       $unwind$?fin$0@?0???$?RV<lambda_bfedae4ebbf01fab1bb6dcc6a9e276e0>@@AEAV<lambda_2fe9b910cf3cbf4a0ab98a02ba45b3ec>@@V<lambda_237c231691f317818eb88cc1d5d642d6>@@@?$__crt_seh_guarded_call@H@@QEAAH$$QEAV<lambda_bfedae4ebbf01fab1bb6dcc6a9e276e0>@@AEAV<lambda_2fe9b910cf3cbf4a0ab98a02ba45b3ec>@@$$QEAV<lambda_237c231691f317818eb88cc1d5d642d6>@@@Z@4HA 000000018002d9e0     libucrt:close.obj
 0002:0000a9e0       $unwind$?dtor$0@?0??newQForFD@@YAPEAU_WriteQueue@@H@Z@4HA 000000018002d9e0     serialport.obj
 0002:0000a9e0       $unwind$?dtor$0@?0??Set@@YAXAEBV?$FunctionCallbackInfo@VValue@v8@@@Nan@@@Z@4HA 000000018002d9e0     serialport.obj
 0002:0000a9e0       $unwind$common_flush_all$fin$1 000000018002d9e0     libucrt:fflush.obj
 0002:0000a9e0       $unwind$?dtor$0@?0??Close@@YAXAEBV?$FunctionCallbackInfo@VValue@v8@@@Nan@@@Z@4HA 000000018002d9e0     serialport.obj
 0002:0000a9e0       $unwind$__DestructExceptionObject$filt$0 000000018002d9e0     libvcruntime:frame.obj
 0002:0000a9e0       $unwind$?fin$0@?0??dllmain_crt_process_detach@@YAH_N@Z@4HA 000000018002d9e0     LIBCMT:dll_dllmain.obj
 0002:0000a9e0       $unwind$__tzset$fin$0      000000018002d9e0     libucrt:tzset.obj
 0002:0000a9e0       $unwind$?dtor$1@?0??List@@YAXAEBV?$FunctionCallbackInfo@VValue@v8@@@Nan@@@Z@4HA 000000018002d9e0     serialport.obj
 0002:0000a9e0       $unwind$?fin$0@?0???$?RV<lambda_5e887d1dcbef67a5eb4283622ba103bf>@@AEAV<lambda_4466841279450cc726390878d4a41900>@@V<lambda_341c25c0346d94847f1f3c463c57e077>@@@?$__crt_seh_guarded_call@X@@QEAAX$$QEAV<lambda_5e887d1dcbef67a5eb4283622ba103bf>@@AEAV<lambda_4466841279450cc726390878d4a41900>@@$$QEAV<lambda_341c25c0346d94847f1f3c463c57e077>@@@Z@4HA 000000018002d9e0     libucrt:per_thread_data.obj
 0002:0000a9e0       $unwind$?fin$0@?0???$?RV<lambda_e24bbb7b643b32fcea6fa61b31d4c984>@@AEAV<lambda_275893d493268fdec8709772e3fcec0e>@@V<lambda_9d71df4d7cf3f480f8d633942495c3b0>@@@?$__crt_seh_guarded_call@H@@QEAAH$$QEAV<lambda_e24bbb7b643b32fcea6fa61b31d4c984>@@AEAV<lambda_275893d493268fdec8709772e3fcec0e>@@$$QEAV<lambda_9d71df4d7cf3f480f8d633942495c3b0>@@@Z@4HA 000000018002d9e0     libucrt:onexit.obj
 0002:0000a9e0       $unwind$fflush$fin$0       000000018002d9e0     libucrt:fflush.obj
 0002:0000a9e0       $unwind$_fcloseall$fin$0   000000018002d9e0     libucrt:closeall.obj
 0002:0000a9e0       $unwind$__acrt_lowio_ensure_fh_exists$fin$0 000000018002d9e0     libucrt:osfinfo.obj
 0002:0000a9e0       $unwind$?fin$0@?0???$?RV<lambda_b521505b218e5242e90febf6bfebc422>@@AEAV<lambda_6978c1fb23f02e42e1d9e99668cc68aa>@@V<lambda_314360699dd331753a4119843814e9a7>@@@?$__crt_seh_guarded_call@H@@QEAAH$$QEAV<lambda_b521505b218e5242e90febf6bfebc422>@@AEAV<lambda_6978c1fb23f02e42e1d9e99668cc68aa>@@$$QEAV<lambda_314360699dd331753a4119843814e9a7>@@@Z@4HA 000000018002d9e0     libucrt:commit.obj
 0002:0000a9e0       $unwind$?fin$0@?0???$?RV<lambda_46352004c1216016012b18bd6f87e700>@@AEAV<lambda_3bd07e1a1191394380780325891bf33f>@@V<lambda_334532d3f185bcaa59b5be82d7d22bff>@@@?$__crt_seh_guarded_call@X@@QEAAX$$QEAV<lambda_46352004c1216016012b18bd6f87e700>@@AEAV<lambda_3bd07e1a1191394380780325891bf33f>@@$$QEAV<lambda_334532d3f185bcaa59b5be82d7d22bff>@@@Z@4HA 000000018002d9e0     libucrt:per_thread_data.obj
 0002:0000a9e0       $unwind$__acrt_update_thread_locale_data$fin$0 000000018002d9e0     libucrt:locale_refcounting.obj
 0002:0000a9e0       $unwind$__FrameUnwindToState$filt$0 000000018002d9e0     libvcruntime:frame.obj
 0002:0000a9e0       $unwind$?dtor$2@?0??Write@@YAXAEBV?$FunctionCallbackInfo@VValue@v8@@@Nan@@@Z@4HA 000000018002d9e0     serialport.obj
 0002:0000a9e0       $unwind$?fin$0@?0??dllmain_crt_process_attach@@YAHQEAUHINSTANCE__@@QEAX@Z@4HA 000000018002d9e0     LIBCMT:dll_dllmain.obj
 0002:0000a9e0       $unwind$?dtor$1@?0??ToParityEnum@@YA?AW4SerialPortParity@@AEBV?$Local@VString@v8@@@v8@@@Z@4HA 000000018002d9e0     serialport.obj
 0002:0000a9e0       $unwind$?dtor$1@?0??Write@@YAXAEBV?$FunctionCallbackInfo@VValue@v8@@@Nan@@@Z@4HA 000000018002d9e0     serialport.obj
 0002:0000a9e0       $unwind$?fin$0@?0???$?RV<lambda_72d1df2b273a38828b1ce30cbf4cdab5>@@AEAV<lambda_876a65b173b8412d3a47c70a915b0cf4>@@V<lambda_41932305e351933ebe8f8be3ed8bb5dc>@@@?$__crt_seh_guarded_call@X@@QEAAX$$QEAV<lambda_72d1df2b273a38828b1ce30cbf4cdab5>@@AEAV<lambda_876a65b173b8412d3a47c70a915b0cf4>@@$$QEAV<lambda_41932305e351933ebe8f8be3ed8bb5dc>@@@Z@4HA 000000018002d9e0     libucrt:per_thread_data.obj
 0002:0000a9e0       $unwind$?fin$0@?0???$common_lseek@_J@@YA_JH_JH@Z@4HA 000000018002d9e0     libucrt:lseek.obj
 0002:0000a9e0       $unwind$?fin$0@?0???$?RV<lambda_c36588078e9f5dfd39652860aa6b3aaf>@@AEAV<lambda_ec61778202f4f5fc7e7711acc23c3bca>@@V<lambda_dc9d2797ccde5d239b4a0efae8ebd7db>@@@?$__crt_seh_guarded_call@P6AXH@Z@@QEAAP6AXH@Z$$QEAV<lambda_c36588078e9f5dfd39652860aa6b3aaf>@@AEAV<lambda_ec61778202f4f5fc7e7711acc23c3bca>@@$$QEAV<lambda_dc9d2797ccde5d239b4a0efae8ebd7db>@@@Z@4HA 000000018002d9e0     libucrt:signal.obj
 0002:0000a9e0       $unwind$?filt$0@?0??common_exit@@YAXHW4_crt_exit_cleanup_mode@@W4_crt_exit_return_mode@@@Z@4HA 000000018002d9e0     libucrt:exit.obj
 0002:0000a9e0       $unwind$?dtor$0@?0??Write@@YAXAEBV?$FunctionCallbackInfo@VValue@v8@@@Nan@@@Z@4HA 000000018002d9e0     serialport.obj
 0002:0000a9e0       $unwind$_isindst$fin$0     000000018002d9e0     libucrt:tzset.obj
 0002:0000a9e0       $unwind$__CxxCallCatchBlock$filt$0 000000018002d9e0     libvcruntime:frame.obj
 0002:0000a9e0       $unwind$?dtor$16@?0??Open@@YAXAEBV?$FunctionCallbackInfo@VValue@v8@@@Nan@@@Z@4HA 000000018002d9e0     serialport.obj
 0002:0000a9e0       $unwind$?fin$0@?0???$?RV<lambda_7a5ef57ff966f610505f1d28a3d40618>@@AEAV<lambda_b721fa326cdb32351d23dfa67958c160>@@V<lambda_5e0fb27672408a07956fe59e48ccb2aa>@@@?$__crt_seh_guarded_call@H@@QEAAH$$QEAV<lambda_7a5ef57ff966f610505f1d28a3d40618>@@AEAV<lambda_b721fa326cdb32351d23dfa67958c160>@@$$QEAV<lambda_5e0fb27672408a07956fe59e48ccb2aa>@@@Z@4HA 000000018002d9e0     libucrt:setvbuf.obj
 0002:0000a9e0       $unwind$common_control87$filt$0 000000018002d9e0     libucrt:ieee.obj
 0002:0000a9e0       $unwind$?dtor$18@?0??Open@@YAXAEBV?$FunctionCallbackInfo@VValue@v8@@@Nan@@@Z@4HA 000000018002d9e0     serialport.obj
 0002:0000a9e0       $unwind$__FrameUnwindToState$fin$1 000000018002d9e0     libvcruntime:frame.obj
 0002:0000a9e0       $unwind$?dtor$0@?0??Drain@@YAXAEBV?$FunctionCallbackInfo@VValue@v8@@@Nan@@@Z@4HA 000000018002d9e0     serialport.obj
 0002:0000a9e0       $unwind$common_flush_all$fin$0 000000018002d9e0     libucrt:fflush.obj
 0002:0000a9e0       $unwind$_IsNonwritableInCurrentImage$filt$0 000000018002d9e0     LIBCMT:pesect.obj
 0002:0000a9e0       $unwind$?fin$1@?0??common_exit@@YAXHW4_crt_exit_cleanup_mode@@W4_crt_exit_return_mode@@@Z@4HA 000000018002d9e0     libucrt:exit.obj
 0002:0000a9e0       $unwind$?dtor$13@?0??Open@@YAXAEBV?$FunctionCallbackInfo@VValue@v8@@@Nan@@@Z@4HA 000000018002d9e0     serialport.obj
 0002:0000a9e0       $unwind$?fin$0@?0???$?RV<lambda_fb3a7dec4e47f37f22dae91bb15c9095>@@AEAV<lambda_698284760c8add0bfb0756c19673e34b>@@V<lambda_dfb8eca1e75fef3034a8fb18dd509707>@@@?$__crt_seh_guarded_call@X@@QEAAX$$QEAV<lambda_fb3a7dec4e47f37f22dae91bb15c9095>@@AEAV<lambda_698284760c8add0bfb0756c19673e34b>@@$$QEAV<lambda_dfb8eca1e75fef3034a8fb18dd509707>@@@Z@4HA 000000018002d9e0     libucrt:per_thread_data.obj
 0002:0000a9e0       $unwind$_ctrlfp$filt$0     000000018002d9e0     libucrt:fpctrl.obj
 0002:0000a9e0       $unwind$?fin$0@?0???$?RV<lambda_7b91131dde12e1c3dfc74ff76b3f2eac>@@AEAV<lambda_dd75445284c072d0bd3768540cc698fa>@@V<lambda_16bc4ecb55b4718497c16bceaea2ceaf>@@@?$__crt_seh_guarded_call@H@@QEAAH$$QEAV<lambda_7b91131dde12e1c3dfc74ff76b3f2eac>@@AEAV<lambda_dd75445284c072d0bd3768540cc698fa>@@$$QEAV<lambda_16bc4ecb55b4718497c16bceaea2ceaf>@@@Z@4HA 000000018002d9e0     libucrt:output.obj
 0002:0000a9e0       $unwind$?dtor$14@?0??Open@@YAXAEBV?$FunctionCallbackInfo@VValue@v8@@@Nan@@@Z@4HA 000000018002d9e0     serialport.obj
 0002:0000a9e0       $unwind$fclose$fin$0       000000018002d9e0     libucrt:fclose.obj
 0002:0000a9e0       $unwind$?fin$0@?0???$?RV<lambda_99476a1ad63dd22509b5d3e65b0ffc95>@@AEAV<lambda_ad1ced32f4ac17aa236e5ef05d6b3b7c>@@V<lambda_f7424dd8d45958661754dc4f2697e9c3>@@@?$__crt_seh_guarded_call@X@@QEAAX$$QEAV<lambda_99476a1ad63dd22509b5d3e65b0ffc95>@@AEAV<lambda_ad1ced32f4ac17aa236e5ef05d6b3b7c>@@$$QEAV<lambda_f7424dd8d45958661754dc4f2697e9c3>@@@Z@4HA 000000018002d9e0     libucrt:mbctype.obj
 0002:0000a9e0       $unwind$?dtor$0@?0??List@@YAXAEBV?$FunctionCallbackInfo@VValue@v8@@@Nan@@@Z@4HA 000000018002d9e0     serialport.obj
 0002:0000a9e0       $unwind$__acrt_update_thread_multibyte_data$fin$0 000000018002d9e0     libucrt:mbctype.obj
 0002:0000a9e0       $unwind$?dtor$1@?0??newQForFD@@YAPEAU_WriteQueue@@H@Z@4HA 000000018002d9e0     serialport.obj
 0002:0000a9e0       $unwind$_query_new_handler$fin$0 000000018002d9e0     libucrt:new_handler.obj
 0002:0000a9e8       $unwind$??_G_WriteQueue@@QEAAPEAXI@Z 000000018002d9e8     serialport.obj
 0002:0000a9f8       $stateUnwindMap$??_G_WriteQueue@@QEAAPEAXI@Z 000000018002d9f8     serialport.obj
 0002:0000aa00       $ip2state$??_G_WriteQueue@@QEAAPEAXI@Z 000000018002da00     serialport.obj
 0002:0000aa08       $unwind$?getValueFromObject@@YA?AV?$Local@VValue@v8@@@v8@@V?$Local@VObject@v8@@@2@V?$basic_string@DU?$char_traits@D@std@@V?$allocator@D@2@@std@@@Z 000000018002da08     serialport.obj
 0002:0000aa24       $stateUnwindMap$?getValueFromObject@@YA?AV?$Local@VValue@v8@@@v8@@V?$Local@VObject@v8@@@2@V?$basic_string@DU?$char_traits@D@std@@V?$allocator@D@2@@std@@@Z 000000018002da24     serialport.obj
 0002:0000aa38       $ip2state$?getValueFromObject@@YA?AV?$Local@VValue@v8@@@v8@@V?$Local@VObject@v8@@@2@V?$basic_string@DU?$char_traits@D@std@@V?$allocator@D@2@@std@@@Z 000000018002da38     serialport.obj
 0002:0000aa50       $unwind$?getIntFromObject@@YAHV?$Local@VObject@v8@@@v8@@V?$basic_string@DU?$char_traits@D@std@@V?$allocator@D@2@@std@@@Z 000000018002da50     serialport.obj
 0002:0000aa68       $stateUnwindMap$?getBoolFromObject@@YA_NV?$Local@VObject@v8@@@v8@@V?$basic_string@DU?$char_traits@D@std@@V?$allocator@D@2@@std@@@Z 000000018002da68     serialport.obj
 0002:0000aa68       $stateUnwindMap$?getIntFromObject@@YAHV?$Local@VObject@v8@@@v8@@V?$basic_string@DU?$char_traits@D@std@@V?$allocator@D@2@@std@@@Z 000000018002da68     serialport.obj
 0002:0000aa68       $stateUnwindMap$?getDoubleFromObject@@YANV?$Local@VObject@v8@@@v8@@V?$basic_string@DU?$char_traits@D@std@@V?$allocator@D@2@@std@@@Z 000000018002da68     serialport.obj
 0002:0000aa78       $ip2state$?getIntFromObject@@YAHV?$Local@VObject@v8@@@v8@@V?$basic_string@DU?$char_traits@D@std@@V?$allocator@D@2@@std@@@Z 000000018002da78     serialport.obj
 0002:0000aa90       $unwind$?getBoolFromObject@@YA_NV?$Local@VObject@v8@@@v8@@V?$basic_string@DU?$char_traits@D@std@@V?$allocator@D@2@@std@@@Z 000000018002da90     serialport.obj
 0002:0000aaa8       $ip2state$?getBoolFromObject@@YA_NV?$Local@VObject@v8@@@v8@@V?$basic_string@DU?$char_traits@D@std@@V?$allocator@D@2@@std@@@Z 000000018002daa8     serialport.obj
 0002:0000aac0       $unwind$?getStringFromObj@@YA?AV?$Local@VString@v8@@@v8@@V?$Local@VObject@v8@@@2@V?$basic_string@DU?$char_traits@D@std@@V?$allocator@D@2@@std@@@Z 000000018002dac0     serialport.obj
 0002:0000aad8       $stateUnwindMap$?getStringFromObj@@YA?AV?$Local@VString@v8@@@v8@@V?$Local@VObject@v8@@@2@V?$basic_string@DU?$char_traits@D@std@@V?$allocator@D@2@@std@@@Z 000000018002dad8     serialport.obj
 0002:0000aae8       $ip2state$?getStringFromObj@@YA?AV?$Local@VString@v8@@@v8@@V?$Local@VObject@v8@@@2@V?$basic_string@DU?$char_traits@D@std@@V?$allocator@D@2@@std@@@Z 000000018002dae8     serialport.obj
 0002:0000ab00       $unwind$?getDoubleFromObject@@YANV?$Local@VObject@v8@@@v8@@V?$basic_string@DU?$char_traits@D@std@@V?$allocator@D@2@@std@@@Z 000000018002db00     serialport.obj
 0002:0000ab18       $ip2state$?getDoubleFromObject@@YANV?$Local@VObject@v8@@@v8@@V?$basic_string@DU?$char_traits@D@std@@V?$allocator@D@2@@std@@@Z 000000018002db18     serialport.obj
 0002:0000ab30       $unwind$?Open@@YAXAEBV?$FunctionCallbackInfo@VValue@v8@@@Nan@@@Z 000000018002db30     serialport.obj
 0002:0000ab48       $stateUnwindMap$?Open@@YAXAEBV?$FunctionCallbackInfo@VValue@v8@@@Nan@@@Z 000000018002db48     serialport.obj
 0002:0000ac30       $ip2state$?Open@@YAXAEBV?$FunctionCallbackInfo@VValue@v8@@@Nan@@@Z 000000018002dc30     serialport.obj
 0002:0000ac88       $unwind$?EIO_AfterOpen@@YAXPEAUuv_work_s@@@Z 000000018002dc88     serialport.obj
 0002:0000aca4       $stateUnwindMap$?EIO_AfterOpen@@YAXPEAUuv_work_s@@@Z 000000018002dca4     serialport.obj
 0002:0000ad00       $ip2state$?EIO_AfterOpen@@YAXPEAUuv_work_s@@@Z 000000018002dd00     serialport.obj
 0002:0000ad58       $unwind$?Update@@YAXAEBV?$FunctionCallbackInfo@VValue@v8@@@Nan@@@Z 000000018002dd58     serialport.obj
 0002:0000ad70       $stateUnwindMap$?Update@@YAXAEBV?$FunctionCallbackInfo@VValue@v8@@@Nan@@@Z 000000018002dd70     serialport.obj
 0002:0000ad88       $ip2state$?Update@@YAXAEBV?$FunctionCallbackInfo@VValue@v8@@@Nan@@@Z 000000018002dd88     serialport.obj
 0002:0000ada0       $unwind$?EIO_AfterUpdate@@YAXPEAUuv_work_s@@@Z 000000018002dda0     serialport.obj
 0002:0000adb8       $stateUnwindMap$?EIO_AfterSet@@YAXPEAUuv_work_s@@@Z 000000018002ddb8     serialport.obj
 0002:0000adb8       $stateUnwindMap$?EIO_AfterUpdate@@YAXPEAUuv_work_s@@@Z 000000018002ddb8     serialport.obj
 0002:0000adb8       $stateUnwindMap$?EIO_AfterDrain@@YAXPEAUuv_work_s@@@Z 000000018002ddb8     serialport.obj
 0002:0000ade0       $ip2state$?EIO_AfterUpdate@@YAXPEAUuv_work_s@@@Z 000000018002dde0     serialport.obj
 0002:0000ae08       $unwind$?Write@@YAXAEBV?$FunctionCallbackInfo@VValue@v8@@@Nan@@@Z 000000018002de08     serialport.obj
 0002:0000ae28       $stateUnwindMap$?Write@@YAXAEBV?$FunctionCallbackInfo@VValue@v8@@@Nan@@@Z 000000018002de28     serialport.obj
 0002:0000ae60       $ip2state$?Write@@YAXAEBV?$FunctionCallbackInfo@VValue@v8@@@Nan@@@Z 000000018002de60     serialport.obj
 0002:0000ae98       $unwind$?EIO_AfterWrite@@YAXPEAUuv_work_s@@@Z 000000018002de98     serialport.obj
 0002:0000aeb4       $stateUnwindMap$?EIO_AfterWrite@@YAXPEAUuv_work_s@@@Z 000000018002deb4     serialport.obj
 0002:0000af00       $ip2state$?EIO_AfterWrite@@YAXPEAUuv_work_s@@@Z 000000018002df00     serialport.obj
 0002:0000af28       $unwind$?Close@@YAXAEBV?$FunctionCallbackInfo@VValue@v8@@@Nan@@@Z 000000018002df28     serialport.obj
 0002:0000af40       $stateUnwindMap$?Drain@@YAXAEBV?$FunctionCallbackInfo@VValue@v8@@@Nan@@@Z 000000018002df40     serialport.obj
 0002:0000af40       $stateUnwindMap$?Close@@YAXAEBV?$FunctionCallbackInfo@VValue@v8@@@Nan@@@Z 000000018002df40     serialport.obj
 0002:0000af40       $stateUnwindMap$?Flush@@YAXAEBV?$FunctionCallbackInfo@VValue@v8@@@Nan@@@Z 000000018002df40     serialport.obj
 0002:0000af58       $ip2state$?Close@@YAXAEBV?$FunctionCallbackInfo@VValue@v8@@@Nan@@@Z 000000018002df58     serialport.obj
 0002:0000af70       $unwind$?EIO_AfterClose@@YAXPEAUuv_work_s@@@Z 000000018002df70     serialport.obj
 0002:0000af8c       $stateUnwindMap$?EIO_AfterClose@@YAXPEAUuv_work_s@@@Z 000000018002df8c     serialport.obj
 0002:0000afb8       $ip2state$?EIO_AfterClose@@YAXPEAUuv_work_s@@@Z 000000018002dfb8     serialport.obj
 0002:0000afe0       $unwind$?List@@YAXAEBV?$FunctionCallbackInfo@VValue@v8@@@Nan@@@Z 000000018002dfe0     serialport.obj
 0002:0000aff8       $stateUnwindMap$?List@@YAXAEBV?$FunctionCallbackInfo@VValue@v8@@@Nan@@@Z 000000018002dff8     serialport.obj
 0002:0000b030       $ip2state$?List@@YAXAEBV?$FunctionCallbackInfo@VValue@v8@@@Nan@@@Z 000000018002e030     serialport.obj
 0002:0000b058       $unwind$?setIfNotEmpty@@YAXV?$Local@VObject@v8@@@v8@@V?$basic_string@DU?$char_traits@D@std@@V?$allocator@D@2@@std@@PEBD@Z 000000018002e058     serialport.obj
 0002:0000b074       $stateUnwindMap$?setIfNotEmpty@@YAXV?$Local@VObject@v8@@@v8@@V?$basic_string@DU?$char_traits@D@std@@V?$allocator@D@2@@std@@PEBD@Z 000000018002e074     serialport.obj
 0002:0000b088       $ip2state$?setIfNotEmpty@@YAXV?$Local@VObject@v8@@@v8@@V?$basic_string@DU?$char_traits@D@std@@V?$allocator@D@2@@std@@PEBD@Z 000000018002e088     serialport.obj
 0002:0000b0a0       $unwind$?EIO_AfterList@@YAXPEAUuv_work_s@@@Z 000000018002e0a0     serialport.obj
 0002:0000b0c0       $stateUnwindMap$?EIO_AfterList@@YAXPEAUuv_work_s@@@Z 000000018002e0c0     serialport.obj
 0002:0000b160       $ip2state$?EIO_AfterList@@YAXPEAUuv_work_s@@@Z 000000018002e160     serialport.obj
 0002:0000b268       $unwind$??_GListBaton@@QEAAPEAXI@Z 000000018002e268     serialport.obj
 0002:0000b280       $stateUnwindMap$??_GListBaton@@QEAAPEAXI@Z 000000018002e280     serialport.obj
 0002:0000b298       $ip2state$??_GListBaton@@QEAAPEAXI@Z 000000018002e298     serialport.obj
 0002:0000b2b0       $unwind$?Flush@@YAXAEBV?$FunctionCallbackInfo@VValue@v8@@@Nan@@@Z 000000018002e2b0     serialport.obj
 0002:0000b2c8       $ip2state$?Flush@@YAXAEBV?$FunctionCallbackInfo@VValue@v8@@@Nan@@@Z 000000018002e2c8     serialport.obj
 0002:0000b2e0       $unwind$?EIO_AfterFlush@@YAXPEAUuv_work_s@@@Z 000000018002e2e0     serialport.obj
 0002:0000b2f8       $stateUnwindMap$?EIO_AfterFlush@@YAXPEAUuv_work_s@@@Z 000000018002e2f8     serialport.obj
 0002:0000b320       $ip2state$?EIO_AfterFlush@@YAXPEAUuv_work_s@@@Z 000000018002e320     serialport.obj
 0002:0000b348       $unwind$?Set@@YAXAEBV?$FunctionCallbackInfo@VValue@v8@@@Nan@@@Z 000000018002e348     serialport.obj
 0002:0000b360       $stateUnwindMap$?Set@@YAXAEBV?$FunctionCallbackInfo@VValue@v8@@@Nan@@@Z 000000018002e360     serialport.obj
 0002:0000b3a0       $ip2state$?Set@@YAXAEBV?$FunctionCallbackInfo@VValue@v8@@@Nan@@@Z 000000018002e3a0     serialport.obj
 0002:0000b3b8       $unwind$?EIO_AfterSet@@YAXPEAUuv_work_s@@@Z 000000018002e3b8     serialport.obj
 0002:0000b3d0       $ip2state$?EIO_AfterSet@@YAXPEAUuv_work_s@@@Z 000000018002e3d0     serialport.obj
 0002:0000b3f8       $unwind$?Drain@@YAXAEBV?$FunctionCallbackInfo@VValue@v8@@@Nan@@@Z 000000018002e3f8     serialport.obj
 0002:0000b410       $ip2state$?Drain@@YAXAEBV?$FunctionCallbackInfo@VValue@v8@@@Nan@@@Z 000000018002e410     serialport.obj
 0002:0000b428       $unwind$?EIO_AfterDrain@@YAXPEAUuv_work_s@@@Z 000000018002e428     serialport.obj
 0002:0000b440       $ip2state$?EIO_AfterDrain@@YAXPEAUuv_work_s@@@Z 000000018002e440     serialport.obj
 0002:0000b468       $unwind$?ToParityEnum@@YA?AW4SerialPortParity@@AEBV?$Local@VString@v8@@@v8@@@Z 000000018002e468     serialport.obj
 0002:0000b480       $stateUnwindMap$?ToParityEnum@@YA?AW4SerialPortParity@@AEBV?$Local@VString@v8@@@v8@@@Z 000000018002e480     serialport.obj
 0002:0000b4a0       $ip2state$?ToParityEnum@@YA?AW4SerialPortParity@@AEBV?$Local@VString@v8@@@v8@@@Z 000000018002e4a0     serialport.obj
 0002:0000b4c8       $unwind$init               000000018002e4c8     serialport.obj
 0002:0000b4dc       $stateUnwindMap$init       000000018002e4dc     serialport.obj
 0002:0000b5c0       $ip2state$init             000000018002e5c0     serialport.obj
 0002:0000b658       $unwind$??1?$list@PEAUListResultItem@@V?$allocator@PEAUListResultItem@@@std@@@std@@QEAA@XZ 000000018002e658     serialport.obj
 0002:0000b66c       $stateUnwindMap$??1?$list@PEAUListResultItem@@V?$allocator@PEAUListResultItem@@@std@@@std@@QEAA@XZ 000000018002e66c     serialport.obj
 0002:0000b680       $ip2state$??1?$list@PEAUListResultItem@@V?$allocator@PEAUListResultItem@@@std@@@std@@QEAA@XZ 000000018002e680     serialport.obj
 0002:0000b698       $unwind$??1?$Persistent@VFunction@v8@@V?$NonCopyablePersistentTraits@VFunction@v8@@@2@@v8@@QEAA@XZ 000000018002e698     serialport.obj
 0002:0000b698       $unwind$??1?$Persistent@VObject@v8@@V?$NonCopyablePersistentTraits@VObject@v8@@@2@@v8@@QEAA@XZ 000000018002e698     serialport.obj
 0002:0000b6a8       $ip2state$??1?$Persistent@VObject@v8@@V?$NonCopyablePersistentTraits@VObject@v8@@@2@@v8@@QEAA@XZ 000000018002e6a8     serialport.obj
 0002:0000b6a8       $ip2state$??1?$Persistent@VFunction@v8@@V?$NonCopyablePersistentTraits@VFunction@v8@@@2@@v8@@QEAA@XZ 000000018002e6a8     serialport.obj
 0002:0000b6b0       $unwind$??1?$CDhComPtr@UIEnumVARIANT@@@@QEAA@XZ 000000018002e6b0     serialport_win.obj
 0002:0000b6b0       $unwind$??0logic_error@std@@QEAA@AEBV01@@Z 000000018002e6b0     libcpmt:xthrow.obj
 0002:0000b6b0       $unwind$??1?$CDhComPtr@UIDispatch@@@@QEAA@XZ 000000018002e6b0     serialport_win.obj
 0002:0000b6b0       $unwind$?FinalizerCallback@@YAXPEADPEAX@Z 000000018002e6b0     serialport_win.obj
 0002:0000b6b0       $unwind$?_Tidy@?$vector@IV?$allocator@I@std@@@std@@IEAAXXZ 000000018002e6b0     serialport_win.obj
 0002:0000b6b0       $unwind$__vcrt_initialize_locks 000000018002e6b0     libvcruntime:locks.obj
 0002:0000b6b0       $unwind$__std_type_info_destroy_list 000000018002e6b0     libvcruntime:std_type_info.obj
 0002:0000b6b0       $unwind$??0length_error@std@@QEAA@AEBV01@@Z 000000018002e6b0     libcpmt:xthrow.obj
 0002:0000b6b0       $unwind$_setfpstatusword   000000018002e6b0     libucrt:_fenvutils.obj
 0002:0000b6b0       $unwind$__vcrt_uninitialize_locks 000000018002e6b0     libvcruntime:locks.obj
 0002:0000b6b0       $unwind$??0bad_exception@std@@QEAA@AEBV01@@Z 000000018002e6b0     libvcruntime:frame.obj
 0002:0000b6b0       $unwind$__scrt_uninitialize_crt 000000018002e6b0     LIBCMT:utility.obj
 0002:0000b6b0       $unwind$??0bad_alloc@std@@QEAA@AEBV01@@Z 000000018002e6b0     libcpmt:xthrow.obj
 0002:0000b6b0       $unwind$__acrt_allocate_buffer_for_argv 000000018002e6b0     libucrt:argv_parsing.obj
 0002:0000b6b0       $unwind$?__StateFromIp@@YAHPEBU_s_FuncInfo@@PEAU_xDISPATCHER_CONTEXT@@_J@Z 000000018002e6b0     libvcruntime:ehstate.obj
 0002:0000b6b0       $unwind$_calloc_base       000000018002e6b0     libucrt:calloc_base.obj
 0002:0000b6b0       $unwind$??0out_of_range@std@@QEAA@AEBV01@@Z 000000018002e6b0     libcpmt:xthrow.obj
 0002:0000b6b0       $unwind$_SetImageBase      000000018002e6b0     libvcruntime:trnsctrl.obj
 0002:0000b6b0       $unwind$??0exception@std@@QEAA@AEBV01@@Z 000000018002e6b0     libcpmt:xthrow.obj
 0002:0000b6b0       $unwind$_fflush_nolock     000000018002e6b0     libucrt:fflush.obj
 0002:0000b6b0       $unwind$__scrt_initialize_crt 000000018002e6b0     LIBCMT:utility.obj
 0002:0000b6b0       $unwind$__scrt_release_startup_lock 000000018002e6b0     LIBCMT:utility.obj
 0002:0000b6b0       $unwind$??$common_get_or_create_environment_nolock@D@@YAPEAPEADXZ 000000018002e6b0     libucrt:environment_initialization.obj
 0002:0000b6b0       $unwind$__acrt_update_locale_info 000000018002e6b0     libucrt:locale_update.obj
 0002:0000b6b0       $unwind$_SetThrowImageBase 000000018002e6b0     libvcruntime:trnsctrl.obj
 0002:0000b6b0       $unwind$?type_case_integer@?$output_processor@DV?$string_output_adapter@D@__crt_stdio_output@@V?$format_validation_base@DV?$string_output_adapter@D@__crt_stdio_output@@@2@@__crt_stdio_output@@AEAA_NI_N@Z 000000018002e6b0     libucrt:output.obj
 0002:0000b6b0       $unwind$_clrfp             000000018002e6b0     libucrt:fpctrl.obj
 0002:0000b6b0       $unwind$?__GetUnwindTryBlock@@YAHPEA_KPEAU_xDISPATCHER_CONTEXT@@PEBU_s_FuncInfo@@@Z 000000018002e6b0     libvcruntime:ehstate.obj
 0002:0000b6b0       $unwind$__acrt_fp_strflt_to_string 000000018002e6b0     libucrt:_fptostr.obj
 0002:0000b6b0       $unwind$dhCleanupThreadException 000000018002e6b0     disphelper.obj
 0002:0000b6b0       $unwind$_set_statfp        000000018002e6b0     libucrt:fpctrl.obj
 0002:0000b6b0       $unwind$_malloc_base       000000018002e6b0     libucrt:malloc_base.obj
 0002:0000b6b0       $unwind$??0?$output_processor@DV?$string_output_adapter@D@__crt_stdio_output@@V?$format_validation_base@DV?$string_output_adapter@D@__crt_stdio_output@@@2@@__crt_stdio_output@@QEAA@AEBV?$string_output_adapter@D@1@_KQEBDQEAU__crt_locale_pointers@@QEAD@Z 000000018002e6b0     libucrt:output.obj
 0002:0000b6b0       $unwind$__acrt_update_multibyte_info 000000018002e6b0     libucrt:locale_update.obj
 0002:0000b6b0       $unwind$_onexit            000000018002e6b0     LIBCMT:utility.obj
 0002:0000b6b0       $unwind$?exit_or_terminate_process@@YAXI@Z 000000018002e6b0     libucrt:exit.obj
 0002:0000b6b0       $unwind$?type_case_integer@?$output_processor@_WV?$string_output_adapter@_W@__crt_stdio_output@@V?$standard_base@_WV?$string_output_adapter@_W@__crt_stdio_output@@@2@@__crt_stdio_output@@AEAA_NI_N@Z 000000018002e6b0     libucrt:output.obj
 0002:0000b6b0       $unwind$_CreateFrameInfo   000000018002e6b0     libvcruntime:trnsctrl.obj
 0002:0000b6b0       $unwind$__acrt_uninitialize_locks 000000018002e6b0     libucrt:locks.obj
 0002:0000b6b0       $unwind$??0?$output_processor@_WV?$string_output_adapter@_W@__crt_stdio_output@@V?$standard_base@_WV?$string_output_adapter@_W@__crt_stdio_output@@@2@@__crt_stdio_output@@QEAA@AEBV?$string_output_adapter@_W@1@_KQEB_WQEAU__crt_locale_pointers@@QEAD@Z 000000018002e6b0     libucrt:output.obj
 0002:0000b6b0       $unwind$?type_case_integer@?$output_processor@_WV?$stream_output_adapter@_W@__crt_stdio_output@@V?$standard_base@_WV?$stream_output_adapter@_W@__crt_stdio_output@@@2@@__crt_stdio_output@@AEAA_NI_N@Z 000000018002e6b0     libucrt:output.obj
 0002:0000b6b0       $unwind$_IsExceptionObjectToBeDestroyed 000000018002e6b0     libvcruntime:trnsctrl.obj
 0002:0000b6b0       $unwind$__acrt_initialize_locks 000000018002e6b0     libucrt:locks.obj
 0002:0000b6b0       $unwind$??0?$output_processor@_WV?$stream_output_adapter@_W@__crt_stdio_output@@V?$standard_base@_WV?$stream_output_adapter@_W@__crt_stdio_output@@@2@@__crt_stdio_output@@QEAA@AEBV?$stream_output_adapter@_W@1@_KQEB_WQEAU__crt_locale_pointers@@QEAD@Z 000000018002e6b0     libucrt:output.obj
 0002:0000b6b0       $unwind$__acrt_uninitialize_stdio 000000018002e6b0     libucrt:_file.obj
 0002:0000b6b0       $unwind$__acrt_freeptd     000000018002e6b0     libucrt:per_thread_data.obj
 0002:0000b6b0       $unwind$ConvertVariantTimeToTimeT 000000018002e6b0     disphelper.obj
 0002:0000b6b0       $unwind$initialize_pointers 000000018002e6b0     libucrt:initialization.obj
 0002:0000b6b0       $unwind$__acrt_stdio_free_buffer_nolock 000000018002e6b0     libucrt:_freebuf.obj
 0002:0000b6b0       $unwind$__acrt_stdio_allocate_buffer_nolock 000000018002e6b0     libucrt:_getbuf.obj
 0002:0000b6b0       $unwind$uninitialize_allocated_memory 000000018002e6b0     libucrt:initialization.obj
 0002:0000b6b0       $unwind$strcpy_s           000000018002e6b0     libucrt:strcpy_s.obj
 0002:0000b6b0       $unwind$wcscat_s           000000018002e6b0     libucrt:wcscat_s.obj
 0002:0000b6b0       $unwind$__raise_securityfailure 000000018002e6b0     LIBCMT:gs_report.obj
 0002:0000b6b0       $unwind$wcscpy_s           000000018002e6b0     libucrt:wcscpy_s.obj
 0002:0000b6b0       $unwind$_clearfp           000000018002e6b0     libucrt:ieee.obj
 0002:0000b6b0       $unwind$__getgmtimebuf     000000018002e6b0     libucrt:gmtime.obj
 0002:0000b6b0       $unwind$__acrt_uninitialize_winapi_thunks 000000018002e6b0     libucrt:winapi_thunks.obj
 0002:0000b6b0       $unwind$__std_exception_destroy 000000018002e6b0     libvcruntime:std_exception.obj
 0002:0000b6b0       $unwind$fegetenv           000000018002e6b0     libucrt:fegetenv.obj
 0002:0000b6b0       $unwind$??0bad_array_new_length@std@@QEAA@AEBV01@@Z 000000018002e6b0     LIBCMT:throw_bad_alloc.obj
 0002:0000b6b0       $unwind$feholdexcept       000000018002e6b0     libucrt:feholdexcept.obj
 0002:0000b6b0       $unwind$fesetenv           000000018002e6b0     libucrt:fesetenv.obj
 0002:0000b6b0       $unwind$?state_case_normal@?$output_processor@DV?$string_output_adapter@D@__crt_stdio_output@@V?$format_validation_base@DV?$string_output_adapter@D@__crt_stdio_output@@@2@@__crt_stdio_output@@AEAA_NXZ 000000018002e6b0     libucrt:output.obj
 0002:0000b6b0       $unwind$??1?$basic_string@DU?$char_traits@D@std@@V?$allocator@D@2@@std@@QEAA@XZ 000000018002e6b0     serialport.obj
 0002:0000b6b0       $unwind$__vcrt_uninitialize 000000018002e6b0     libvcruntime:initialization.obj
 0002:0000b6b0       $unwind$??$message_box_wait_thread@_W@@YAKQEAX@Z 000000018002e6b0     libucrt:crtmbox.obj
 0002:0000b6b0       $unwind$??_Gtype_info@@UEAAPEAXI@Z 000000018002e6b0     LIBCMT:std_type_info_static.obj
 0002:0000b6b0       $unwind$__vcrt_freeptd     000000018002e6b0     libvcruntime:per_thread_data.obj
 0002:0000b6b0       $unwind$__acrt_can_show_message_box 000000018002e6b0     libucrt:winapi_thunks.obj
 0002:0000b6b0       $unwind$??2@YAPEAX_K@Z     000000018002e6b0     LIBCMT:new_scalar.obj
 0002:0000b6b8       $unwind$??1?$_List_buy@PEAUListResultItem@@V?$allocator@PEAUListResultItem@@@std@@@std@@QEAA@XZ 000000018002e6b8     serialport.obj
 0002:0000b6c8       $stateUnwindMap$??1?$_List_buy@PEAUListResultItem@@V?$allocator@PEAUListResultItem@@@std@@@std@@QEAA@XZ 000000018002e6c8     serialport.obj
 0002:0000b6d0       $ip2state$??1?$_List_buy@PEAUListResultItem@@V?$allocator@PEAUListResultItem@@@std@@@std@@QEAA@XZ 000000018002e6d0     serialport.obj
 0002:0000b6d8       $unwind$?assign@?$basic_string@DU?$char_traits@D@std@@V?$allocator@D@2@@std@@QEAAAEAV12@PEBD_K@Z 000000018002e6d8     serialport.obj
 0002:0000b6d8       $unwind$??$common_getenv_nolock@D@@YAPEADQEBD@Z 000000018002e6d8     libucrt:getenv.obj
 0002:0000b6d8       $unwind$__acrt_execute_uninitializers 000000018002e6d8     libucrt:shared_initialization.obj
 0002:0000b6d8       $unwind$??R<lambda_ad1ced32f4ac17aa236e5ef05d6b3b7c>@@QEBAXXZ 000000018002e6d8     libucrt:mbctype.obj
 0002:0000b6d8       $unwind$__acrt_getptd_noexit 000000018002e6d8     libucrt:per_thread_data.obj
 0002:0000b6d8       $unwind$?TraceLoggingRegister@__vcrt_trace_logging_provider@@YAJPEBU_TlgProvider_t@1@PEBU_GUID@@P6AX1KE_K2PEAU_EVENT_FILTER_DESCRIPTOR@@PEAX@Z4@Z 000000018002e6d8     libvcruntime:telemetry.obj
 0002:0000b6d8       $unwind$_RTC_Terminate     000000018002e6d8     LIBCMT:_initsect_.obj
 0002:0000b6d8       $unwind$_RTC_Initialize    000000018002e6d8     LIBCMT:_initsect_.obj
 0002:0000b6d8       $unwind$_exception_enabled 000000018002e6d8     libucrt:libm_error.obj
 0002:0000b6d8       $unwind$memcpy_s           000000018002e6d8     libucrt:cfout.obj
 0002:0000b6d8       $unwind$??$common_lseek_nolock@_J@@YA_JH_JH@Z 000000018002e6d8     libucrt:lseek.obj
 0002:0000b6d8       $unwind$_initterm_e        000000018002e6d8     libucrt:initterm.obj
 0002:0000b6d8       $unwind$__vcrt_getptd_noexit 000000018002e6d8     libvcruntime:per_thread_data.obj
 0002:0000b6d8       $unwind$__acrt_stdio_flush_nolock 000000018002e6d8     libucrt:fflush.obj
 0002:0000b6d8       $unwind$?type_case_n@?$output_processor@DV?$string_output_adapter@D@__crt_stdio_output@@V?$format_validation_base@DV?$string_output_adapter@D@__crt_stdio_output@@@2@@__crt_stdio_output@@AEAA_NXZ 000000018002e6d8     libucrt:output.obj
 0002:0000b6d8       $unwind$__acrt_LocaleNameToLCID 000000018002e6d8     libucrt:winapi_thunks.obj
 0002:0000b6d8       $unwind$__acrt_FlsSetValue 000000018002e6d8     libucrt:winapi_thunks.obj
 0002:0000b6d8       $unwind$__vcrt_FlsSetValue 000000018002e6d8     libvcruntime:winapi_downlevel.obj
 0002:0000b6d8       $unwind$_localtime64       000000018002e6d8     libucrt:localtime.obj
 0002:0000b6d8       $unwind$_gmtime64          000000018002e6d8     libucrt:gmtime.obj
 0002:0000b6d8       $unwind$?type_case_s@?$output_processor@DV?$string_output_adapter@D@__crt_stdio_output@@V?$format_validation_base@DV?$string_output_adapter@D@__crt_stdio_output@@@2@@__crt_stdio_output@@AEAA_NXZ 000000018002e6d8     libucrt:output.obj
 0002:0000b6d8       $unwind$?compute_year@@YAHAEA_JAEA_N@Z 000000018002e6d8     libucrt:gmtime.obj
 0002:0000b6d8       $unwind$?type_case_Z@?$output_processor@DV?$string_output_adapter@D@__crt_stdio_output@@V?$format_validation_base@DV?$string_output_adapter@D@__crt_stdio_output@@@2@@__crt_stdio_output@@AEAA_NXZ 000000018002e6d8     libucrt:output.obj
 0002:0000b6d8       $unwind$?type_case_n@?$output_processor@_WV?$string_output_adapter@_W@__crt_stdio_output@@V?$standard_base@_WV?$string_output_adapter@_W@__crt_stdio_output@@@2@@__crt_stdio_output@@AEAA_NXZ 000000018002e6d8     libucrt:output.obj
 0002:0000b6d8       $unwind$?type_case_s@?$output_processor@_WV?$string_output_adapter@_W@__crt_stdio_output@@V?$standard_base@_WV?$string_output_adapter@_W@__crt_stdio_output@@@2@@__crt_stdio_output@@AEAA_NXZ 000000018002e6d8     libucrt:output.obj
 0002:0000b6d8       $unwind$?type_case_Z@?$output_processor@_WV?$string_output_adapter@_W@__crt_stdio_output@@V?$standard_base@_WV?$string_output_adapter@_W@__crt_stdio_output@@@2@@__crt_stdio_output@@AEAA_NXZ 000000018002e6d8     libucrt:output.obj
 0002:0000b6d8       $unwind$?type_case_n@?$output_processor@_WV?$stream_output_adapter@_W@__crt_stdio_output@@V?$standard_base@_WV?$stream_output_adapter@_W@__crt_stdio_output@@@2@@__crt_stdio_output@@AEAA_NXZ 000000018002e6d8     libucrt:output.obj
 0002:0000b6d8       $unwind$?free_crt_array_internal@@YAXQEAPEBX_K@Z 000000018002e6d8     libucrt:inittime.obj
 0002:0000b6d8       $unwind$?type_case_s@?$output_processor@_WV?$stream_output_adapter@_W@__crt_stdio_output@@V?$standard_base@_WV?$stream_output_adapter@_W@__crt_stdio_output@@@2@@__crt_stdio_output@@AEAA_NXZ 000000018002e6d8     libucrt:output.obj
 0002:0000b6d8       $unwind$__acrt_stdio_flush_and_write_narrow_nolock 000000018002e6d8     libucrt:_flsbuf.obj
 0002:0000b6d8       $unwind$__acrt_stdio_flush_and_write_wide_nolock 000000018002e6d8     libucrt:_flsbuf.obj
 0002:0000b6d8       $unwind$?type_case_Z@?$output_processor@_WV?$stream_output_adapter@_W@__crt_stdio_output@@V?$standard_base@_WV?$stream_output_adapter@_W@__crt_stdio_output@@@2@@__crt_stdio_output@@AEAA_NXZ 000000018002e6d8     libucrt:output.obj
 0002:0000b6d8       $unwind$_DllMainCRTStartup 000000018002e6d8     LIBCMT:dll_dllmain.obj
 0002:0000b6e8       $unwind$?assign@?$basic_string@DU?$char_traits@D@std@@V?$allocator@D@2@@std@@QEAAAEAV12@AEBV12@_K1@Z 000000018002e6e8     serialport.obj
 0002:0000b6e8       $unwind$_free_osfhnd       000000018002e6e8     libucrt:osfinfo.obj
 0002:0000b6e8       $unwind$??$_Insert@AEBH@?$list@HV?$allocator@H@std@@@std@@QEAAXV?$_List_unchecked_const_iterator@V?$_List_val@U?$_List_simple_types@H@std@@@std@@U_Iterator_base0@2@@1@AEBH@Z 000000018002e6e8     serialport_win.obj
 0002:0000b6e8       $unwind$?initialize_stdio_handles_nolock@@YAXXZ 000000018002e6e8     libucrt:ioinit.obj
 0002:0000b6e8       $unwind$__std_exception_copy 000000018002e6e8     libvcruntime:std_exception.obj
 0002:0000b6fc       $unwind$strncpy_s          000000018002e6fc     libucrt:strncpy_s.obj
 0002:0000b6fc       $unwind$strtok             000000018002e6fc     libucrt:strtok.obj
 0002:0000b6fc       $unwind$__acrt_FlsAlloc    000000018002e6fc     libucrt:winapi_thunks.obj
 0002:0000b6fc       $unwind$__acrt_FlsFree     000000018002e6fc     libucrt:winapi_thunks.obj
 0002:0000b6fc       $unwind$?type_case_c_tchar@?$output_processor@DV?$string_output_adapter@D@__crt_stdio_output@@V?$format_validation_base@DV?$string_output_adapter@D@__crt_stdio_output@@@2@@__crt_stdio_output@@AEAA_ND@Z 000000018002e6fc     libucrt:output.obj
 0002:0000b6fc       $unwind$wcsncat_s          000000018002e6fc     libucrt:wcsncat_s.obj
 0002:0000b6fc       $unwind$??$common_xtox@K_W@@YAHKQEA_W_KI_N@Z 000000018002e6fc     libucrt:xtoa.obj
 0002:0000b6fc       $unwind$__acrt_FlsGetValue 000000018002e6fc     libucrt:winapi_thunks.obj
 0002:0000b6fc       $unwind$__vcrt_FlsGetValue 000000018002e6fc     libvcruntime:winapi_downlevel.obj
 0002:0000b6fc       $unwind$__vcrt_FlsFree     000000018002e6fc     libvcruntime:winapi_downlevel.obj
 0002:0000b6fc       $unwind$__acrt_get_parent_window 000000018002e6fc     libucrt:winapi_thunks.obj
 0002:0000b6fc       $unwind$__acrt_stdio_begin_temporary_buffering_nolock 000000018002e6fc     libucrt:_sftbuf.obj
 0002:0000b6fc       $unwind$?ExFilterRethrow@@YAHPEAU_EXCEPTION_POINTERS@@PEAUEHExceptionRecord@@PEAH@Z 000000018002e6fc     libvcruntime:frame.obj
 0002:0000b6fc       $unwind$__vcrt_EventUnregister 000000018002e6fc     libvcruntime:winapi_downlevel.obj
 0002:0000b6fc       $unwind$??_Gexception@std@@UEAAPEAXI@Z 000000018002e6fc     libcpmt:xthrow.obj
 0002:0000b6fc       $unwind$??_Gbad_alloc@std@@UEAAPEAXI@Z 000000018002e6fc     libcpmt:xthrow.obj
 0002:0000b6fc       $unwind$??_Gbad_exception@std@@UEAAPEAXI@Z 000000018002e6fc     libvcruntime:frame.obj
 0002:0000b6fc       $unwind$_fclose_nolock     000000018002e6fc     libucrt:fclose.obj
 0002:0000b6fc       $unwind$_updatetlocinfoEx_nolock 000000018002e6fc     libucrt:locale_refcounting.obj
 0002:0000b6fc       $unwind$_FindAndUnlinkFrame 000000018002e6fc     libvcruntime:trnsctrl.obj
 0002:0000b6fc       $unwind$__acrt_uninitialize_lowio 000000018002e6fc     libucrt:ioinit.obj
 0002:0000b6fc       $unwind$__acrt_invoke_user_matherr 000000018002e6fc     libucrt:matherr.obj
 0002:0000b6fc       $unwind$??_Glogic_error@std@@UEAAPEAXI@Z 000000018002e6fc     libcpmt:xthrow.obj
 0002:0000b6fc       $unwind$?try_cor_exit_process@@YAXI@Z 000000018002e6fc     libucrt:exit.obj
 0002:0000b6fc       $unwind$??_Glength_error@std@@UEAAPEAXI@Z 000000018002e6fc     libcpmt:xthrow.obj
 0002:0000b6fc       $unwind$?__SetUnwindTryBlock@@YAXPEA_KPEAU_xDISPATCHER_CONTEXT@@PEBU_s_FuncInfo@@H@Z 000000018002e6fc     libvcruntime:ehstate.obj
 0002:0000b6fc       $unwind$??0_LocaleUpdate@@QEAA@QEAU__crt_locale_pointers@@@Z 000000018002e6fc     libucrt:output.obj
 0002:0000b6fc       $unwind$__vcrt_FlsAlloc    000000018002e6fc     libvcruntime:winapi_downlevel.obj
 0002:0000b6fc       $unwind$__acrt_errno_map_os_error 000000018002e6fc     libucrt:errno.obj
 0002:0000b6fc       $unwind$??_Gout_of_range@std@@UEAAPEAXI@Z 000000018002e6fc     libcpmt:xthrow.obj
 0002:0000b6fc       $unwind$??$common_initialize_environment_nolock@D@@YAHXZ 000000018002e6fc     libucrt:environment_initialization.obj
 0002:0000b6fc       $unwind$?replace_current_thread_locale_nolock@@YAXQEAU__acrt_ptd@@QEAU__crt_locale_data@@@Z 000000018002e6fc     libucrt:per_thread_data.obj
 0002:0000b6fc       $unwind$??_Gbad_array_new_length@std@@UEAAPEAXI@Z 000000018002e6fc     LIBCMT:throw_bad_alloc.obj
 0002:0000b6fc       $unwind$__acrt_getptd      000000018002e6fc     libucrt:per_thread_data.obj
 0002:0000b6fc       $unwind$?internal_isupper_l@@YA_NHQEAU__crt_locale_pointers@@@Z 000000018002e6fc     libucrt:tolower_toupper.obj
 0002:0000b6fc       $unwind$?force_decimal_point@__crt_stdio_output@@YAXPEADQEAU__crt_locale_pointers@@@Z 000000018002e6fc     libucrt:output.obj
 0002:0000b6fc       $unwind$?erase@?$basic_string@DU?$char_traits@D@std@@V?$allocator@D@2@@std@@QEAAAEAV12@_K0@Z 000000018002e6fc     serialport.obj
 0002:0000b6fc       $unwind$_callnewh          000000018002e6fc     libucrt:new_handler.obj
 0002:0000b6fc       $unwind$_realloc_base      000000018002e6fc     libucrt:realloc_base.obj
 0002:0000b6fc       $unwind$_close_nolock      000000018002e6fc     libucrt:close.obj
 0002:0000b708       $unwind$?_Copy@?$basic_string@DU?$char_traits@D@std@@V?$allocator@D@2@@std@@QEAAX_K0@Z 000000018002e708     serialport.obj
 0002:0000b71c       $unwind$??$New@VString@v8@@V?$basic_string@DU?$char_traits@D@std@@V?$allocator@D@2@@std@@@Nan@@YA?AV?$MaybeLocal@VString@v8@@@v8@@V?$basic_string@DU?$char_traits@D@std@@V?$allocator@D@2@@std@@@Z 000000018002e71c     serialport.obj
 0002:0000b738       $stateUnwindMap$??$New@VString@v8@@V?$basic_string@DU?$char_traits@D@std@@V?$allocator@D@2@@std@@@Nan@@YA?AV?$MaybeLocal@VString@v8@@@v8@@V?$basic_string@DU?$char_traits@D@std@@V?$allocator@D@2@@std@@@Z 000000018002e738     serialport.obj
 0002:0000b740       $ip2state$??$New@VString@v8@@V?$basic_string@DU?$char_traits@D@std@@V?$allocator@D@2@@std@@@Nan@@YA?AV?$MaybeLocal@VString@v8@@@v8@@V?$basic_string@DU?$char_traits@D@std@@V?$allocator@D@2@@std@@@Z 000000018002e740     serialport.obj
 0002:0000b758       $unwind$??$SetMethodAux@V?$Local@VObject@v8@@@v8@@@imp@Nan@@YAXV?$Local@VObject@v8@@@v8@@V?$Local@VString@v8@@@3@V?$Local@VFunctionTemplate@v8@@@3@ZZ 000000018002e758     serialport.obj
 0002:0000b760       $unwind$_snprintf_s        000000018002e760     serialport_win.obj
 0002:0000b770       $unwind$?Error@Nan@@YA?AV?$Local@VValue@v8@@@v8@@PEBD@Z 000000018002e770     serialport_win.obj
 0002:0000b788       $ip2state$?Error@Nan@@YA?AV?$Local@VValue@v8@@@v8@@PEBD@Z 000000018002e788     serialport_win.obj
 0002:0000b7a0       $unwind$??__Eg_closingHandles@@YAXXZ 000000018002e7a0     serialport_win.obj
 0002:0000b7b0       $stateUnwindMap$??__Eg_closingHandles@@YAXXZ 000000018002e7b0     serialport_win.obj
 0002:0000b7c0       $ip2state$??__Eg_closingHandles@@YAXXZ 000000018002e7c0     serialport_win.obj
 0002:0000b7c8       $unwind$??__Fg_closingHandles@@YAXXZ 000000018002e7c8     serialport_win.obj
 0002:0000b7d8       $stateUnwindMap$??__Fg_closingHandles@@YAXXZ 000000018002e7d8     serialport_win.obj
 0002:0000b7e8       $ip2state$??__Fg_closingHandles@@YAXXZ 000000018002e7e8     serialport_win.obj
 0002:0000b800       $unwind$_invalid_parameter_noinfo_noreturn 000000018002e800     libucrt:invalid_parameter.obj
 0002:0000b800       $unwind$atoi               000000018002e800     libucrt:atox.obj
 0002:0000b800       $unwind$atol               000000018002e800     libucrt:atox.obj
 0002:0000b800       $unwind$wctomb_s           000000018002e800     libucrt:wctomb.obj
 0002:0000b800       $unwind$_log10_special     000000018002e800     libucrt:log_special.obj
 0002:0000b800       $unwind$_itow_s            000000018002e800     libucrt:xtoa.obj
 0002:0000b800       $unwind$_invalid_parameter_noinfo 000000018002e800     libucrt:invalid_parameter.obj
 0002:0000b800       $unwind$?ErrorCodeToString@@YAXPEBDHPEAD@Z 000000018002e800     serialport_win.obj
 0002:0000b808       $unwind$?EIO_Open@@YAXPEAUuv_work_s@@@Z 000000018002e808     serialport_win.obj
 0002:0000b828       $chain$0$?EIO_Open@@YAXPEAUuv_work_s@@@Z 000000018002e828     serialport_win.obj
 0002:0000b83c       $chain$1$?EIO_Open@@YAXPEAUuv_work_s@@@Z 000000018002e83c     serialport_win.obj
 0002:0000b84c       $unwind$?EIO_Update@@YAXPEAUuv_work_s@@@Z 000000018002e84c     serialport_win.obj
 0002:0000b860       $unwind$?EIO_WatchPort@@YAXPEAUuv_work_s@@@Z 000000018002e860     serialport_win.obj
 0002:0000b870       $unwind$?IsClosingHandle@@YA_NH@Z 000000018002e870     serialport_win.obj
 0002:0000b878       $chain$0$?IsClosingHandle@@YA_NH@Z 000000018002e878     serialport_win.obj
 0002:0000b88c       $chain$1$?IsClosingHandle@@YA_NH@Z 000000018002e88c     serialport_win.obj
 0002:0000b8a0       $chain$2$?IsClosingHandle@@YA_NH@Z 000000018002e8a0     serialport_win.obj
 0002:0000b8b0       $chain$4$?IsClosingHandle@@YA_NH@Z 000000018002e8b0     serialport_win.obj
 0002:0000b8c8       $unwind$?DisposeWatchPortCallbacks@@YAXPEAUWatchPortBaton@@@Z 000000018002e8c8     serialport_win.obj
 0002:0000b8dc       $stateUnwindMap$?DisposeWatchPortCallbacks@@YAXPEAUWatchPortBaton@@@Z 000000018002e8dc     serialport_win.obj
 0002:0000b910       $ip2state$?DisposeWatchPortCallbacks@@YAXPEAUWatchPortBaton@@@Z 000000018002e910     serialport_win.obj
 0002:0000b948       $unwind$?EIO_AfterWatchPort@@YAXPEAUuv_work_s@@@Z 000000018002e948     serialport_win.obj
 0002:0000b960       $ip2state$?EIO_AfterWatchPort@@YAXPEAUuv_work_s@@@Z 000000018002e960     serialport_win.obj
 0002:0000b978       $unwind$?AfterOpenSuccess@@YAXHPEAVCallback@Nan@@00@Z 000000018002e978     serialport_win.obj
 0002:0000b990       $unwind$?EIO_Write@@YAXPEAUuv_work_s@@@Z 000000018002e990     serialport_win.obj
 0002:0000b990       $unwind$?type_case_a@?$output_processor@DV?$string_output_adapter@D@__crt_stdio_output@@V?$format_validation_base@DV?$string_output_adapter@D@__crt_stdio_output@@@2@@__crt_stdio_output@@AEAA_NXZ 000000018002e990     libucrt:output.obj
 0002:0000b99c       $unwind$?EIO_List@@YAXPEAUuv_work_s@@@Z 000000018002e99c     serialport_win.obj
 0002:0000b9c8       $stateUnwindMap$?EIO_List@@YAXPEAUuv_work_s@@@Z 000000018002e9c8     serialport_win.obj
 0002:0000ba60       $ip2state$?EIO_List@@YAXPEAUuv_work_s@@@Z 000000018002ea60     serialport_win.obj
 0002:0000bb18       $unwind$??1?$_List_buy@HV?$allocator@H@std@@@std@@QEAA@XZ 000000018002eb18     serialport_win.obj
 0002:0000bb28       $stateUnwindMap$??1?$_List_buy@HV?$allocator@H@std@@@std@@QEAA@XZ 000000018002eb28     serialport_win.obj
 0002:0000bb30       $ip2state$??1?$_List_buy@HV?$allocator@H@std@@@std@@QEAA@XZ 000000018002eb30     serialport_win.obj
 0002:0000bb38       $unwind$??$_Insert@AEBQEAUListResultItem@@@?$list@PEAUListResultItem@@V?$allocator@PEAUListResultItem@@@std@@@std@@QEAAXV?$_List_unchecked_const_iterator@V?$_List_val@U?$_List_simple_types@PEAUListResultItem@@@std@@@std@@U_Iterator_base0@2@@1@AEBQEAUListResultItem@@@Z 000000018002eb38     serialport_win.obj
 0002:0000bb50       $unwind$_snwprintf         000000018002eb50     disphelper.obj
 0002:0000bb50       $unwind$swprintf           000000018002eb50     libucrt:assert.obj
 0002:0000bb60       $unwind$_mbsdec_l          000000018002eb60     libucrt:mbsdec.obj
 0002:0000bb60       $unwind$dhGetObjectEx      000000018002eb60     disphelper.obj
 0002:0000bb6c       $unwind$dhGetObject        000000018002eb6c     disphelper.obj
 0002:0000bb6c       $unwind$?getSystemCP@@YAHH@Z 000000018002eb6c     libucrt:mbctype.obj
 0002:0000bb6c       $unwind$_isleadbyte_l      000000018002eb6c     libucrt:_wctype.obj
 0002:0000bb6c       $unwind$isdigit            000000018002eb6c     libucrt:_ctype.obj
 0002:0000bb6c       $unwind$?_TlgWrite@__vcrt_trace_logging_provider@@YAJPEBU_TlgProvider_t@1@PEFBXPEBU_GUID@@2IPEAU_EVENT_DATA_DESCRIPTOR@@@Z 000000018002eb6c     libvcruntime:telemetry.obj
 0002:0000bb74       $unwind$dhGetValue         000000018002eb74     disphelper.obj
 0002:0000bb80       $unwind$dhInvokeArray      000000018002eb80     disphelper.obj
 0002:0000bb98       $unwind$dhGetValueV        000000018002eb98     disphelper.obj
 0002:0000bbb0       $chain$0$dhGetValueV       000000018002ebb0     disphelper.obj
 0002:0000bbc4       $chain$1$dhGetValueV       000000018002ebc4     disphelper.obj
 0002:0000bbc4       $chain$3$dhGetValueV       000000018002ebc4     disphelper.obj
 0002:0000bbd4       $chain$2$dhGetValueV       000000018002ebd4     disphelper.obj
 0002:0000bbe8       $unwind$dhInvokeV          000000018002ebe8     disphelper.obj
 0002:0000bc04       $chain$0$dhInvokeV         000000018002ec04     disphelper.obj
 0002:0000bc18       $chain$1$dhInvokeV         000000018002ec18     disphelper.obj
 0002:0000bc28       $unwind$TraverseSubObjects 000000018002ec28     disphelper.obj
 0002:0000bc44       $unwind$InternalInvokeV    000000018002ec44     disphelper.obj
 0002:0000bc64       $unwind$CreateArgumentArray 000000018002ec64     disphelper.obj
 0002:0000bc80       $unwind$ExtractArgument    000000018002ec80     disphelper.obj
 0002:0000bc90       $chain$0$ExtractArgument   000000018002ec90     disphelper.obj
 0002:0000bca4       $chain$1$ExtractArgument   000000018002eca4     disphelper.obj
 0002:0000bcb4       $unwind$dhEnumBeginV       000000018002ecb4     disphelper.obj
 0002:0000bccc       $unwind$dhEnumNextObject   000000018002eccc     disphelper.obj
 0002:0000bce8       $unwind$dhEnumBegin        000000018002ece8     disphelper.obj
 0002:0000bcf4       $unwind$ConvertFileTimeToVariantTime 000000018002ecf4     disphelper.obj
 0002:0000bd00       $unwind$ConvertVariantTimeToFileTime 000000018002ed00     disphelper.obj
 0002:0000bd0c       $unwind$ConvertVariantTimeToSystemTime 000000018002ed0c     disphelper.obj
 0002:0000bd18       $unwind$ConvertTimeTToVariantTime 000000018002ed18     disphelper.obj
 0002:0000bd28       $chain$0$ConvertTimeTToVariantTime 000000018002ed28     disphelper.obj
 0002:0000bd3c       $chain$1$ConvertTimeTToVariantTime 000000018002ed3c     disphelper.obj
 0002:0000bd4c       $unwind$ConvertAnsiStrToBStr 000000018002ed4c     disphelper.obj
 0002:0000bd58       $chain$0$ConvertAnsiStrToBStr 000000018002ed58     disphelper.obj
 0002:0000bd6c       $chain$2$ConvertAnsiStrToBStr 000000018002ed6c     disphelper.obj
 0002:0000bd6c       $chain$4$ConvertAnsiStrToBStr 000000018002ed6c     disphelper.obj
 0002:0000bd80       $unwind$ConvertBStrToAnsiStr 000000018002ed80     disphelper.obj
 0002:0000bd8c       $chain$0$ConvertBStrToAnsiStr 000000018002ed8c     disphelper.obj
 0002:0000bda0       $chain$3$ConvertBStrToAnsiStr 000000018002eda0     disphelper.obj
 0002:0000bdb8       $unwind$dhExitEx           000000018002edb8     disphelper.obj
 0002:0000bde0       $unwind$dhFormatExceptionW 000000018002ede0     disphelper.obj
 0002:0000bdf8       $chain$1$dhFormatExceptionW 000000018002edf8     disphelper.obj
 0002:0000be10       $chain$2$dhFormatExceptionW 000000018002ee10     disphelper.obj
 0002:0000be20       $unwind$??1CAutoHeapAlloc@@QEAA@XZ 000000018002ee20     enumser.obj
 0002:0000be30       $ip2state$??1CAutoHeapAlloc@@QEAA@XZ 000000018002ee30     enumser.obj
 0002:0000be38       $unwind$?UsingQueryDosDevice@CEnumerateSerial@@SAHAEAV?$vector@IV?$allocator@I@std@@@std@@@Z 000000018002ee38     enumser.obj
 0002:0000be64       $stateUnwindMap$?UsingQueryDosDevice@CEnumerateSerial@@SAHAEAV?$vector@IV?$allocator@I@std@@@std@@@Z 000000018002ee64     enumser.obj
 0002:0000be70       $ip2state$?UsingQueryDosDevice@CEnumerateSerial@@SAHAEAV?$vector@IV?$allocator@I@std@@@std@@@Z 000000018002ee70     enumser.obj
 0002:0000be88       $unwind$__vcrt_initialize_ptd 000000018002ee88     libvcruntime:per_thread_data.obj
 0002:0000be88       $unwind$_statfp            000000018002ee88     libucrt:fpctrl.obj
 0002:0000be88       $unwind$__vcrt_uninitialize_ptd 000000018002ee88     libvcruntime:per_thread_data.obj
 0002:0000be88       $unwind$__vcrt_thread_detach 000000018002ee88     libvcruntime:initialization.obj
 0002:0000be88       $unwind$__vcrt_getptd      000000018002ee88     libvcruntime:per_thread_data.obj
 0002:0000be88       $unwind$__doserrno         000000018002ee88     libucrt:errno.obj
 0002:0000be88       $unwind$__vcrt_thread_attach 000000018002ee88     libvcruntime:initialization.obj
 0002:0000be88       $unwind$_errno             000000018002ee88     libucrt:errno.obj
 0002:0000be88       $unwind$__vcrt_uninitialize_critical 000000018002ee88     libvcruntime:initialization.obj
 0002:0000be88       $unwind$__dcrt_uninitialize_environments_nolock 000000018002ee88     libucrt:environment_initialization.obj
 0002:0000be88       $unwind$__vcrt_freefls     000000018002ee88     libvcruntime:per_thread_data.obj
 0002:0000be88       $unwind$??$uninitialize_environment_internal@_W@@YAXAEAPEAPEA_W@Z 000000018002ee88     libucrt:environment_initialization.obj
 0002:0000be88       $unwind$__vcrt_initialize  000000018002ee88     libvcruntime:initialization.obj
 0002:0000be88       $unwind$__acrt_DownlevelLocaleNameToLCID 000000018002ee88     libucrt:lcidtoname_downlevel.obj
 0002:0000be88       $unwind$_getfpcontrolword  000000018002ee88     libucrt:_fenvutils.obj
 0002:0000be88       $unwind$_msize             000000018002ee88     libucrt:msize.obj
 0002:0000be88       $unwind$?dllmain_crt_dispatch@@YAHQEAUHINSTANCE__@@KQEAX@Z 000000018002ee88     LIBCMT:dll_dllmain.obj
 0002:0000be88       $unwind$_getfpstatusword   000000018002ee88     libucrt:_fenvutils.obj
 0002:0000be88       $unwind$_get_dstbias       000000018002ee88     libucrt:timeset.obj
 0002:0000be88       $unwind$__GSHandlerCheck   000000018002ee88     LIBCMT:_gshandler_.obj
 0002:0000be88       $unwind$initialize_c       000000018002ee88     libucrt:initialization.obj
 0002:0000be88       $unwind$__acrt_release_locale_ref 000000018002ee88     libucrt:locale_refcounting.obj
 0002:0000be88       $unwind$__acrt_initialize_heap 000000018002ee88     libucrt:heap_handle.obj
 0002:0000be88       $unwind$?state_case_size@?$output_processor@_WV?$string_output_adapter@_W@__crt_stdio_output@@V?$standard_base@_WV?$string_output_adapter@_W@__crt_stdio_output@@@2@@__crt_stdio_output@@AEAA_NXZ 000000018002ee88     libucrt:output.obj
 0002:0000be88       $unwind$_set_error_mode    000000018002ee88     libucrt:set_error_mode.obj
 0002:0000be88       $unwind$atexit             000000018002ee88     LIBCMT:utility.obj
 0002:0000be88       $unwind$__acrt_initialize_multibyte 000000018002ee88     libucrt:mbctype.obj
 0002:0000be88       $unwind$_strnicmp          000000018002ee88     libucrt:strnicmp.obj
 0002:0000be88       $unwind$?state_case_size@?$output_processor@_WV?$stream_output_adapter@_W@__crt_stdio_output@@V?$standard_base@_WV?$stream_output_adapter@_W@__crt_stdio_output@@@2@@__crt_stdio_output@@AEAA_NXZ 000000018002ee88     libucrt:output.obj
 0002:0000be88       $unwind$__acrt_uninitialize_ptd 000000018002ee88     libucrt:per_thread_data.obj
 0002:0000be88       $unwind$uninitialize_environment 000000018002ee88     libucrt:initialization.obj
 0002:0000be88       $unwind$__acrt_initialize_ptd 000000018002ee88     libucrt:per_thread_data.obj
 0002:0000be88       $unwind$__report_rangecheckfailure 000000018002ee88     LIBCMT:gs_report.obj
 0002:0000be88       $unwind$_set_errno_from_matherr 000000018002ee88     libucrt:fpexcept.obj
 0002:0000be88       $unwind$__scrt_initialize_default_local_stdio_options 000000018002ee88     LIBCMT:default_local_stdio_options.obj
 0002:0000be88       $unwind$__scrt_acquire_startup_lock 000000018002ee88     LIBCMT:utility.obj
 0002:0000be88       $unwind$?initialize_multibyte@@YAHXZ 000000018002ee88     libucrt:multibyte_initializer.obj
 0002:0000be88       $unwind$tolower            000000018002ee88     libucrt:tolower_toupper.obj
 0002:0000be88       $unwind$_get_timezone      000000018002ee88     libucrt:timeset.obj
 0002:0000be88       $unwind$_GetThrowImageBase 000000018002ee88     libvcruntime:trnsctrl.obj
 0002:0000be88       $unwind$_GetImageBase      000000018002ee88     libvcruntime:trnsctrl.obj
 0002:0000be88       $unwind$?state_case_normal_tchar@?$output_processor@DV?$string_output_adapter@D@__crt_stdio_output@@V?$format_validation_base@DV?$string_output_adapter@D@__crt_stdio_output@@@2@@__crt_stdio_output@@AEAA_ND@Z 000000018002ee88     libucrt:output.obj
 0002:0000be88       $unwind$_fileno            000000018002ee88     libucrt:fileno.obj
 0002:0000be88       $unwind$_isatty            000000018002ee88     libucrt:isatty.obj
 0002:0000be88       $unwind$??$uninitialize_environment_internal@D@@YAXAEAPEAPEAD@Z 000000018002ee88     libucrt:environment_initialization.obj
 0002:0000be88       $unwind$___lc_codepage_func 000000018002ee88     libucrt:initctype.obj
 0002:0000be88       $unwind$__scrt_dllmain_before_initialize_c 000000018002ee88     LIBCMT:utility.obj
 0002:0000be88       $unwind$_invoke_watson     000000018002ee88     libucrt:invalid_parameter.obj
 0002:0000be88       $unwind$__scrt_dllmain_after_initialize_c 000000018002ee88     LIBCMT:utility.obj
 0002:0000be88       $unwind$_get_osfhandle     000000018002ee88     libucrt:osfinfo.obj
 0002:0000be88       $unwind$__scrt_dllmain_uninitialize_c 000000018002ee88     LIBCMT:utility.obj
 0002:0000be88       $unwind$__FrameUnwindFilter 000000018002ee88     libvcruntime:frame.obj
 0002:0000be88       $unwind$?state_case_size@?$output_processor@DV?$string_output_adapter@D@__crt_stdio_output@@V?$format_validation_base@DV?$string_output_adapter@D@__crt_stdio_output@@@2@@__crt_stdio_output@@AEAA_NXZ 000000018002ee88     libucrt:output.obj
 0002:0000be88       $unwind$__acrt_thread_detach 000000018002ee88     libucrt:initialization.obj
 0002:0000be88       $unwind$__acrt_uninitialize_critical 000000018002ee88     libucrt:initialization.obj
 0002:0000be88       $unwind$?__GetCurrentState@@YAHPEA_KPEAU_xDISPATCHER_CONTEXT@@PEBU_s_FuncInfo@@@Z 000000018002ee88     libvcruntime:ehstate.obj
 0002:0000be88       $unwind$_stricmp           000000018002ee88     libucrt:stricmp.obj
 0002:0000be88       $unwind$__pctype_func      000000018002ee88     libucrt:ctype.obj
 0002:0000be88       $unwind$__vcrt_uninitialize_telemetry_provider 000000018002ee88     libvcruntime:telemetry.obj
 0002:0000be88       $unwind$?_Reserve@?$vector@IV?$allocator@I@std@@@std@@IEAAX_K@Z 000000018002ee88     enumser.obj
 0002:0000be88       $unwind$__acrt_thread_attach 000000018002ee88     libucrt:initialization.obj
 0002:0000be88       $unwind$__scrt_dllmain_uninitialize_critical 000000018002ee88     LIBCMT:utility.obj
 0002:0000be88       $unwind$abort              000000018002ee88     libucrt:abort.obj
 0002:0000be88       $unwind$_get_daylight      000000018002ee88     libucrt:timeset.obj
 0002:0000be88       $unwind$__dcrt_terminate_console_output 000000018002ee88     libucrt:initcon.obj
 0002:0000be88       $unwind$__scrt_dllmain_crt_thread_detach 000000018002ee88     LIBCMT:utility.obj
 0002:0000be88       $unwind$__acrt_initialize_command_line 000000018002ee88     libucrt:argv_data.obj
 0002:0000be88       $unwind$__scrt_dllmain_crt_thread_attach 000000018002ee88     LIBCMT:utility.obj
 0002:0000be90       $unwind$?_Reallocate@?$vector@IV?$allocator@I@std@@@std@@IEAAX_K@Z 000000018002ee90     enumser.obj
 0002:0000bea4       $chain$0$?_Reallocate@?$vector@IV?$allocator@I@std@@@std@@IEAAX_K@Z 000000018002eea4     enumser.obj
 0002:0000beb8       $chain$1$?_Reallocate@?$vector@IV?$allocator@I@std@@@std@@IEAAX_K@Z 000000018002eeb8     enumser.obj
 0002:0000beb8       $chain$5$?_Reallocate@?$vector@IV?$allocator@I@std@@@std@@IEAAX_K@Z 000000018002eeb8     enumser.obj
 0002:0000bec8       $chain$6$?_Reallocate@?$vector@IV?$allocator@I@std@@@std@@IEAAX_K@Z 000000018002eec8     enumser.obj
 0002:0000bec8       $chain$4$?_Reallocate@?$vector@IV?$allocator@I@std@@@std@@IEAAX_K@Z 000000018002eec8     enumser.obj
 0002:0000bec8       $chain$2$?_Reallocate@?$vector@IV?$allocator@I@std@@@std@@IEAAX_K@Z 000000018002eec8     enumser.obj
 0002:0000bedc       $unwind$?_Xbad_alloc@std@@YAXXZ 000000018002eedc     libcpmt:xthrow.obj
 0002:0000bedc       $unwind$?__scrt_throw_std_bad_alloc@@YAXXZ 000000018002eedc     LIBCMT:throw_bad_alloc.obj
 0002:0000bedc       $unwind$?_Xout_of_range@std@@YAXPEBD@Z 000000018002eedc     libcpmt:xthrow.obj
 0002:0000bedc       $unwind$?__scrt_throw_std_bad_array_new_length@@YAXXZ 000000018002eedc     LIBCMT:throw_bad_alloc.obj
 0002:0000bedc       $unwind$__dcrt_lowio_initialize_console_output 000000018002eedc     libucrt:initcon.obj
 0002:0000bedc       $unwind$?_Xlength_error@std@@YAXPEBD@Z 000000018002eedc     libcpmt:xthrow.obj
 0002:0000bedc       $unwind$_raise_exc         000000018002eedc     libucrt:fpexcept.obj
 0002:0000bee8       $xdatasym                  000000018002eee8     LIBCMT:_amdsecgs_.obj
 0002:0000beec       $unwind$__scrt_is_nonwritable_in_current_image 000000018002eeec     LIBCMT:utility.obj
 0002:0000bf0c       $unwind$__scrt_is_nonwritable_in_current_image$filt$0 000000018002ef0c     LIBCMT:utility.obj
 0002:0000bf14       $unwind$__scrt_initialize_onexit_tables 000000018002ef14     LIBCMT:utility.obj
 0002:0000bf20       $unwind$?dllmain_crt_process_attach@@YAHQEAUHINSTANCE__@@QEAX@Z 000000018002ef20     LIBCMT:dll_dllmain.obj
 0002:0000bf4c       $unwind$?dllmain_crt_process_detach@@YAH_N@Z 000000018002ef4c     LIBCMT:dll_dllmain.obj
 0002:0000bf74       $unwind$?dllmain_dispatch@@YAHQEAUHINSTANCE__@@KQEAX@Z 000000018002ef74     LIBCMT:dll_dllmain.obj
 0002:0000bf9c       $unwind$?fin$0@?0???$common_getenv_s@D@@YAHQEA_KQEAD_KQEBD@Z@4HA 000000018002ef9c     libucrt:getenv.obj
 0002:0000bf9c       $unwind$?filt$0@?0??dllmain_dispatch@@YAHQEAUHINSTANCE__@@KQEAX@Z@4HA 000000018002ef9c     LIBCMT:dll_dllmain.obj
 0002:0000bfa4       $unwind$__report_securityfailure 000000018002efa4     LIBCMT:gs_report.obj
 0002:0000bfac       $unwind$capture_current_context 000000018002efac     LIBCMT:gs_report.obj
 0002:0000bfb8       $unwind$capture_previous_context 000000018002efb8     LIBCMT:gs_report.obj
 0002:0000bfc4       $unwind$__isa_available_init 000000018002efc4     LIBCMT:_cpu_disp_.obj
 0002:0000bfd0       $unwind$__scrt_fastfail    000000018002efd0     LIBCMT:utility_desktop.obj
 0002:0000bfe0       $unwind$__security_init_cookie 000000018002efe0     LIBCMT:gs_support.obj
 0002:0000bff0       $xdatasym                  000000018002eff0     LIBCMT:_guard_dispatch_.obj
 0002:0000bff8       $xdatasym                  000000018002eff8     libvcruntime:memcpy.obj
 0002:0000bffc       $unwind$strstr             000000018002effc     libvcruntime:strstr.obj
 0002:0000c008       $unwind$_CxxThrowException 000000018002f008     libvcruntime:throw.obj
 0002:0000c01c       $unwind$__InternalCxxFrameHandler 000000018002f01c     libvcruntime:frame.obj
 0002:0000c01c       $unwind$__C_specific_handler 000000018002f01c     libvcruntime:_chandler_.obj
 0002:0000c038       $unwind$__telemetry_main_invoke_trigger 000000018002f038     libvcruntime:telemetry.obj
 0002:0000c038       $unwind$__telemetry_main_return_trigger 000000018002f038     libvcruntime:telemetry.obj
 0002:0000c050       $unwind$?_TlgEnableCallback@__vcrt_trace_logging_provider@@YAXPEBU_GUID@@KE_K1PEAU_EVENT_FILTER_DESCRIPTOR@@PEAX@Z 000000018002f050     libvcruntime:telemetry.obj
 0002:0000c070       $xdatasym                  000000018002f070     libvcruntime:memset.obj
 0002:0000c074       $unwind$__vcrt_uninitialize_winapi_thunks 000000018002f074     libvcruntime:winapi_downlevel.obj
 0002:0000c074       $unwind$__acrt_stdio_end_temporary_buffering_nolock 000000018002f074     libucrt:_sftbuf.obj
 0002:0000c07c       $unwind$?try_get_function@@YAPEAXW4function_id@?A0x63058377@@QEBDQEBW4module_id@2@2@Z 000000018002f07c     libucrt:winapi_thunks.obj
 0002:0000c07c       $unwind$?write_string@?$string_output_adapter@_W@__crt_stdio_output@@QEBAXQEB_WHQEAH1@Z 000000018002f07c     libucrt:output.obj
 0002:0000c07c       $unwind$?try_get_function@@YAPEAXW4function_id@?A0x49c8dc86@@QEBDQEBW4module_id@2@2@Z 000000018002f07c     libvcruntime:winapi_downlevel.obj
 0002:0000c07c       $unwind$?IsInExceptionSpec@@YAEPEAUEHExceptionRecord@@PEBU_s_ESTypeList@@@Z 000000018002f07c     libvcruntime:frame.obj
 0002:0000c098       $xdatasym                  000000018002f098     libvcruntime:_jmpuwind_.obj
 0002:0000c0ac       $unwind$fwprintf           000000018002f0ac     libucrt:assert.obj
 0002:0000c0b8       $unwind$??$common_assert_to_stderr@_W@@YAXQEB_W0I@Z 000000018002f0b8     libucrt:assert.obj
 0002:0000c0d4       $unwind$??$common_assert_to_message_box@_W@@YAXQEB_W0IQEAX@Z 000000018002f0d4     libucrt:assert.obj
 0002:0000c0f0       $unwind$??$common_assert_to_message_box_build_string@_W@@YAXQEA_W_KQEB_W2IQEAX@Z 000000018002f0f0     libucrt:assert.obj
 0002:0000c110       $unwind$__acrt_call_reportfault 000000018002f110     libucrt:invalid_parameter.obj
 0002:0000c130       $unwind$__vcrt_EventWriteTransfer 000000018002f130     libvcruntime:winapi_downlevel.obj
 0002:0000c130       $unwind$_invalid_parameter 000000018002f130     libucrt:invalid_parameter.obj
 0002:0000c148       $unwind$__stdio_common_vfwprintf 000000018002f148     libucrt:output.obj
 0002:0000c150       $unwind$__stdio_common_vswprintf 000000018002f150     libucrt:output.obj
 0002:0000c174       $unwind$__stdio_common_vsnprintf_s 000000018002f174     libucrt:output.obj
 0002:0000c18c       $unwind$?write_string@?$stream_output_adapter@_W@__crt_stdio_output@@QEBAXQEB_WHQEAH1@Z 000000018002f18c     libucrt:output.obj
 0002:0000c1a4       $unwind$?process@?$output_processor@_WV?$stream_output_adapter@_W@__crt_stdio_output@@V?$standard_base@_WV?$stream_output_adapter@_W@__crt_stdio_output@@@2@@__crt_stdio_output@@QEAAHXZ 000000018002f1a4     libucrt:output.obj
 0002:0000c1bc       $unwind$?type_case_a@?$output_processor@_WV?$string_output_adapter@_W@__crt_stdio_output@@V?$standard_base@_WV?$string_output_adapter@_W@__crt_stdio_output@@@2@@__crt_stdio_output@@AEAA_NXZ 000000018002f1bc     libucrt:output.obj
 0002:0000c1bc       $unwind$?type_case_a@?$output_processor@_WV?$stream_output_adapter@_W@__crt_stdio_output@@V?$standard_base@_WV?$stream_output_adapter@_W@__crt_stdio_output@@@2@@__crt_stdio_output@@AEAA_NXZ 000000018002f1bc     libucrt:output.obj
 0002:0000c1cc       $unwind$?write_stored_string_tchar@?$output_processor@_WV?$stream_output_adapter@_W@__crt_stdio_output@@V?$standard_base@_WV?$stream_output_adapter@_W@__crt_stdio_output@@@2@@__crt_stdio_output@@AEAA_N_W@Z 000000018002f1cc     libucrt:output.obj
 0002:0000c1e0       $unwind$??R<lambda_dd75445284c072d0bd3768540cc698fa>@@QEBAHXZ 000000018002f1e0     libucrt:output.obj
 0002:0000c1fc       $unwind$?parse_int_from_format_string@?$output_processor@_WV?$string_output_adapter@_W@__crt_stdio_output@@V?$standard_base@_WV?$string_output_adapter@_W@__crt_stdio_output@@@2@@__crt_stdio_output@@AEAA_NQEAH@Z 000000018002f1fc     libucrt:output.obj
 0002:0000c1fc       $unwind$?parse_int_from_format_string@?$output_processor@_WV?$stream_output_adapter@_W@__crt_stdio_output@@V?$standard_base@_WV?$stream_output_adapter@_W@__crt_stdio_output@@@2@@__crt_stdio_output@@AEAA_NQEAH@Z 000000018002f1fc     libucrt:output.obj
 0002:0000c210       $unwind$?state_case_type@?$output_processor@_WV?$string_output_adapter@_W@__crt_stdio_output@@V?$standard_base@_WV?$string_output_adapter@_W@__crt_stdio_output@@@2@@__crt_stdio_output@@AEAA_NXZ 000000018002f210     libucrt:output.obj
 0002:0000c210       $unwind$?state_case_type@?$output_processor@_WV?$stream_output_adapter@_W@__crt_stdio_output@@V?$standard_base@_WV?$stream_output_adapter@_W@__crt_stdio_output@@@2@@__crt_stdio_output@@AEAA_NXZ 000000018002f210     libucrt:output.obj
 0002:0000c234       $unwind$?write_stored_string_tchar@?$output_processor@_WV?$string_output_adapter@_W@__crt_stdio_output@@V?$standard_base@_WV?$string_output_adapter@_W@__crt_stdio_output@@@2@@__crt_stdio_output@@AEAA_N_W@Z 000000018002f234     libucrt:output.obj
 0002:0000c234       $unwind$?cvtdate@@YAXW4transition_type@?A0x1b14ceb2@@W4date_type@2@HHHHHHHHH@Z 000000018002f234     libucrt:tzset.obj
 0002:0000c248       $unwind$??$common_vsprintf@Vformat_validation_base@__crt_stdio_output@@D@@YAH_KQEAD0QEBDQEAU__crt_locale_pointers@@1@Z 000000018002f248     libucrt:output.obj
 0002:0000c268       $unwind$??$write_multiple_characters@V?$stream_output_adapter@_W@__crt_stdio_output@@D@__crt_stdio_output@@YAXAEBV?$stream_output_adapter@_W@0@DHQEAH@Z 000000018002f268     libucrt:output.obj
 0002:0000c280       $unwind$??$write_multiple_characters@V?$string_output_adapter@_W@__crt_stdio_output@@D@__crt_stdio_output@@YAXAEBV?$string_output_adapter@_W@0@DHQEAH@Z 000000018002f280     libucrt:output.obj
 0002:0000c28c       $unwind$??$type_case_integer_parse_into_buffer@_K@?$output_processor@DV?$string_output_adapter@D@__crt_stdio_output@@V?$format_validation_base@DV?$string_output_adapter@D@__crt_stdio_output@@@2@@__crt_stdio_output@@AEAAX_KI_N@Z 000000018002f28c     libucrt:output.obj
 0002:0000c28c       $unwind$??$type_case_integer_parse_into_buffer@I@?$output_processor@_WV?$stream_output_adapter@_W@__crt_stdio_output@@V?$standard_base@_WV?$stream_output_adapter@_W@__crt_stdio_output@@@2@@__crt_stdio_output@@AEAAXII_N@Z 000000018002f28c     libucrt:output.obj
 0002:0000c28c       $unwind$??$type_case_integer_parse_into_buffer@_K@?$output_processor@_WV?$stream_output_adapter@_W@__crt_stdio_output@@V?$standard_base@_WV?$stream_output_adapter@_W@__crt_stdio_output@@@2@@__crt_stdio_output@@AEAAX_KI_N@Z 000000018002f28c     libucrt:output.obj
 0002:0000c28c       $unwind$??$write_multiple_characters@V?$string_output_adapter@D@__crt_stdio_output@@D@__crt_stdio_output@@YAXAEBV?$string_output_adapter@D@0@DHQEAH@Z 000000018002f28c     libucrt:output.obj
 0002:0000c28c       $unwind$??$type_case_integer_parse_into_buffer@_K@?$output_processor@_WV?$string_output_adapter@_W@__crt_stdio_output@@V?$standard_base@_WV?$string_output_adapter@_W@__crt_stdio_output@@@2@@__crt_stdio_output@@AEAAX_KI_N@Z 000000018002f28c     libucrt:output.obj
 0002:0000c28c       $unwind$??$type_case_integer_parse_into_buffer@I@?$output_processor@_WV?$string_output_adapter@_W@__crt_stdio_output@@V?$standard_base@_WV?$string_output_adapter@_W@__crt_stdio_output@@@2@@__crt_stdio_output@@AEAAXII_N@Z 000000018002f28c     libucrt:output.obj
 0002:0000c28c       $unwind$??$type_case_integer_parse_into_buffer@I@?$output_processor@DV?$string_output_adapter@D@__crt_stdio_output@@V?$format_validation_base@DV?$string_output_adapter@D@__crt_stdio_output@@@2@@__crt_stdio_output@@AEAAXII_N@Z 000000018002f28c     libucrt:output.obj
 0002:0000c294       $unwind$??$?RV<lambda_7b91131dde12e1c3dfc74ff76b3f2eac>@@AEAV<lambda_dd75445284c072d0bd3768540cc698fa>@@V<lambda_16bc4ecb55b4718497c16bceaea2ceaf>@@@?$__crt_seh_guarded_call@H@@QEAAH$$QEAV<lambda_7b91131dde12e1c3dfc74ff76b3f2eac>@@AEAV<lambda_dd75445284c072d0bd3768540cc698fa>@@$$QEAV<lambda_16bc4ecb55b4718497c16bceaea2ceaf>@@@Z 000000018002f294     libucrt:output.obj
 0002:0000c2b8       $unwind$__vcrt_InitializeCriticalSectionEx 000000018002f2b8     libvcruntime:winapi_downlevel.obj
 0002:0000c2b8       $unwind$?setSBCS@@YAXPEAU__crt_multibyte_data@@@Z 000000018002f2b8     libucrt:mbctype.obj
 0002:0000c2b8       $unwind$?expand_if_necessary@?$argument_list@D@?A0xca0879c4@@AEAAHXZ 000000018002f2b8     libucrt:argv_wildcards.obj
 0002:0000c2b8       $unwind$__acrt_lowio_create_handle_array 000000018002f2b8     libucrt:osfinfo.obj
 0002:0000c2b8       $unwind$?process@?$output_processor@DV?$string_output_adapter@D@__crt_stdio_output@@V?$format_validation_base@DV?$string_output_adapter@D@__crt_stdio_output@@@2@@__crt_stdio_output@@QEAAHXZ 000000018002f2b8     libucrt:output.obj
 0002:0000c2b8       $unwind$__acrt_execute_initializers 000000018002f2b8     libucrt:shared_initialization.obj
 0002:0000c2b8       $unwind$_recalloc_base     000000018002f2b8     libucrt:recalloc.obj
 0002:0000c2b8       $unwind$__acrt_free_locale 000000018002f2b8     libucrt:locale_refcounting.obj
 0002:0000c2b8       $unwind$__scrt_dllmain_exception_filter 000000018002f2b8     LIBCMT:utility.obj
 0002:0000c2b8       $unwind$__acrt_InitializeCriticalSectionEx 000000018002f2b8     libucrt:winapi_thunks.obj
 0002:0000c2b8       $unwind$_wassert           000000018002f2b8     libucrt:assert.obj
 0002:0000c2b8       $unwind$_seh_filter_exe    000000018002f2b8     libucrt:exception_filter.obj
 0002:0000c2b8       $unwind$??$ensure_buffer_is_big_enough@D@formatting_buffer@__crt_stdio_output@@QEAA_N_K@Z 000000018002f2b8     libucrt:output.obj
 0002:0000c2b8       $unwind$?dllmain_raw@@YAHQEAUHINSTANCE__@@KQEAX@Z 000000018002f2b8     LIBCMT:dll_dllmain.obj
 0002:0000c2cc       $unwind$?parse_int_from_format_string@?$output_processor@DV?$string_output_adapter@D@__crt_stdio_output@@V?$format_validation_base@DV?$string_output_adapter@D@__crt_stdio_output@@@2@@__crt_stdio_output@@AEAA_NQEAH@Z 000000018002f2cc     libucrt:output.obj
 0002:0000c2e0       $unwind$?state_case_type@?$output_processor@DV?$string_output_adapter@D@__crt_stdio_output@@V?$format_validation_base@DV?$string_output_adapter@D@__crt_stdio_output@@@2@@__crt_stdio_output@@AEAA_NXZ 000000018002f2e0     libucrt:output.obj
 0002:0000c2f8       $unwind$?write_stored_string_tchar@?$output_processor@DV?$string_output_adapter@D@__crt_stdio_output@@V?$format_validation_base@DV?$string_output_adapter@D@__crt_stdio_output@@@2@@__crt_stdio_output@@AEAA_ND@Z 000000018002f2f8     libucrt:output.obj
 0002:0000c310       $xdatasym                  000000018002f310     libucrt:strncpy.obj
 0002:0000c314       $unwind$??$common_mktime@_J@@YA_JQEAUtm@@_N@Z 000000018002f314     libucrt:mktime.obj
 0002:0000c330       $unwind$??$common_localtime_s@_J@@YAHQEAUtm@@QEB_J@Z 000000018002f330     libucrt:localtime.obj
 0002:0000c33c       $unwind$??$parse_integer@KV?$c_string_character_source@D@__crt_strtox@@@__crt_strtox@@YAKQEAU__crt_locale_pointers@@V?$c_string_character_source@D@0@H_N@Z 000000018002f33c     libucrt:atox.obj
 0002:0000c358       $unwind$??$parse_integer@KV?$c_string_character_source@_W@__crt_strtox@@@__crt_strtox@@YAKQEAU__crt_locale_pointers@@V?$c_string_character_source@_W@0@H_N@Z 000000018002f358     libucrt:atox.obj
 0002:0000c374       $unwind$_query_new_handler 000000018002f374     libucrt:new_handler.obj
 0002:0000c394       $unwind$?common_exit@@YAXHW4_crt_exit_cleanup_mode@@W4_crt_exit_return_mode@@@Z 000000018002f394     libucrt:exit.obj
 0002:0000c3d4       $unwind$_configure_narrow_argv 000000018002f3d4     libucrt:argv_parsing.obj
 0002:0000c3e8       $unwind$??$free_environment@D@@YAXQEAPEAD@Z 000000018002f3e8     libucrt:environment_initialization.obj
 0002:0000c3e8       $unwind$??$free_environment@_W@@YAXQEAPEA_W@Z 000000018002f3e8     libucrt:environment_initialization.obj
 0002:0000c3f4       $unwind$??$create_environment@D@@YAQEAPEADQEAD@Z 000000018002f3f4     libucrt:environment_initialization.obj
 0002:0000c40c       $unwind$??$initialize_environment_by_cloning_nolock@D@@YAHXZ 000000018002f40c     libucrt:environment_initialization.obj
 0002:0000c41c       $unwind$_register_onexit_function 000000018002f41c     libucrt:onexit.obj
 0002:0000c424       $unwind$_execute_onexit_table 000000018002f424     libucrt:onexit.obj
 0002:0000c42c       $unwind$??$?RV<lambda_b8c45f8f788dd370798f47cfe8ac3a86>@@AEAV<lambda_4e60a939b0d047cfe11ddc22648dfba9>@@V<lambda_332c3edc96d0294ec56c57d38c1cdfd5>@@@?$__crt_seh_guarded_call@H@@QEAAH$$QEAV<lambda_b8c45f8f788dd370798f47cfe8ac3a86>@@AEAV<lambda_4e60a939b0d047cfe11ddc22648dfba9>@@$$QEAV<lambda_332c3edc96d0294ec56c57d38c1cdfd5>@@@Z 000000018002f42c     libucrt:onexit.obj
 0002:0000c450       $unwind$??$?RV<lambda_e24bbb7b643b32fcea6fa61b31d4c984>@@AEAV<lambda_275893d493268fdec8709772e3fcec0e>@@V<lambda_9d71df4d7cf3f480f8d633942495c3b0>@@@?$__crt_seh_guarded_call@H@@QEAAH$$QEAV<lambda_e24bbb7b643b32fcea6fa61b31d4c984>@@AEAV<lambda_275893d493268fdec8709772e3fcec0e>@@$$QEAV<lambda_9d71df4d7cf3f480f8d633942495c3b0>@@@Z 000000018002f450     libucrt:onexit.obj
 0002:0000c480       $unwind$terminate          000000018002f480     libucrt:terminate.obj
 0002:0000c4a0       $unwind$__acrt_LCMapStringEx 000000018002f4a0     libucrt:winapi_thunks.obj
 0002:0000c4a0       $unwind$__acrt_show_wide_message_box 000000018002f4a0     libucrt:crtmbox.obj
 0002:0000c4a0       $unwind$__acrt_CompareStringEx 000000018002f4a0     libucrt:winapi_thunks.obj
 0002:0000c4a0       $unwind$_mbtowc_l          000000018002f4a0     libucrt:mbtowc.obj
 0002:0000c4b8       $unwind$fflush             000000018002f4b8     libucrt:fflush.obj
 0002:0000c4dc       $unwind$common_flush_all   000000018002f4dc     libucrt:fflush.obj
 0002:0000c518       $unwind$setvbuf            000000018002f518     libucrt:setvbuf.obj
 0002:0000c520       $unwind$?type_case_c_tchar@?$output_processor@_WV?$stream_output_adapter@_W@__crt_stdio_output@@V?$standard_base@_WV?$stream_output_adapter@_W@__crt_stdio_output@@@2@@__crt_stdio_output@@AEAA_N_W@Z 000000018002f520     libucrt:output.obj
 0002:0000c520       $unwind$?type_case_c_tchar@?$output_processor@_WV?$string_output_adapter@_W@__crt_stdio_output@@V?$standard_base@_WV?$string_output_adapter@_W@__crt_stdio_output@@@2@@__crt_stdio_output@@AEAA_N_W@Z 000000018002f520     libucrt:output.obj
 0002:0000c520       $unwind$??R<lambda_b721fa326cdb32351d23dfa67958c160>@@QEBAHXZ 000000018002f520     libucrt:setvbuf.obj
 0002:0000c530       $unwind$??$?RV<lambda_7a5ef57ff966f610505f1d28a3d40618>@@AEAV<lambda_b721fa326cdb32351d23dfa67958c160>@@V<lambda_5e0fb27672408a07956fe59e48ccb2aa>@@@?$__crt_seh_guarded_call@H@@QEAAH$$QEAV<lambda_7a5ef57ff966f610505f1d28a3d40618>@@AEAV<lambda_b721fa326cdb32351d23dfa67958c160>@@$$QEAV<lambda_5e0fb27672408a07956fe59e48ccb2aa>@@@Z 000000018002f530     libucrt:setvbuf.obj
 0002:0000c554       $unwind$__acrt_get_sigabrt_handler 000000018002f554     libucrt:signal.obj
 0002:0000c55c       $unwind$raise              000000018002f55c     libucrt:signal.obj
 0002:0000c588       $unwind$??$?RV<lambda_c36588078e9f5dfd39652860aa6b3aaf>@@AEAV<lambda_ec61778202f4f5fc7e7711acc23c3bca>@@V<lambda_dc9d2797ccde5d239b4a0efae8ebd7db>@@@?$__crt_seh_guarded_call@P6AXH@Z@@QEAAP6AXH@Z$$QEAV<lambda_c36588078e9f5dfd39652860aa6b3aaf>@@AEAV<lambda_ec61778202f4f5fc7e7711acc23c3bca>@@$$QEAV<lambda_dc9d2797ccde5d239b4a0efae8ebd7db>@@@Z 000000018002f588     libucrt:signal.obj
 0002:0000c5ac       $unwind$?construct_ptd_array@@YAXQEAU__acrt_ptd@@@Z 000000018002f5ac     libucrt:per_thread_data.obj
 0002:0000c5b4       $unwind$?destroy_ptd_array@@YAXQEAU__acrt_ptd@@@Z 000000018002f5b4     libucrt:per_thread_data.obj
 0002:0000c5bc       $unwind$??$?RV<lambda_72d1df2b273a38828b1ce30cbf4cdab5>@@AEAV<lambda_876a65b173b8412d3a47c70a915b0cf4>@@V<lambda_41932305e351933ebe8f8be3ed8bb5dc>@@@?$__crt_seh_guarded_call@X@@QEAAX$$QEAV<lambda_72d1df2b273a38828b1ce30cbf4cdab5>@@AEAV<lambda_876a65b173b8412d3a47c70a915b0cf4>@@$$QEAV<lambda_41932305e351933ebe8f8be3ed8bb5dc>@@@Z 000000018002f5bc     libucrt:per_thread_data.obj
 0002:0000c5e0       $unwind$??$?RV<lambda_5e887d1dcbef67a5eb4283622ba103bf>@@AEAV<lambda_4466841279450cc726390878d4a41900>@@V<lambda_341c25c0346d94847f1f3c463c57e077>@@@?$__crt_seh_guarded_call@X@@QEAAX$$QEAV<lambda_5e887d1dcbef67a5eb4283622ba103bf>@@AEAV<lambda_4466841279450cc726390878d4a41900>@@$$QEAV<lambda_341c25c0346d94847f1f3c463c57e077>@@@Z 000000018002f5e0     libucrt:per_thread_data.obj
 0002:0000c604       $unwind$??$?RV<lambda_46352004c1216016012b18bd6f87e700>@@AEAV<lambda_3bd07e1a1191394380780325891bf33f>@@V<lambda_334532d3f185bcaa59b5be82d7d22bff>@@@?$__crt_seh_guarded_call@X@@QEAAX$$QEAV<lambda_46352004c1216016012b18bd6f87e700>@@AEAV<lambda_3bd07e1a1191394380780325891bf33f>@@$$QEAV<lambda_334532d3f185bcaa59b5be82d7d22bff>@@@Z 000000018002f604     libucrt:per_thread_data.obj
 0002:0000c628       $unwind$??$?RV<lambda_fb3a7dec4e47f37f22dae91bb15c9095>@@AEAV<lambda_698284760c8add0bfb0756c19673e34b>@@V<lambda_dfb8eca1e75fef3034a8fb18dd509707>@@@?$__crt_seh_guarded_call@X@@QEAAX$$QEAV<lambda_fb3a7dec4e47f37f22dae91bb15c9095>@@AEAV<lambda_698284760c8add0bfb0756c19673e34b>@@$$QEAV<lambda_dfb8eca1e75fef3034a8fb18dd509707>@@@Z 000000018002f628     libucrt:per_thread_data.obj
 0002:0000c64c       $unwind$__acrt_strtok_s_novalidation 000000018002f64c     libucrt:strtok_s.obj
 0002:0000c65c       $unwind$_tolower_l         000000018002f65c     libucrt:tolower_toupper.obj
 0002:0000c66c       $unwind$_wctomb_s_l        000000018002f66c     libucrt:wctomb.obj
 0002:0000c67c       $unwind$strnlen            000000018002f67c     libucrt:strnlen.obj
 0002:0000c67c       $unwind$wcsnlen            000000018002f67c     libucrt:strnlen.obj
 0002:0000c684       $unwind$__acrt_fp_format   000000018002f684     libucrt:cvt.obj
 0002:0000c6a0       $unwind$?fp_format_nan_or_infinity@@YAHW4__acrt_fp_class@@_NPEAD_K1@Z 000000018002f6a0     libucrt:cvt.obj
 0002:0000c6b4       $unwind$?fp_format_e_internal@@YAHQEAD_KH_NIQEAU_strflt@@2QEAU__crt_locale_pointers@@@Z 000000018002f6b4     libucrt:cvt.obj
 0002:0000c6cc       $unwind$?fp_format_e@@YAHQEBNQEAD_K12H_NIQEAU__crt_locale_pointers@@@Z 000000018002f6cc     libucrt:cvt.obj
 0002:0000c6e0       $unwind$?fp_format_a@@YAHQEBNPEAD_KQEAD2H_NIQEAU__crt_locale_pointers@@@Z 000000018002f6e0     libucrt:cvt.obj
 0002:0000c6fc       $unwind$__dcrt_get_narrow_environment_from_os 000000018002f6fc     libucrt:get_environment_from_os.obj
 0002:0000c6fc       $unwind$?fp_format_f_internal@@YAHQEAD_KHQEAU_strflt@@_NQEAU__crt_locale_pointers@@@Z 000000018002f6fc     libucrt:cvt.obj
 0002:0000c714       $unwind$?fp_format_g@@YAHQEBNQEAD_K12H_NIQEAU__crt_locale_pointers@@@Z 000000018002f714     libucrt:cvt.obj
 0002:0000c728       $unwind$_fputwc_nolock     000000018002f728     libucrt:fputwc.obj
 0002:0000c744       $unwind$__acrt_uninitialize_locale 000000018002f744     libucrt:wsetlocale.obj
 0002:0000c764       $unwind$__acrt_initialize_lowio 000000018002f764     libucrt:ioinit.obj
 0002:0000c784       $unwind$?initialize_inherited_file_handles_nolock@@YAXXZ 000000018002f784     libucrt:ioinit.obj
 0002:0000c7a0       $unwind$_isindst           000000018002f7a0     libucrt:tzset.obj
 0002:0000c7c0       $unwind$__tzset            000000018002f7c0     libucrt:tzset.obj
 0002:0000c7e0       $unwind$?tzset_from_system_nolock@@YAXXZ 000000018002f7e0     libucrt:tzset.obj
 0002:0000c7f0       $unwind$?tzset_from_environment_nolock@@YAXPEAD@Z 000000018002f7f0     libucrt:tzset.obj
 0002:0000c804       $unwind$?tzset_nolock@@YAXXZ 000000018002f804     libucrt:tzset.obj
 0002:0000c820       $unwind$?_isindst_nolock@@YAHQEAUtm@@@Z 000000018002f820     libucrt:tzset.obj
 0002:0000c83c       $unwind$??$common_gmtime_s@_J@@YAHQEAUtm@@QEB_J@Z 000000018002f83c     libucrt:gmtime.obj
 0002:0000c83c       $unwind$iswctype           000000018002f83c     libucrt:iswctype.obj
 0002:0000c83c       $unwind$__acrt_is_packaged_app 000000018002f83c     libucrt:winapi_thunks.obj
 0002:0000c848       $unwind$_isctype_l         000000018002f848     libucrt:isctype.obj
 0002:0000c864       $unwind$__vcrt_initialize_winapi_thunks 000000018002f864     libvcruntime:winapi_downlevel.obj
 0002:0000c864       $unwind$__acrt_initialize_winapi_thunks 000000018002f864     libucrt:winapi_thunks.obj
 0002:0000c86c       $unwind$__acrt_is_interactive 000000018002f86c     libucrt:winapi_thunks.obj
 0002:0000c880       $unwind$??$common_expand_argv_wildcards@D@@YAHQEAPEADQEAPEAPEAD@Z 000000018002f880     libucrt:argv_wildcards.obj
 0002:0000c898       $unwind$??$copy_and_add_argument_to_buffer@D@@YAHQEBD0_KAEAV?$argument_list@D@?A0xca0879c4@@@Z 000000018002f898     libucrt:argv_wildcards.obj
 0002:0000c8b4       $unwind$??$expand_argument_wildcards@D@@YAHQEAD0AEAV?$argument_list@D@?A0xca0879c4@@@Z 000000018002f8b4     libucrt:argv_wildcards.obj
 0002:0000c8d4       $unwind$__acrt_update_thread_multibyte_data 000000018002f8d4     libucrt:mbctype.obj
 0002:0000c8f8       $unwind$_setmbcp_nolock    000000018002f8f8     libucrt:mbctype.obj
 0002:0000c918       $unwind$?setSBUpLow@@YAXPEAU__crt_multibyte_data@@@Z 000000018002f918     libucrt:mbctype.obj
 0002:0000c934       $unwind$?setmbcp_internal@@YAHH_N@Z 000000018002f934     libucrt:mbctype.obj
 0002:0000c944       $unwind$??$?RV<lambda_99476a1ad63dd22509b5d3e65b0ffc95>@@AEAV<lambda_ad1ced32f4ac17aa236e5ef05d6b3b7c>@@V<lambda_f7424dd8d45958661754dc4f2697e9c3>@@@?$__crt_seh_guarded_call@X@@QEAAX$$QEAV<lambda_99476a1ad63dd22509b5d3e65b0ffc95>@@AEAV<lambda_ad1ced32f4ac17aa236e5ef05d6b3b7c>@@$$QEAV<lambda_f7424dd8d45958661754dc4f2697e9c3>@@@Z 000000018002f944     libucrt:mbctype.obj
 0002:0000c968       $unwind$_stricmp_l         000000018002f968     libucrt:stricmp.obj
 0002:0000c968       $unwind$?x_ismbbtype_l@@YAHPEAU__crt_locale_pointers@@IHH@Z 000000018002f968     libucrt:ismbbyte.obj
 0002:0000c978       $unwind$??$common_set_variable_in_environment_nolock@D@@YAHQEADH@Z 000000018002f978     libucrt:setenv.obj
 0002:0000c990       $unwind$??$copy_environment@D@@YAPEAPEADQEAPEAD@Z 000000018002f990     libucrt:setenv.obj
 0002:0000c9a4       $unwind$_fcloseall         000000018002f9a4     libucrt:closeall.obj
 0002:0000c9c8       $unwind$_commit            000000018002f9c8     libucrt:commit.obj
 0002:0000c9c8       $unwind$_close             000000018002f9c8     libucrt:close.obj
 0002:0000c9d0       $unwind$??$?RV<lambda_b521505b218e5242e90febf6bfebc422>@@AEAV<lambda_6978c1fb23f02e42e1d9e99668cc68aa>@@V<lambda_314360699dd331753a4119843814e9a7>@@@?$__crt_seh_guarded_call@H@@QEAAH$$QEAV<lambda_b521505b218e5242e90febf6bfebc422>@@AEAV<lambda_6978c1fb23f02e42e1d9e99668cc68aa>@@$$QEAV<lambda_314360699dd331753a4119843814e9a7>@@@Z 000000018002f9d0     libucrt:commit.obj
 0002:0000c9f4       $unwind$_write             000000018002f9f4     libucrt:write.obj
 0002:0000ca24       $unwind$_write_nolock      000000018002fa24     libucrt:write.obj
 0002:0000ca3c       $unwind$?write_double_translated_ansi_nolock@@YA?AUwrite_result@?A0x9c548279@@HQEBDI@Z 000000018002fa3c     libucrt:write.obj
 0002:0000ca5c       $unwind$?write_text_utf16le_nolock@@YA?AUwrite_result@?A0x9c548279@@HQEBDI@Z 000000018002fa5c     libucrt:write.obj
 0002:0000ca5c       $unwind$?write_text_ansi_nolock@@YA?AUwrite_result@?A0x9c548279@@HQEBDI@Z 000000018002fa5c     libucrt:write.obj
 0002:0000ca7c       $unwind$?write_text_utf8_nolock@@YA?AUwrite_result@?A0x9c548279@@HQEBDI@Z 000000018002fa7c     libucrt:write.obj
 0002:0000caa0       $unwind$__acrt_update_thread_locale_data 000000018002faa0     libucrt:locale_refcounting.obj
 0002:0000cac4       $unwind$__acrt_LCMapStringA 000000018002fac4     libucrt:lcmapstringa.obj
 0002:0000cad4       $unwind$?__acrt_LCMapStringA_stat@@YAHPEAU__crt_locale_pointers@@PEB_WKPEBDHPEADHHH@Z 000000018002fad4     libucrt:lcmapstringa.obj
 0002:0000cafc       $unwind$__acrt_fltout      000000018002fafc     libucrt:cfout.obj
 0002:0000cb1c       $unwind$?divide@__crt_strtox@@YA_KAEAUbig_integer@1@AEBU21@@Z 000000018002fb1c     libucrt:cfout.obj
 0002:0000cb3c       $chain$5$?divide@__crt_strtox@@YA_KAEAUbig_integer@1@AEBU21@@Z 000000018002fb3c     libucrt:cfout.obj
 0002:0000cb50       $chain$6$?divide@__crt_strtox@@YA_KAEAUbig_integer@1@AEBU21@@Z 000000018002fb50     libucrt:cfout.obj
 0002:0000cb60       $unwind$??$write_buffer_nolock@D@@YA_NDV__crt_stdio_stream@@@Z 000000018002fb60     libucrt:_flsbuf.obj
 0002:0000cb70       $unwind$??$write_buffer_nolock@_W@@YA_N_WV__crt_stdio_stream@@@Z 000000018002fb70     libucrt:_flsbuf.obj
 0002:0000cb80       $unwind$__acrt_locale_free_monetary 000000018002fb80     libucrt:initmon.obj
 0002:0000cb88       $unwind$?destroy_fls@@YAXPEAX@Z 000000018002fb88     libucrt:per_thread_data.obj
 0002:0000cb88       $unwind$__acrt_locale_free_numeric 000000018002fb88     libucrt:initnum.obj
 0002:0000cb88       $unwind$__acrt_locale_free_lc_time_if_unreferenced 000000018002fb88     libucrt:locale_refcounting.obj
 0002:0000cb88       $unwind$_free_base         000000018002fb88     libucrt:free_base.obj
 0002:0000cb90       $unwind$__acrt_locale_free_time 000000018002fb90     libucrt:inittime.obj
 0002:0000cba0       $unwind$__acrt_GetStringTypeA 000000018002fba0     libucrt:getstringtypea.obj
 0002:0000cbc8       $unwind$__acrt_lowio_destroy_handle_array 000000018002fbc8     libucrt:osfinfo.obj
 0002:0000cbd8       $unwind$__acrt_lowio_ensure_fh_exists 000000018002fbd8     libucrt:osfinfo.obj
 0002:0000cc04       $unwind$??$common_getenv_s@D@@YAHQEA_KQEAD_KQEBD@Z 000000018002fc04     libucrt:getenv.obj
 0002:0000cc44       $unwind$?GetTableIndexFromLocaleName@@YAHPEB_W@Z 000000018002fc44     libucrt:lcidtoname_downlevel.obj
 0002:0000cc5c       $unwind$qsort              000000018002fc5c     libucrt:qsort.obj
 0002:0000cc74       $chain$4$qsort             000000018002fc74     libucrt:qsort.obj
 0002:0000cc98       $chain$5$qsort             000000018002fc98     libucrt:qsort.obj
 0002:0000cca8       $unwind$?shortsort@@YAXPEAD0_KP6AHPEBX2@Z@Z 000000018002fca8     libucrt:qsort.obj
 0002:0000ccb8       $chain$2$?shortsort@@YAXPEAD0_KP6AHPEBX2@Z@Z 000000018002fcb8     libucrt:qsort.obj
 0002:0000ccd4       $chain$3$?shortsort@@YAXPEAD0_KP6AHPEBX2@Z@Z 000000018002fcd4     libucrt:qsort.obj
 0002:0000cce4       $unwind$strpbrk            000000018002fce4     libucrt:strpbrk.obj
 0002:0000ccf4       $unwind$_strnicoll_l       000000018002fcf4     libucrt:strnicol.obj
 0002:0000cd08       $unwind$fclose             000000018002fd08     libucrt:fclose.obj
 0002:0000cd2c       $unwind$??$common_lseek@_J@@YA_JH_JH@Z 000000018002fd2c     libucrt:lseek.obj
 0002:0000cd5c       $unwind$__report_gsfailure 000000018002fd5c     LIBCMT:gs_report.obj
 0002:0000cd5c       $unwind$_putwch_nolock     000000018002fd5c     libucrt:putwch.obj
 0002:0000cd68       $xdatasym                  000000018002fd68     libucrt:log10.obj
 0002:0000cd74       $unwind$__acrt_CompareStringA 000000018002fd74     libucrt:comparestringa.obj
 0002:0000cd84       $unwind$?InternalCompareStringA@@YAHPEAU__crt_locale_pointers@@PEB_WKPEBDH2HH@Z 000000018002fd84     libucrt:comparestringa.obj
 0002:0000cda8       $unwind$??$?RV<lambda_bfedae4ebbf01fab1bb6dcc6a9e276e0>@@AEAV<lambda_2fe9b910cf3cbf4a0ab98a02ba45b3ec>@@V<lambda_237c231691f317818eb88cc1d5d642d6>@@@?$__crt_seh_guarded_call@H@@QEAAH$$QEAV<lambda_bfedae4ebbf01fab1bb6dcc6a9e276e0>@@AEAV<lambda_2fe9b910cf3cbf4a0ab98a02ba45b3ec>@@$$QEAV<lambda_237c231691f317818eb88cc1d5d642d6>@@@Z 000000018002fda8     libucrt:close.obj
 0002:0000cdcc       $unwind$common_control87   000000018002fdcc     libucrt:ieee.obj
 0002:0000cdfc       $unwind$_call_matherr      000000018002fdfc     libucrt:libm_error.obj
 0002:0000ce04       $unwind$_handle_error      000000018002fe04     libucrt:libm_error.obj
 0002:0000ce24       $unwind$__acrt_initialize_fma3 000000018002fe24     libucrt:fma3_available.obj
 0002:0000ce2c       $unwind$_log_special_common 000000018002fe2c     libucrt:log_special.obj
 0002:0000ce38       $xdatasym                  000000018002fe38     libucrt:fpsr.obj
 0002:0000ce40       $unwind$_raise_exc_ex      000000018002fe40     libucrt:fpexcept.obj
 0002:0000ce54       $unwind$_ctrlfp            000000018002fe54     libucrt:fpctrl.obj
 0002:0000ce7c       $unwind$_IsNonwritableInCurrentImage 000000018002fe7c     LIBCMT:pesect.obj
 0002:0000cea0       $unwind$__GSHandlerCheckCommon 000000018002fea0     LIBCMT:_gshandler_.obj
 0002:0000cea8       $xdatasym                  000000018002fea8     LIBCMT:_chkstk_.obj
 0002:0000ceb0       $xdatasym                  000000018002feb0     libvcruntime:memcmp.obj
 0002:0000ceb4       $unwind$strchr             000000018002feb4     libvcruntime:strchr.obj
 0002:0000ceb4       $unwind$strrchr            000000018002feb4     libvcruntime:strrchr.obj
 0002:0000ceb4       $unwind$wcschr             000000018002feb4     libvcruntime:wcschr.obj
 0002:0000cebc       $unwind$?_GetEstablisherFrame@@YAPEA_KPEA_KPEAU_xDISPATCHER_CONTEXT@@PEBU_s_FuncInfo@@0@Z 000000018002febc     libvcruntime:trnsctrl.obj
 0002:0000ced4       $unwind$?__FrameUnwindToEmptyState@@YAXPEA_KPEAU_xDISPATCHER_CONTEXT@@PEBU_s_FuncInfo@@@Z 000000018002fed4     libvcruntime:trnsctrl.obj
 0002:0000cee8       $unwind$_CallSETranslator  000000018002fee8     libvcruntime:trnsctrl.obj
 0002:0000cf0c       $unwind$_CallSETranslator$filt$0 000000018002ff0c     libvcruntime:trnsctrl.obj
 0002:0000cf14       $unwind$?write_string@?$string_output_adapter@D@__crt_stdio_output@@QEBAXQEBDHQEAH1@Z 000000018002ff14     libucrt:output.obj
 0002:0000cf14       $unwind$??R<lambda_4e60a939b0d047cfe11ddc22648dfba9>@@QEBAHXZ 000000018002ff14     libucrt:onexit.obj
 0002:0000cf14       $unwind$??$parse_command_line@D@@YAXPEADPEAPEAD0PEA_K2@Z 000000018002ff14     libucrt:argv_parsing.obj
 0002:0000cf14       $unwind$?_GetRangeOfTrysToCheck@@YAPEBU_s_TryBlockMapEntry@@PEA_KPEBU_s_FuncInfo@@HHPEAI2PEAU_xDISPATCHER_CONTEXT@@@Z 000000018002ff14     libvcruntime:trnsctrl.obj
 0002:0000cf30       $unwind$_UnwindNestedFrames 000000018002ff30     libvcruntime:trnsctrl.obj
 0002:0000cf44       $unwind$__CxxFrameHandler3 000000018002ff44     libvcruntime:trnsctrl.obj
 0002:0000cf54       $unwind$?__SehTransFilter@@YAHPEAU_EXCEPTION_POINTERS@@PEAUEHExceptionRecord@@PEA_KPEAU_CONTEXT@@PEAU_xDISPATCHER_CONTEXT@@PEBU_s_FuncInfo@@PEAH@Z 000000018002ff54     libvcruntime:trnsctrl.obj
 0002:0000cf54       $unwind$_strnicmp_l        000000018002ff54     libucrt:strnicmp.obj
 0002:0000cf68       $unwind$__CxxCallCatchBlock 000000018002ff68     libvcruntime:frame.obj
 0002:0000cfa4       $unwind$__CxxCallCatchBlock$fin$1 000000018002ffa4     libvcruntime:frame.obj
 0002:0000cfb0       $unwind$__FrameUnwindToState 000000018002ffb0     libvcruntime:frame.obj
 0002:0000cfec       $unwind$?FindHandler@@YAXPEAUEHExceptionRecord@@PEA_KPEAU_CONTEXT@@PEAU_xDISPATCHER_CONTEXT@@PEBU_s_FuncInfo@@EH1@Z 000000018002ffec     libvcruntime:frame.obj
 0002:0000d00c       $unwind$?CatchIt@@YAXPEAUEHExceptionRecord@@PEA_KPEAU_CONTEXT@@PEAU_xDISPATCHER_CONTEXT@@PEBU_s_FuncInfo@@PEBU_s_HandlerType@@PEBU_s_CatchableType@@PEBU_s_TryBlockMapEntry@@H1EE@Z 000000018003000c     libvcruntime:frame.obj
 0002:0000d024       $unwind$__BuildCatchObject 0000000180030024     libvcruntime:frame.obj
 0002:0000d050       $unwind$__vcrt_EventRegister 0000000180030050     libvcruntime:winapi_downlevel.obj
 0002:0000d050       $unwind$__GSHandlerCheck_EH 0000000180030050     LIBCMT:gshandlereh.obj
 0002:0000d050       $unwind$?process@?$output_processor@_WV?$string_output_adapter@_W@__crt_stdio_output@@V?$standard_base@_WV?$string_output_adapter@_W@__crt_stdio_output@@@2@@__crt_stdio_output@@QEAAHXZ 0000000180030050     libucrt:output.obj
 0002:0000d050       $unwind$__acrt_initialize_stdio 0000000180030050     libucrt:_file.obj
 0002:0000d050       $unwind$__acrt_MessageBoxW 0000000180030050     libucrt:winapi_thunks.obj
 0002:0000d050       $unwind$__TypeMatch        0000000180030050     libvcruntime:frame.obj
 0002:0000d050       $unwind$_initterm          0000000180030050     libucrt:initterm.obj
 0002:0000d050       $unwind$__vcrt_EventSetInformation 0000000180030050     libvcruntime:winapi_downlevel.obj
 0002:0000d068       $unwind$?FindHandlerForForeignException@@YAXPEAUEHExceptionRecord@@PEA_KPEAU_CONTEXT@@PEAU_xDISPATCHER_CONTEXT@@PEBU_s_FuncInfo@@HH1@Z 0000000180030068     libvcruntime:frame.obj
 0002:0000d080       $unwind$__DestructExceptionObject 0000000180030080     libvcruntime:frame.obj
 0002:0000d0a4       $unwind$__BuildCatchObjectHelper 00000001800300a4     libvcruntime:frame.obj
 0002:0000d0e8       $xdatasym                  00000001800300e8     libvcruntime:handlers.obj
 0002:0000d340       .edata                     0000000180030340     serialport.exp
 0002:0000d368       rgpv                       0000000180030368     serialport.exp
 0002:0000d36c       rgszName                   000000018003036c     serialport.exp
 0002:0000d370       rgwOrd                     0000000180030370     serialport.exp
 0002:0000d372       szName                     0000000180030372     serialport.exp
 0002:0000d382       $N00001                    0000000180030382     serialport.exp
 0002:0000dbb2       .idata$6                   0000000180030bb2     kernel32:KERNEL32.dll
 0002:0000dbce       .idata$6                   0000000180030bce     user32:USER32.dll
 0002:0000dc0a       .idata$6                   0000000180030c0a     ole32:ole32.dll
 0002:0000dc14       .idata$6                   0000000180030c14     oleaut32:OLEAUT32.dll
 0002:0000eae0       .idata$6                   0000000180031ae0     node:node.dll
 0002:0000efa2       .idata$6                   0000000180031fa2     advapi32:ADVAPI32.dll
 0003:00000030       ?_Tlg_Microsoft_CRTProviderProv@@3U_TlgProvider_t@__vcrt_trace_logging_provider@@A 0000000180032030     libvcruntime:telemetry.obj
 0003:00000080       ?__vcrt_flsindex@@3KA      0000000180032080     libvcruntime:per_thread_data.obj
 0003:00000094       errno_no_memory            0000000180032094     libucrt:errno.obj
 0003:00000098       doserrno_no_memory         0000000180032098     libucrt:errno.obj
 0003:000001a8       __acrt_flsindex            00000001800321a8     libucrt:per_thread_data.obj
 0003:00000360       tzstd_program              0000000180032360     libucrt:timeset.obj
 0003:000003a0       tzdst_program              00000001800323a0     libucrt:timeset.obj
 0003:000003e0       tzname_states              00000001800323e0     libucrt:timeset.obj
 0003:000003f0       dststart                   00000001800323f0     libucrt:tzset.obj
 0003:00000400       dstend                     0000000180032400     libucrt:tzset.obj
 0003:00000650       __rgctypeflag              0000000180032650     libucrt:mbctype.obj
 0003:00000660       __rgcode_page_info         0000000180032660     libucrt:mbctype.obj
 0003:00000a18       ?dazSupported@?1??common_control87@@9@9 0000000180032a18     libucrt:ieee.obj
 0003:00000a20       ?dazSupported@?1??_ctrlfp@@9@9 0000000180032a20     libucrt:fpctrl.obj
 0003:00000a40       _module                    0000000180032a40     serialport.obj
 0003:00000a80       f_lngTlsInitEnd            0000000180032a80     disphelper.obj
 0003:00000a84       f_lngTlsInitBegin          0000000180032a84     disphelper.obj
 0003:00000be0       ?module_local_atexit_table@@3U_onexit_table_t@@A 0000000180032be0     LIBCMT:utility.obj
 0003:00000bf8       ?module_local_at_quick_exit_table@@3U_onexit_table_t@@A 0000000180032bf8     LIBCMT:utility.obj
 0003:00000c10       ?is_initialized_as_dll@@3_NA 0000000180032c10     LIBCMT:utility.obj
 0003:00000c14       ?__proc_attached@@3HA      0000000180032c14     LIBCMT:dll_dllmain.obj
 0003:00000c20       GS_ExceptionRecord         0000000180032c20     LIBCMT:gs_report.obj
 0003:00000cc0       GS_ContextRecord           0000000180032cc0     LIBCMT:gs_report.obj
 0003:000011c0       ?__vcrt_startup_thread_ptd@@3U__vcrt_ptd@@A 00000001800331c0     libvcruntime:per_thread_data.obj
 0003:00001238       __vcrt_lock_table          0000000180033238     libvcruntime:locks.obj
 0003:00001260       __vcrt_locks_initialized   0000000180033260     libvcruntime:locks.obj
 0003:00001270       ?module_handles@@3PAPEAUHINSTANCE__@@A 0000000180033270     libvcruntime:winapi_downlevel.obj
 0003:00001290       ?encoded_function_pointers@@3PAPEAXA 0000000180033290     libvcruntime:winapi_downlevel.obj
 0003:00001328       ?heap@@3V_HeapManager@@A   0000000180033328     libvcruntime:undname.obj
 0003:00001350       __acrt_invalid_parameter_handler 0000000180033350     libucrt:invalid_parameter.obj
 0003:00001358       __acrt_new_handler         0000000180033358     libucrt:new_handler.obj
 0003:00001360       c_termination_complete     0000000180033360     libucrt:exit.obj
 0003:00001368       thread_local_exit_callback_func 0000000180033368     libucrt:exit.obj
 0003:00001370       ?c_exit_complete@?5??common_exit@@YAXHW4_crt_exit_cleanup_mode@@W4_crt_exit_return_mode@@@Z@4_NA 0000000180033370     libucrt:exit.obj
 0003:00001380       ?program_name@?5???$common_configure_argv@D@@YAHW4_crt_argv_mode@@@Z@4PADA 0000000180033380     libucrt:argv_parsing.obj
 0003:000014d8       __acrt_app_type            00000001800334d8     libucrt:report_runtime_error.obj
 0003:000014dc       __acrt_error_mode          00000001800334dc     libucrt:set_error_mode.obj
 0003:000014f8       ctrlc_action               00000001800334f8     libucrt:signal.obj
 0003:00001500       ctrlbreak_action           0000000180033500     libucrt:signal.obj
 0003:00001508       abort_action               0000000180033508     libucrt:signal.obj
 0003:00001510       term_action                0000000180033510     libucrt:signal.obj
 0003:00001518       enable_percent_n           0000000180033518     libucrt:printf_count_output.obj
 0003:00001958       _tzname                    0000000180033958     libucrt:timeset.obj
 0003:00001960       last_tz                    0000000180033960     libucrt:tzset.obj
 0003:00001970       tz_api_used                0000000180033970     libucrt:tzset.obj
 0003:00001980       tz_info                    0000000180033980     libucrt:tzset.obj
 0003:00001a2c       ?first_time@?1??__tzset@@9@4JA 0000000180033a2c     libucrt:tzset.obj
 0003:00001a30       __acrt_lock_table          0000000180033a30     libucrt:locks.obj
 0003:00001c38       __acrt_locks_initialized   0000000180033c38     libucrt:locks.obj
 0003:00001c40       module_handles             0000000180033c40     libucrt:winapi_thunks.obj
 0003:00001ce0       encoded_function_pointers  0000000180033ce0     libucrt:winapi_thunks.obj
 0003:00001de0       ?state_cache@?1??__acrt_is_packaged_app@@9@4JA 0000000180033de0     libucrt:winapi_thunks.obj
 0003:00001dfc       fSystemSet                 0000000180033dfc     libucrt:mbctype.obj
 0003:00001e08       ?initialized@?1??__acrt_initialize_multibyte@@9@4_NA 0000000180033e08     libucrt:mbctype.obj
 0003:00001e40       user_matherr               0000000180033e40     libucrt:matherr.obj
 0003:00001e48       __acrt_global_new_mode     0000000180033e48     libucrt:new_mode.obj
 0003:00001e60       ?write_queues@@3PEAU_WriteQueue@@EA 0000000180033e60     serialport.obj
 0003:00001e6c       f_TlsIdxException          0000000180033e6c     disphelper.obj
 0003:00001e80       g_ExceptionOptions         0000000180033e80     disphelper.obj
 0003:00001ea0       f_TlsIdxStackCount         0000000180033ea0     disphelper.obj
 0004:00000000       $pdata$?TraceLoggingRegister@__vcrt_trace_logging_provider@@YAJPEBU_TlgProvider_t@1@PEBU_GUID@@P6AX1KE_K2PEAU_EVENT_FILTER_DESCRIPTOR@@PEAX@Z4@Z 0000000180034000     libvcruntime:telemetry.obj
 0004:0000000c       $pdata$?_TlgEnableCallback@__vcrt_trace_logging_provider@@YAXPEBU_GUID@@KE_K1PEAU_EVENT_FILTER_DESCRIPTOR@@PEAX@Z 000000018003400c     libvcruntime:telemetry.obj
 0004:00000018       $pdata$?_TlgWrite@__vcrt_trace_logging_provider@@YAJPEBU_TlgProvider_t@1@PEFBXPEBU_GUID@@2IPEAU_EVENT_DATA_DESCRIPTOR@@@Z 0000000180034018     libvcruntime:telemetry.obj
 0004:00000024       $pdata$??__Eg_closingHandles@@YAXXZ 0000000180034024     serialport_win.obj
 0004:00000030       $pdata$?FunctionCallbackWrapper@imp@Nan@@YAXAEBV?$FunctionCallbackInfo@VValue@v8@@@v8@@@Z 0000000180034030     serialport.obj
 0004:0000003c       $pdata$?New@?$Factory@VFunctionTemplate@v8@@@imp@Nan@@SA?AV?$Local@VFunctionTemplate@v8@@@v8@@P6AXAEBV?$FunctionCallbackInfo@VValue@v8@@@3@@ZV?$Local@VValue@v8@@@5@V?$Local@VSignature@v8@@@5@@Z 000000018003403c     serialport.obj
 0004:00000048       $pdata$??1EscapableHandleScope@Nan@@QEAA@XZ 0000000180034048     serialport.obj
 0004:00000054       $pdata$??1HandleScope@Nan@@QEAA@XZ 0000000180034054     serialport.obj
 0004:00000060       $pdata$?ThrowTypeError@Nan@@YAXPEBD@Z 0000000180034060     serialport.obj
 0004:0000006c       $pdata$??0Utf8String@Nan@@QEAA@V?$Local@VValue@v8@@@v8@@@Z 000000018003406c     serialport.obj
 0004:00000078       $pdata$0$??0Utf8String@Nan@@QEAA@V?$Local@VValue@v8@@@v8@@@Z 0000000180034078     serialport.obj
 0004:00000084       $pdata$1$??0Utf8String@Nan@@QEAA@V?$Local@VValue@v8@@@v8@@@Z 0000000180034084     serialport.obj
 0004:00000090       $pdata$?Call_@Callback@Nan@@AEBA?AV?$Local@VValue@v8@@@v8@@PEAVIsolate@4@V?$Local@VObject@v8@@@4@HQEAV34@@Z 0000000180034090     serialport.obj
 0004:0000009c       $pdata$??1?$Persistent@VFunction@v8@@V?$NonCopyablePersistentTraits@VFunction@v8@@@2@@Nan@@QEAA@XZ 000000018003409c     serialport.obj
 0004:0000009c       $pdata$??1?$Persistent@VObject@v8@@V?$NonCopyablePersistentTraits@VObject@v8@@@2@@Nan@@QEAA@XZ 000000018003409c     serialport.obj
 0004:000000a8       $pdata$?newQForFD@@YAPEAU_WriteQueue@@H@Z 00000001800340a8     serialport.obj
 0004:000000b4       $pdata$??_G_WriteQueue@@QEAAPEAXI@Z 00000001800340b4     serialport.obj
 0004:000000c0       $pdata$?getValueFromObject@@YA?AV?$Local@VValue@v8@@@v8@@V?$Local@VObject@v8@@@2@V?$basic_string@DU?$char_traits@D@std@@V?$allocator@D@2@@std@@@Z 00000001800340c0     serialport.obj
 0004:000000cc       $pdata$?getIntFromObject@@YAHV?$Local@VObject@v8@@@v8@@V?$basic_string@DU?$char_traits@D@std@@V?$allocator@D@2@@std@@@Z 00000001800340cc     serialport.obj
 0004:000000d8       $pdata$?getBoolFromObject@@YA_NV?$Local@VObject@v8@@@v8@@V?$basic_string@DU?$char_traits@D@std@@V?$allocator@D@2@@std@@@Z 00000001800340d8     serialport.obj
 0004:000000e4       $pdata$?getStringFromObj@@YA?AV?$Local@VString@v8@@@v8@@V?$Local@VObject@v8@@@2@V?$basic_string@DU?$char_traits@D@std@@V?$allocator@D@2@@std@@@Z 00000001800340e4     serialport.obj
 0004:000000f0       $pdata$?getDoubleFromObject@@YANV?$Local@VObject@v8@@@v8@@V?$basic_string@DU?$char_traits@D@std@@V?$allocator@D@2@@std@@@Z 00000001800340f0     serialport.obj
 0004:000000fc       $pdata$?Open@@YAXAEBV?$FunctionCallbackInfo@VValue@v8@@@Nan@@@Z 00000001800340fc     serialport.obj
 0004:00000108       $pdata$?EIO_AfterOpen@@YAXPEAUuv_work_s@@@Z 0000000180034108     serialport.obj
 0004:00000114       $pdata$?Update@@YAXAEBV?$FunctionCallbackInfo@VValue@v8@@@Nan@@@Z 0000000180034114     serialport.obj
 0004:00000120       $pdata$?EIO_AfterUpdate@@YAXPEAUuv_work_s@@@Z 0000000180034120     serialport.obj
 0004:0000012c       $pdata$?Write@@YAXAEBV?$FunctionCallbackInfo@VValue@v8@@@Nan@@@Z 000000018003412c     serialport.obj
 0004:00000138       $pdata$?EIO_AfterWrite@@YAXPEAUuv_work_s@@@Z 0000000180034138     serialport.obj
 0004:00000144       $pdata$?Close@@YAXAEBV?$FunctionCallbackInfo@VValue@v8@@@Nan@@@Z 0000000180034144     serialport.obj
 0004:00000150       $pdata$?EIO_AfterClose@@YAXPEAUuv_work_s@@@Z 0000000180034150     serialport.obj
 0004:0000015c       $pdata$?List@@YAXAEBV?$FunctionCallbackInfo@VValue@v8@@@Nan@@@Z 000000018003415c     serialport.obj
 0004:00000168       $pdata$?setIfNotEmpty@@YAXV?$Local@VObject@v8@@@v8@@V?$basic_string@DU?$char_traits@D@std@@V?$allocator@D@2@@std@@PEBD@Z 0000000180034168     serialport.obj
 0004:00000174       $pdata$?EIO_AfterList@@YAXPEAUuv_work_s@@@Z 0000000180034174     serialport.obj
 0004:00000180       $pdata$??_GListBaton@@QEAAPEAXI@Z 0000000180034180     serialport.obj
 0004:0000018c       $pdata$?Flush@@YAXAEBV?$FunctionCallbackInfo@VValue@v8@@@Nan@@@Z 000000018003418c     serialport.obj
 0004:00000198       $pdata$?EIO_AfterFlush@@YAXPEAUuv_work_s@@@Z 0000000180034198     serialport.obj
 0004:000001a4       $pdata$?Set@@YAXAEBV?$FunctionCallbackInfo@VValue@v8@@@Nan@@@Z 00000001800341a4     serialport.obj
 0004:000001b0       $pdata$?EIO_AfterSet@@YAXPEAUuv_work_s@@@Z 00000001800341b0     serialport.obj
 0004:000001bc       $pdata$?Drain@@YAXAEBV?$FunctionCallbackInfo@VValue@v8@@@Nan@@@Z 00000001800341bc     serialport.obj
 0004:000001c8       $pdata$?EIO_AfterDrain@@YAXPEAUuv_work_s@@@Z 00000001800341c8     serialport.obj
 0004:000001d4       $pdata$?ToParityEnum@@YA?AW4SerialPortParity@@AEBV?$Local@VString@v8@@@v8@@@Z 00000001800341d4     serialport.obj
 0004:000001e0       $pdata$init                00000001800341e0     serialport.obj
 0004:000001ec       $pdata$??1?$list@PEAUListResultItem@@V?$allocator@PEAUListResultItem@@@std@@@std@@QEAA@XZ 00000001800341ec     serialport.obj
 0004:000001f8       $pdata$??1?$Persistent@VFunction@v8@@V?$NonCopyablePersistentTraits@VFunction@v8@@@2@@v8@@QEAA@XZ 00000001800341f8     serialport.obj
 0004:000001f8       $pdata$??1?$Persistent@VObject@v8@@V?$NonCopyablePersistentTraits@VObject@v8@@@2@@v8@@QEAA@XZ 00000001800341f8     serialport.obj
 0004:00000204       $pdata$??1?$basic_string@DU?$char_traits@D@std@@V?$allocator@D@2@@std@@QEAA@XZ 0000000180034204     serialport.obj
 0004:00000210       $pdata$??1?$_List_buy@PEAUListResultItem@@V?$allocator@PEAUListResultItem@@@std@@@std@@QEAA@XZ 0000000180034210     serialport.obj
 0004:0000021c       $pdata$?assign@?$basic_string@DU?$char_traits@D@std@@V?$allocator@D@2@@std@@QEAAAEAV12@PEBD_K@Z 000000018003421c     serialport.obj
 0004:00000228       $pdata$?assign@?$basic_string@DU?$char_traits@D@std@@V?$allocator@D@2@@std@@QEAAAEAV12@AEBV12@_K1@Z 0000000180034228     serialport.obj
 0004:00000234       $pdata$?erase@?$basic_string@DU?$char_traits@D@std@@V?$allocator@D@2@@std@@QEAAAEAV12@_K0@Z 0000000180034234     serialport.obj
 0004:00000240       $pdata$?_Copy@?$basic_string@DU?$char_traits@D@std@@V?$allocator@D@2@@std@@QEAAX_K0@Z 0000000180034240     serialport.obj
 0004:0000024c       $pdata$??$New@VString@v8@@V?$basic_string@DU?$char_traits@D@std@@V?$allocator@D@2@@std@@@Nan@@YA?AV?$MaybeLocal@VString@v8@@@v8@@V?$basic_string@DU?$char_traits@D@std@@V?$allocator@D@2@@std@@@Z 000000018003424c     serialport.obj
 0004:00000258       $pdata$??$SetMethodAux@V?$Local@VObject@v8@@@v8@@@imp@Nan@@YAXV?$Local@VObject@v8@@@v8@@V?$Local@VString@v8@@@3@V?$Local@VFunctionTemplate@v8@@@3@ZZ 0000000180034258     serialport.obj
 0004:00000264       $pdata$_snprintf_s         0000000180034264     serialport_win.obj
 0004:00000270       $pdata$?Error@Nan@@YA?AV?$Local@VValue@v8@@@v8@@PEBD@Z 0000000180034270     serialport_win.obj
 0004:0000027c       $pdata$?ErrorCodeToString@@YAXPEBDHPEAD@Z 000000018003427c     serialport_win.obj
 0004:00000288       $pdata$?EIO_Open@@YAXPEAUuv_work_s@@@Z 0000000180034288     serialport_win.obj
 0004:00000294       $pdata$0$?EIO_Open@@YAXPEAUuv_work_s@@@Z 0000000180034294     serialport_win.obj
 0004:000002a0       $pdata$1$?EIO_Open@@YAXPEAUuv_work_s@@@Z 00000001800342a0     serialport_win.obj
 0004:000002ac       $pdata$?EIO_Update@@YAXPEAUuv_work_s@@@Z 00000001800342ac     serialport_win.obj
 0004:000002b8       $pdata$?EIO_Set@@YAXPEAUuv_work_s@@@Z 00000001800342b8     serialport_win.obj
 0004:000002c4       $pdata$?EIO_WatchPort@@YAXPEAUuv_work_s@@@Z 00000001800342c4     serialport_win.obj
 0004:000002d0       $pdata$?IsClosingHandle@@YA_NH@Z 00000001800342d0     serialport_win.obj
 0004:000002dc       $pdata$0$?IsClosingHandle@@YA_NH@Z 00000001800342dc     serialport_win.obj
 0004:000002e8       $pdata$1$?IsClosingHandle@@YA_NH@Z 00000001800342e8     serialport_win.obj
 0004:000002f4       $pdata$2$?IsClosingHandle@@YA_NH@Z 00000001800342f4     serialport_win.obj
 0004:00000300       $pdata$4$?IsClosingHandle@@YA_NH@Z 0000000180034300     serialport_win.obj
 0004:0000030c       $pdata$?DisposeWatchPortCallbacks@@YAXPEAUWatchPortBaton@@@Z 000000018003430c     serialport_win.obj
 0004:00000318       $pdata$?FinalizerCallback@@YAXPEADPEAX@Z 0000000180034318     serialport_win.obj
 0004:00000324       $pdata$?EIO_AfterWatchPort@@YAXPEAUuv_work_s@@@Z 0000000180034324     serialport_win.obj
 0004:00000330       $pdata$?AfterOpenSuccess@@YAXHPEAVCallback@Nan@@00@Z 0000000180034330     serialport_win.obj
 0004:0000033c       $pdata$?EIO_Write@@YAXPEAUuv_work_s@@@Z 000000018003433c     serialport_win.obj
 0004:00000348       $pdata$?EIO_Close@@YAXPEAUuv_work_s@@@Z 0000000180034348     serialport_win.obj
 0004:00000354       $pdata$?EIO_List@@YAXPEAUuv_work_s@@@Z 0000000180034354     serialport_win.obj
 0004:00000360       $pdata$?EIO_Flush@@YAXPEAUuv_work_s@@@Z 0000000180034360     serialport_win.obj
 0004:0000036c       $pdata$?EIO_Drain@@YAXPEAUuv_work_s@@@Z 000000018003436c     serialport_win.obj
 0004:00000378       $pdata$??1?$CDhComPtr@UIDispatch@@@@QEAA@XZ 0000000180034378     serialport_win.obj
 0004:00000378       $pdata$??1?$CDhComPtr@UIEnumVARIANT@@@@QEAA@XZ 0000000180034378     serialport_win.obj
 0004:00000384       $pdata$??1?$_List_buy@HV?$allocator@H@std@@@std@@QEAA@XZ 0000000180034384     serialport_win.obj
 0004:00000390       $pdata$?_Tidy@?$vector@IV?$allocator@I@std@@@std@@IEAAXXZ 0000000180034390     serialport_win.obj
 0004:0000039c       $pdata$??$_Insert@AEBH@?$list@HV?$allocator@H@std@@@std@@QEAAXV?$_List_unchecked_const_iterator@V?$_List_val@U?$_List_simple_types@H@std@@@std@@U_Iterator_base0@2@@1@AEBH@Z 000000018003439c     serialport_win.obj
 0004:000003a8       $pdata$??$_Insert@AEBQEAUListResultItem@@@?$list@PEAUListResultItem@@V?$allocator@PEAUListResultItem@@@std@@@std@@QEAAXV?$_List_unchecked_const_iterator@V?$_List_val@U?$_List_simple_types@PEAUListResultItem@@@std@@@std@@U_Iterator_base0@2@@1@AEBQEAUListResultItem@@@Z 00000001800343a8     serialport_win.obj
 0004:000003b4       $pdata$_snwprintf          00000001800343b4     disphelper.obj
 0004:000003c0       $pdata$dhGetObjectEx       00000001800343c0     disphelper.obj
 0004:000003cc       $pdata$dhGetObject         00000001800343cc     disphelper.obj
 0004:000003d8       $pdata$dhGetValue          00000001800343d8     disphelper.obj
 0004:000003e4       $pdata$dhInvokeArray       00000001800343e4     disphelper.obj
 0004:000003f0       $pdata$dhGetValueV         00000001800343f0     disphelper.obj
 0004:000003fc       $pdata$0$dhGetValueV       00000001800343fc     disphelper.obj
 0004:00000408       $pdata$1$dhGetValueV       0000000180034408     disphelper.obj
 0004:00000414       $pdata$2$dhGetValueV       0000000180034414     disphelper.obj
 0004:00000420       $pdata$3$dhGetValueV       0000000180034420     disphelper.obj
 0004:0000042c       $pdata$dhInvokeV           000000018003442c     disphelper.obj
 0004:00000438       $pdata$0$dhInvokeV         0000000180034438     disphelper.obj
 0004:00000444       $pdata$1$dhInvokeV         0000000180034444     disphelper.obj
 0004:00000450       $pdata$TraverseSubObjects  0000000180034450     disphelper.obj
 0004:0000045c       $pdata$InternalInvokeV     000000018003445c     disphelper.obj
 0004:00000468       $pdata$CreateArgumentArray 0000000180034468     disphelper.obj
 0004:00000474       $pdata$ExtractArgument     0000000180034474     disphelper.obj
 0004:00000480       $pdata$0$ExtractArgument   0000000180034480     disphelper.obj
 0004:0000048c       $pdata$1$ExtractArgument   000000018003448c     disphelper.obj
 0004:00000498       $pdata$dhEnumBeginV        0000000180034498     disphelper.obj
 0004:000004a4       $pdata$dhEnumNextObject    00000001800344a4     disphelper.obj
 0004:000004b0       $pdata$dhEnumBegin         00000001800344b0     disphelper.obj
 0004:000004bc       $pdata$ConvertFileTimeToVariantTime 00000001800344bc     disphelper.obj
 0004:000004c8       $pdata$ConvertVariantTimeToFileTime 00000001800344c8     disphelper.obj
 0004:000004d4       $pdata$ConvertVariantTimeToSystemTime 00000001800344d4     disphelper.obj
 0004:000004e0       $pdata$ConvertVariantTimeToTimeT 00000001800344e0     disphelper.obj
 0004:000004ec       $pdata$ConvertTimeTToVariantTime 00000001800344ec     disphelper.obj
 0004:000004f8       $pdata$0$ConvertTimeTToVariantTime 00000001800344f8     disphelper.obj
 0004:00000504       $pdata$1$ConvertTimeTToVariantTime 0000000180034504     disphelper.obj
 0004:00000510       $pdata$ConvertAnsiStrToBStr 0000000180034510     disphelper.obj
 0004:0000051c       $pdata$0$ConvertAnsiStrToBStr 000000018003451c     disphelper.obj
 0004:00000528       $pdata$2$ConvertAnsiStrToBStr 0000000180034528     disphelper.obj
 0004:00000534       $pdata$4$ConvertAnsiStrToBStr 0000000180034534     disphelper.obj
 0004:00000540       $pdata$ConvertBStrToAnsiStr 0000000180034540     disphelper.obj
 0004:0000054c       $pdata$0$ConvertBStrToAnsiStr 000000018003454c     disphelper.obj
 0004:00000558       $pdata$3$ConvertBStrToAnsiStr 0000000180034558     disphelper.obj
 0004:00000564       $pdata$dhExitEx            0000000180034564     disphelper.obj
 0004:00000570       $pdata$dhFormatExceptionW  0000000180034570     disphelper.obj
 0004:0000057c       $pdata$1$dhFormatExceptionW 000000018003457c     disphelper.obj
 0004:00000588       $pdata$2$dhFormatExceptionW 0000000180034588     disphelper.obj
 0004:00000594       $pdata$dhCleanupThreadException 0000000180034594     disphelper.obj
 0004:000005a0       $pdata$??1CAutoHeapAlloc@@QEAA@XZ 00000001800345a0     enumser.obj
 0004:000005ac       $pdata$?UsingQueryDosDevice@CEnumerateSerial@@SAHAEAV?$vector@IV?$allocator@I@std@@@std@@@Z 00000001800345ac     enumser.obj
 0004:000005b8       $pdata$?_Reserve@?$vector@IV?$allocator@I@std@@@std@@IEAAX_K@Z 00000001800345b8     enumser.obj
 0004:000005c4       $pdata$?_Reallocate@?$vector@IV?$allocator@I@std@@@std@@IEAAX_K@Z 00000001800345c4     enumser.obj
 0004:000005d0       $pdata$0$?_Reallocate@?$vector@IV?$allocator@I@std@@@std@@IEAAX_K@Z 00000001800345d0     enumser.obj
 0004:000005dc       $pdata$1$?_Reallocate@?$vector@IV?$allocator@I@std@@@std@@IEAAX_K@Z 00000001800345dc     enumser.obj
 0004:000005e8       $pdata$2$?_Reallocate@?$vector@IV?$allocator@I@std@@@std@@IEAAX_K@Z 00000001800345e8     enumser.obj
 0004:000005f4       $pdata$4$?_Reallocate@?$vector@IV?$allocator@I@std@@@std@@IEAAX_K@Z 00000001800345f4     enumser.obj
 0004:00000600       $pdata$5$?_Reallocate@?$vector@IV?$allocator@I@std@@@std@@IEAAX_K@Z 0000000180034600     enumser.obj
 0004:0000060c       $pdata$6$?_Reallocate@?$vector@IV?$allocator@I@std@@@std@@IEAAX_K@Z 000000018003460c     enumser.obj
 0004:00000618       $pdata$??0bad_alloc@std@@QEAA@AEBV01@@Z 0000000180034618     libcpmt:xthrow.obj
 0004:00000624       $pdata$??0exception@std@@QEAA@AEBV01@@Z 0000000180034624     libcpmt:xthrow.obj
 0004:00000630       $pdata$??0length_error@std@@QEAA@AEBV01@@Z 0000000180034630     libcpmt:xthrow.obj
 0004:0000063c       $pdata$??0length_error@std@@QEAA@PEBD@Z 000000018003463c     libcpmt:xthrow.obj
 0004:00000648       $pdata$??0logic_error@std@@QEAA@AEBV01@@Z 0000000180034648     libcpmt:xthrow.obj
 0004:00000654       $pdata$??0out_of_range@std@@QEAA@AEBV01@@Z 0000000180034654     libcpmt:xthrow.obj
 0004:00000660       $pdata$??0out_of_range@std@@QEAA@PEBD@Z 0000000180034660     libcpmt:xthrow.obj
 0004:0000066c       $pdata$??_Glogic_error@std@@UEAAPEAXI@Z 000000018003466c     libcpmt:xthrow.obj
 0004:0000066c       $pdata$??_Gexception@std@@UEAAPEAXI@Z 000000018003466c     libcpmt:xthrow.obj
 0004:0000066c       $pdata$??_Gbad_array_new_length@std@@UEAAPEAXI@Z 000000018003466c     LIBCMT:throw_bad_alloc.obj
 0004:0000066c       $pdata$??_Gout_of_range@std@@UEAAPEAXI@Z 000000018003466c     libcpmt:xthrow.obj
 0004:0000066c       $pdata$??_Gbad_alloc@std@@UEAAPEAXI@Z 000000018003466c     libcpmt:xthrow.obj
 0004:0000066c       $pdata$??_Glength_error@std@@UEAAPEAXI@Z 000000018003466c     libcpmt:xthrow.obj
 0004:0000066c       $pdata$??_Gbad_exception@std@@UEAAPEAXI@Z 000000018003466c     libvcruntime:frame.obj
 0004:00000678       $pdata$?_Xbad_alloc@std@@YAXXZ 0000000180034678     libcpmt:xthrow.obj
 0004:00000678       $pdata$?__scrt_throw_std_bad_alloc@@YAXXZ 0000000180034678     LIBCMT:throw_bad_alloc.obj
 0004:00000684       $pdata$?_Xlength_error@std@@YAXPEBD@Z 0000000180034684     libcpmt:xthrow.obj
 0004:00000690       $pdata$?_Xout_of_range@std@@YAXPEBD@Z 0000000180034690     libcpmt:xthrow.obj
 0004:000006a8       $pdata$??2@YAPEAX_K@Z      00000001800346a8     LIBCMT:new_scalar.obj
 0004:000006b4       $pdata$__scrt_acquire_startup_lock 00000001800346b4     LIBCMT:utility.obj
 0004:000006c0       $pdata$__scrt_dllmain_after_initialize_c 00000001800346c0     LIBCMT:utility.obj
 0004:000006cc       $pdata$__scrt_dllmain_before_initialize_c 00000001800346cc     LIBCMT:utility.obj
 0004:000006d8       $pdata$__scrt_dllmain_crt_thread_attach 00000001800346d8     LIBCMT:utility.obj
 0004:000006e4       $pdata$__scrt_dllmain_crt_thread_detach 00000001800346e4     LIBCMT:utility.obj
 0004:000006f0       $pdata$__scrt_dllmain_exception_filter 00000001800346f0     LIBCMT:utility.obj
 0004:000006fc       $pdata$__scrt_dllmain_uninitialize_c 00000001800346fc     LIBCMT:utility.obj
 0004:00000708       $pdata$__scrt_dllmain_uninitialize_critical 0000000180034708     LIBCMT:utility.obj
 0004:00000714       $pdata$__scrt_initialize_crt 0000000180034714     LIBCMT:utility.obj
 0004:00000720       $pdata$__scrt_initialize_onexit_tables 0000000180034720     LIBCMT:utility.obj
 0004:0000072c       $pdata$__scrt_is_nonwritable_in_current_image 000000018003472c     LIBCMT:utility.obj
 0004:00000738       $pdata$__scrt_release_startup_lock 0000000180034738     LIBCMT:utility.obj
 0004:00000744       $pdata$__scrt_uninitialize_crt 0000000180034744     LIBCMT:utility.obj
 0004:00000750       $pdata$_onexit             0000000180034750     LIBCMT:utility.obj
 0004:0000075c       $pdata$atexit              000000018003475c     LIBCMT:utility.obj
 0004:00000768       $pdata$?dllmain_crt_dispatch@@YAHQEAUHINSTANCE__@@KQEAX@Z 0000000180034768     LIBCMT:dll_dllmain.obj
 0004:00000774       $pdata$?dllmain_crt_process_attach@@YAHQEAUHINSTANCE__@@QEAX@Z 0000000180034774     LIBCMT:dll_dllmain.obj
 0004:00000780       $pdata$?dllmain_crt_process_detach@@YAH_N@Z 0000000180034780     LIBCMT:dll_dllmain.obj
 0004:0000078c       $pdata$?dllmain_dispatch@@YAHQEAUHINSTANCE__@@KQEAX@Z 000000018003478c     LIBCMT:dll_dllmain.obj
 0004:00000798       $pdata$?dllmain_raw@@YAHQEAUHINSTANCE__@@KQEAX@Z 0000000180034798     LIBCMT:dll_dllmain.obj
 0004:000007a4       $pdata$_DllMainCRTStartup  00000001800347a4     LIBCMT:dll_dllmain.obj
 0004:000007b0       $pdata$??_Gtype_info@@UEAAPEAXI@Z 00000001800347b0     LIBCMT:std_type_info_static.obj
 0004:000007bc       $pdata$__raise_securityfailure 00000001800347bc     LIBCMT:gs_report.obj
 0004:000007c8       $pdata$__report_gsfailure  00000001800347c8     LIBCMT:gs_report.obj
 0004:000007d4       $pdata$__report_rangecheckfailure 00000001800347d4     LIBCMT:gs_report.obj
 0004:000007e0       $pdata$__report_securityfailure 00000001800347e0     LIBCMT:gs_report.obj
 0004:000007ec       $pdata$capture_current_context 00000001800347ec     LIBCMT:gs_report.obj
 0004:000007f8       $pdata$capture_previous_context 00000001800347f8     LIBCMT:gs_report.obj
 0004:00000804       $pdata$??0bad_array_new_length@std@@QEAA@AEBV01@@Z 0000000180034804     LIBCMT:throw_bad_alloc.obj
 0004:00000810       $pdata$?__scrt_throw_std_bad_array_new_length@@YAXXZ 0000000180034810     LIBCMT:throw_bad_alloc.obj
 0004:0000081c       $pdata$__isa_available_init 000000018003481c     LIBCMT:_cpu_disp_.obj
 0004:00000828       $pdata$__scrt_fastfail     0000000180034828     LIBCMT:utility_desktop.obj
 0004:00000834       $pdata$__security_init_cookie 0000000180034834     LIBCMT:gs_support.obj
 0004:00000840       $pdata$__scrt_initialize_default_local_stdio_options 0000000180034840     LIBCMT:default_local_stdio_options.obj
 0004:0000084c       $pdata$_RTC_Initialize     000000018003484c     LIBCMT:_initsect_.obj
 0004:00000858       $pdata$_RTC_Terminate      0000000180034858     LIBCMT:_initsect_.obj
 0004:00000870       $pdata$strstr              0000000180034870     libvcruntime:strstr.obj
 0004:0000087c       $pdata$wcschr              000000018003487c     libvcruntime:wcschr.obj
 0004:00000888       $pdata$__std_exception_copy 0000000180034888     libvcruntime:std_exception.obj
 0004:00000894       $pdata$__std_exception_destroy 0000000180034894     libvcruntime:std_exception.obj
 0004:000008a0       $pdata$_CxxThrowException  00000001800348a0     libvcruntime:throw.obj
 0004:000008ac       $pdata$__vcrt_initialize   00000001800348ac     libvcruntime:initialization.obj
 0004:000008b8       $pdata$__vcrt_thread_attach 00000001800348b8     libvcruntime:initialization.obj
 0004:000008c4       $pdata$__vcrt_thread_detach 00000001800348c4     libvcruntime:initialization.obj
 0004:000008d0       $pdata$__vcrt_uninitialize 00000001800348d0     libvcruntime:initialization.obj
 0004:000008dc       $pdata$__vcrt_uninitialize_critical 00000001800348dc     libvcruntime:initialization.obj
 0004:000008e8       $pdata$__C_specific_handler 00000001800348e8     libvcruntime:_chandler_.obj
 0004:000008f4       $pdata$__telemetry_main_invoke_trigger 00000001800348f4     libvcruntime:telemetry.obj
 0004:00000900       $pdata$__telemetry_main_return_trigger 0000000180034900     libvcruntime:telemetry.obj
 0004:0000090c       $pdata$__vcrt_uninitialize_telemetry_provider 000000018003490c     libvcruntime:telemetry.obj
 0004:00000924       $pdata$__std_type_info_destroy_list 0000000180034924     libvcruntime:std_type_info.obj
 0004:00000930       $pdata$__vcrt_freefls      0000000180034930     libvcruntime:per_thread_data.obj
 0004:0000093c       $pdata$__vcrt_freeptd      000000018003493c     libvcruntime:per_thread_data.obj
 0004:00000948       $pdata$__vcrt_getptd       0000000180034948     libvcruntime:per_thread_data.obj
 0004:00000954       $pdata$__vcrt_getptd_noexit 0000000180034954     libvcruntime:per_thread_data.obj
 0004:00000960       $pdata$__vcrt_initialize_ptd 0000000180034960     libvcruntime:per_thread_data.obj
 0004:0000096c       $pdata$__vcrt_uninitialize_ptd 000000018003496c     libvcruntime:per_thread_data.obj
 0004:00000978       $pdata$__vcrt_initialize_locks 0000000180034978     libvcruntime:locks.obj
 0004:00000984       $pdata$__vcrt_uninitialize_locks 0000000180034984     libvcruntime:locks.obj
 0004:00000990       $pdata$?try_get_function@@YAPEAXW4function_id@?A0x49c8dc86@@QEBDQEBW4module_id@2@2@Z 0000000180034990     libvcruntime:winapi_downlevel.obj
 0004:0000099c       $pdata$__vcrt_EventRegister 000000018003499c     libvcruntime:winapi_downlevel.obj
 0004:000009a8       $pdata$__vcrt_EventSetInformation 00000001800349a8     libvcruntime:winapi_downlevel.obj
 0004:000009b4       $pdata$__vcrt_EventUnregister 00000001800349b4     libvcruntime:winapi_downlevel.obj
 0004:000009c0       $pdata$__vcrt_EventWriteTransfer 00000001800349c0     libvcruntime:winapi_downlevel.obj
 0004:000009cc       $pdata$__vcrt_FlsAlloc     00000001800349cc     libvcruntime:winapi_downlevel.obj
 0004:000009d8       $pdata$__vcrt_FlsFree      00000001800349d8     libvcruntime:winapi_downlevel.obj
 0004:000009e4       $pdata$__vcrt_FlsGetValue  00000001800349e4     libvcruntime:winapi_downlevel.obj
 0004:000009f0       $pdata$__vcrt_FlsSetValue  00000001800349f0     libvcruntime:winapi_downlevel.obj
 0004:000009fc       $pdata$__vcrt_InitializeCriticalSectionEx 00000001800349fc     libvcruntime:winapi_downlevel.obj
 0004:00000a08       $pdata$__vcrt_initialize_winapi_thunks 0000000180034a08     libvcruntime:winapi_downlevel.obj
 0004:00000a14       $pdata$__vcrt_uninitialize_winapi_thunks 0000000180034a14     libvcruntime:winapi_downlevel.obj
 0004:00000a50       $pdata$??$common_assert_to_message_box@_W@@YAXQEB_W0IQEAX@Z 0000000180034a50     libucrt:assert.obj
 0004:00000a5c       $pdata$??$common_assert_to_message_box_build_string@_W@@YAXQEA_W_KQEB_W2IQEAX@Z 0000000180034a5c     libucrt:assert.obj
 0004:00000a68       $pdata$??$common_assert_to_stderr@_W@@YAXQEB_W0I@Z 0000000180034a68     libucrt:assert.obj
 0004:00000a74       $pdata$_wassert            0000000180034a74     libucrt:assert.obj
 0004:00000a80       $pdata$fwprintf            0000000180034a80     libucrt:assert.obj
 0004:00000a8c       $pdata$swprintf            0000000180034a8c     libucrt:assert.obj
 0004:00000a98       $pdata$__acrt_call_reportfault 0000000180034a98     libucrt:invalid_parameter.obj
 0004:00000aa4       $pdata$_invalid_parameter  0000000180034aa4     libucrt:invalid_parameter.obj
 0004:00000ab0       $pdata$_invalid_parameter_noinfo 0000000180034ab0     libucrt:invalid_parameter.obj
 0004:00000abc       $pdata$_invalid_parameter_noinfo_noreturn 0000000180034abc     libucrt:invalid_parameter.obj
 0004:00000ac8       $pdata$_invoke_watson      0000000180034ac8     libucrt:invalid_parameter.obj
 0004:00000ad4       $pdata$strtok              0000000180034ad4     libucrt:strtok.obj
 0004:00000ae0       $pdata$strncpy_s           0000000180034ae0     libucrt:strncpy_s.obj
 0004:00000aec       $pdata$??$?RV<lambda_7b91131dde12e1c3dfc74ff76b3f2eac>@@AEAV<lambda_dd75445284c072d0bd3768540cc698fa>@@V<lambda_16bc4ecb55b4718497c16bceaea2ceaf>@@@?$__crt_seh_guarded_call@H@@QEAAH$$QEAV<lambda_7b91131dde12e1c3dfc74ff76b3f2eac>@@AEAV<lambda_dd75445284c072d0bd3768540cc698fa>@@$$QEAV<lambda_16bc4ecb55b4718497c16bceaea2ceaf>@@@Z 0000000180034aec     libucrt:output.obj
 0004:00000af8       $pdata$??$common_vsprintf@Vformat_validation_base@__crt_stdio_output@@D@@YAH_KQEAD0QEBDQEAU__crt_locale_pointers@@1@Z 0000000180034af8     libucrt:output.obj
 0004:00000b04       $pdata$??$ensure_buffer_is_big_enough@D@formatting_buffer@__crt_stdio_output@@QEAA_N_K@Z 0000000180034b04     libucrt:output.obj
 0004:00000b10       $pdata$??$type_case_integer_parse_into_buffer@I@?$output_processor@_WV?$stream_output_adapter@_W@__crt_stdio_output@@V?$standard_base@_WV?$stream_output_adapter@_W@__crt_stdio_output@@@2@@__crt_stdio_output@@AEAAXII_N@Z 0000000180034b10     libucrt:output.obj
 0004:00000b10       $pdata$??$type_case_integer_parse_into_buffer@I@?$output_processor@_WV?$string_output_adapter@_W@__crt_stdio_output@@V?$standard_base@_WV?$string_output_adapter@_W@__crt_stdio_output@@@2@@__crt_stdio_output@@AEAAXII_N@Z 0000000180034b10     libucrt:output.obj
 0004:00000b10       $pdata$??$type_case_integer_parse_into_buffer@I@?$output_processor@DV?$string_output_adapter@D@__crt_stdio_output@@V?$format_validation_base@DV?$string_output_adapter@D@__crt_stdio_output@@@2@@__crt_stdio_output@@AEAAXII_N@Z 0000000180034b10     libucrt:output.obj
 0004:00000b1c       $pdata$??$type_case_integer_parse_into_buffer@_K@?$output_processor@DV?$string_output_adapter@D@__crt_stdio_output@@V?$format_validation_base@DV?$string_output_adapter@D@__crt_stdio_output@@@2@@__crt_stdio_output@@AEAAX_KI_N@Z 0000000180034b1c     libucrt:output.obj
 0004:00000b1c       $pdata$??$type_case_integer_parse_into_buffer@_K@?$output_processor@_WV?$stream_output_adapter@_W@__crt_stdio_output@@V?$standard_base@_WV?$stream_output_adapter@_W@__crt_stdio_output@@@2@@__crt_stdio_output@@AEAAX_KI_N@Z 0000000180034b1c     libucrt:output.obj
 0004:00000b1c       $pdata$??$type_case_integer_parse_into_buffer@_K@?$output_processor@_WV?$string_output_adapter@_W@__crt_stdio_output@@V?$standard_base@_WV?$string_output_adapter@_W@__crt_stdio_output@@@2@@__crt_stdio_output@@AEAAX_KI_N@Z 0000000180034b1c     libucrt:output.obj
 0004:00000b28       $pdata$??$write_multiple_characters@V?$stream_output_adapter@_W@__crt_stdio_output@@D@__crt_stdio_output@@YAXAEBV?$stream_output_adapter@_W@0@DHQEAH@Z 0000000180034b28     libucrt:output.obj
 0004:00000b34       $pdata$??$write_multiple_characters@V?$string_output_adapter@D@__crt_stdio_output@@D@__crt_stdio_output@@YAXAEBV?$string_output_adapter@D@0@DHQEAH@Z 0000000180034b34     libucrt:output.obj
 0004:00000b40       $pdata$??$write_multiple_characters@V?$string_output_adapter@_W@__crt_stdio_output@@D@__crt_stdio_output@@YAXAEBV?$string_output_adapter@_W@0@DHQEAH@Z 0000000180034b40     libucrt:output.obj
 0004:00000b4c       $pdata$??0?$output_processor@DV?$string_output_adapter@D@__crt_stdio_output@@V?$format_validation_base@DV?$string_output_adapter@D@__crt_stdio_output@@@2@@__crt_stdio_output@@QEAA@AEBV?$string_output_adapter@D@1@_KQEBDQEAU__crt_locale_pointers@@QEAD@Z 0000000180034b4c     libucrt:output.obj
 0004:00000b58       $pdata$??0?$output_processor@_WV?$stream_output_adapter@_W@__crt_stdio_output@@V?$standard_base@_WV?$stream_output_adapter@_W@__crt_stdio_output@@@2@@__crt_stdio_output@@QEAA@AEBV?$stream_output_adapter@_W@1@_KQEB_WQEAU__crt_locale_pointers@@QEAD@Z 0000000180034b58     libucrt:output.obj
 0004:00000b58       $pdata$??0?$output_processor@_WV?$string_output_adapter@_W@__crt_stdio_output@@V?$standard_base@_WV?$string_output_adapter@_W@__crt_stdio_output@@@2@@__crt_stdio_output@@QEAA@AEBV?$string_output_adapter@_W@1@_KQEB_WQEAU__crt_locale_pointers@@QEAD@Z 0000000180034b58     libucrt:output.obj
 0004:00000b64       $pdata$??0_LocaleUpdate@@QEAA@QEAU__crt_locale_pointers@@@Z 0000000180034b64     libucrt:output.obj
 0004:00000b70       $pdata$??R<lambda_dd75445284c072d0bd3768540cc698fa>@@QEBAHXZ 0000000180034b70     libucrt:output.obj
 0004:00000b7c       $pdata$?force_decimal_point@__crt_stdio_output@@YAXPEADQEAU__crt_locale_pointers@@@Z 0000000180034b7c     libucrt:output.obj
 0004:00000b88       $pdata$?parse_int_from_format_string@?$output_processor@DV?$string_output_adapter@D@__crt_stdio_output@@V?$format_validation_base@DV?$string_output_adapter@D@__crt_stdio_output@@@2@@__crt_stdio_output@@AEAA_NQEAH@Z 0000000180034b88     libucrt:output.obj
 0004:00000b94       $pdata$?parse_int_from_format_string@?$output_processor@_WV?$string_output_adapter@_W@__crt_stdio_output@@V?$standard_base@_WV?$string_output_adapter@_W@__crt_stdio_output@@@2@@__crt_stdio_output@@AEAA_NQEAH@Z 0000000180034b94     libucrt:output.obj
 0004:00000b94       $pdata$?parse_int_from_format_string@?$output_processor@_WV?$stream_output_adapter@_W@__crt_stdio_output@@V?$standard_base@_WV?$stream_output_adapter@_W@__crt_stdio_output@@@2@@__crt_stdio_output@@AEAA_NQEAH@Z 0000000180034b94     libucrt:output.obj
 0004:00000ba0       $pdata$?process@?$output_processor@DV?$string_output_adapter@D@__crt_stdio_output@@V?$format_validation_base@DV?$string_output_adapter@D@__crt_stdio_output@@@2@@__crt_stdio_output@@QEAAHXZ 0000000180034ba0     libucrt:output.obj
 0004:00000bac       $pdata$?process@?$output_processor@_WV?$stream_output_adapter@_W@__crt_stdio_output@@V?$standard_base@_WV?$stream_output_adapter@_W@__crt_stdio_output@@@2@@__crt_stdio_output@@QEAAHXZ 0000000180034bac     libucrt:output.obj
 0004:00000bb8       $pdata$?process@?$output_processor@_WV?$string_output_adapter@_W@__crt_stdio_output@@V?$standard_base@_WV?$string_output_adapter@_W@__crt_stdio_output@@@2@@__crt_stdio_output@@QEAAHXZ 0000000180034bb8     libucrt:output.obj
 0004:00000bc4       $pdata$?state_case_normal@?$output_processor@DV?$string_output_adapter@D@__crt_stdio_output@@V?$format_validation_base@DV?$string_output_adapter@D@__crt_stdio_output@@@2@@__crt_stdio_output@@AEAA_NXZ 0000000180034bc4     libucrt:output.obj
 0004:00000bd0       $pdata$?state_case_normal_tchar@?$output_processor@DV?$string_output_adapter@D@__crt_stdio_output@@V?$format_validation_base@DV?$string_output_adapter@D@__crt_stdio_output@@@2@@__crt_stdio_output@@AEAA_ND@Z 0000000180034bd0     libucrt:output.obj
 0004:00000bdc       $pdata$?state_case_size@?$output_processor@DV?$string_output_adapter@D@__crt_stdio_output@@V?$format_validation_base@DV?$string_output_adapter@D@__crt_stdio_output@@@2@@__crt_stdio_output@@AEAA_NXZ 0000000180034bdc     libucrt:output.obj
 0004:00000be8       $pdata$?state_case_size@?$output_processor@_WV?$stream_output_adapter@_W@__crt_stdio_output@@V?$standard_base@_WV?$stream_output_adapter@_W@__crt_stdio_output@@@2@@__crt_stdio_output@@AEAA_NXZ 0000000180034be8     libucrt:output.obj
 0004:00000bf4       $pdata$?state_case_size@?$output_processor@_WV?$string_output_adapter@_W@__crt_stdio_output@@V?$standard_base@_WV?$string_output_adapter@_W@__crt_stdio_output@@@2@@__crt_stdio_output@@AEAA_NXZ 0000000180034bf4     libucrt:output.obj
 0004:00000c00       $pdata$?state_case_type@?$output_processor@DV?$string_output_adapter@D@__crt_stdio_output@@V?$format_validation_base@DV?$string_output_adapter@D@__crt_stdio_output@@@2@@__crt_stdio_output@@AEAA_NXZ 0000000180034c00     libucrt:output.obj
 0004:00000c0c       $pdata$?state_case_type@?$output_processor@_WV?$stream_output_adapter@_W@__crt_stdio_output@@V?$standard_base@_WV?$stream_output_adapter@_W@__crt_stdio_output@@@2@@__crt_stdio_output@@AEAA_NXZ 0000000180034c0c     libucrt:output.obj
 0004:00000c18       $pdata$?state_case_type@?$output_processor@_WV?$string_output_adapter@_W@__crt_stdio_output@@V?$standard_base@_WV?$string_output_adapter@_W@__crt_stdio_output@@@2@@__crt_stdio_output@@AEAA_NXZ 0000000180034c18     libucrt:output.obj
 0004:00000c24       $pdata$?type_case_Z@?$output_processor@DV?$string_output_adapter@D@__crt_stdio_output@@V?$format_validation_base@DV?$string_output_adapter@D@__crt_stdio_output@@@2@@__crt_stdio_output@@AEAA_NXZ 0000000180034c24     libucrt:output.obj
 0004:00000c30       $pdata$?type_case_Z@?$output_processor@_WV?$string_output_adapter@_W@__crt_stdio_output@@V?$standard_base@_WV?$string_output_adapter@_W@__crt_stdio_output@@@2@@__crt_stdio_output@@AEAA_NXZ 0000000180034c30     libucrt:output.obj
 0004:00000c30       $pdata$?type_case_Z@?$output_processor@_WV?$stream_output_adapter@_W@__crt_stdio_output@@V?$standard_base@_WV?$stream_output_adapter@_W@__crt_stdio_output@@@2@@__crt_stdio_output@@AEAA_NXZ 0000000180034c30     libucrt:output.obj
 0004:00000c3c       $pdata$?type_case_a@?$output_processor@DV?$string_output_adapter@D@__crt_stdio_output@@V?$format_validation_base@DV?$string_output_adapter@D@__crt_stdio_output@@@2@@__crt_stdio_output@@AEAA_NXZ 0000000180034c3c     libucrt:output.obj
 0004:00000c48       $pdata$?type_case_a@?$output_processor@_WV?$string_output_adapter@_W@__crt_stdio_output@@V?$standard_base@_WV?$string_output_adapter@_W@__crt_stdio_output@@@2@@__crt_stdio_output@@AEAA_NXZ 0000000180034c48     libucrt:output.obj
 0004:00000c48       $pdata$?type_case_a@?$output_processor@_WV?$stream_output_adapter@_W@__crt_stdio_output@@V?$standard_base@_WV?$stream_output_adapter@_W@__crt_stdio_output@@@2@@__crt_stdio_output@@AEAA_NXZ 0000000180034c48     libucrt:output.obj
 0004:00000c54       $pdata$?type_case_c_tchar@?$output_processor@DV?$string_output_adapter@D@__crt_stdio_output@@V?$format_validation_base@DV?$string_output_adapter@D@__crt_stdio_output@@@2@@__crt_stdio_output@@AEAA_ND@Z 0000000180034c54     libucrt:output.obj
 0004:00000c60       $pdata$?type_case_c_tchar@?$output_processor@_WV?$stream_output_adapter@_W@__crt_stdio_output@@V?$standard_base@_WV?$stream_output_adapter@_W@__crt_stdio_output@@@2@@__crt_stdio_output@@AEAA_N_W@Z 0000000180034c60     libucrt:output.obj
 0004:00000c60       $pdata$?type_case_c_tchar@?$output_processor@_WV?$string_output_adapter@_W@__crt_stdio_output@@V?$standard_base@_WV?$string_output_adapter@_W@__crt_stdio_output@@@2@@__crt_stdio_output@@AEAA_N_W@Z 0000000180034c60     libucrt:output.obj
 0004:00000c6c       $pdata$?type_case_integer@?$output_processor@_WV?$stream_output_adapter@_W@__crt_stdio_output@@V?$standard_base@_WV?$stream_output_adapter@_W@__crt_stdio_output@@@2@@__crt_stdio_output@@AEAA_NI_N@Z 0000000180034c6c     libucrt:output.obj
 0004:00000c6c       $pdata$?type_case_integer@?$output_processor@_WV?$string_output_adapter@_W@__crt_stdio_output@@V?$standard_base@_WV?$string_output_adapter@_W@__crt_stdio_output@@@2@@__crt_stdio_output@@AEAA_NI_N@Z 0000000180034c6c     libucrt:output.obj
 0004:00000c6c       $pdata$?type_case_integer@?$output_processor@DV?$string_output_adapter@D@__crt_stdio_output@@V?$format_validation_base@DV?$string_output_adapter@D@__crt_stdio_output@@@2@@__crt_stdio_output@@AEAA_NI_N@Z 0000000180034c6c     libucrt:output.obj
 0004:00000c78       $pdata$?type_case_n@?$output_processor@_WV?$string_output_adapter@_W@__crt_stdio_output@@V?$standard_base@_WV?$string_output_adapter@_W@__crt_stdio_output@@@2@@__crt_stdio_output@@AEAA_NXZ 0000000180034c78     libucrt:output.obj
 0004:00000c78       $pdata$?type_case_n@?$output_processor@_WV?$stream_output_adapter@_W@__crt_stdio_output@@V?$standard_base@_WV?$stream_output_adapter@_W@__crt_stdio_output@@@2@@__crt_stdio_output@@AEAA_NXZ 0000000180034c78     libucrt:output.obj
 0004:00000c78       $pdata$?type_case_n@?$output_processor@DV?$string_output_adapter@D@__crt_stdio_output@@V?$format_validation_base@DV?$string_output_adapter@D@__crt_stdio_output@@@2@@__crt_stdio_output@@AEAA_NXZ 0000000180034c78     libucrt:output.obj
 0004:00000c84       $pdata$?type_case_s@?$output_processor@DV?$string_output_adapter@D@__crt_stdio_output@@V?$format_validation_base@DV?$string_output_adapter@D@__crt_stdio_output@@@2@@__crt_stdio_output@@AEAA_NXZ 0000000180034c84     libucrt:output.obj
 0004:00000c90       $pdata$?type_case_s@?$output_processor@_WV?$string_output_adapter@_W@__crt_stdio_output@@V?$standard_base@_WV?$string_output_adapter@_W@__crt_stdio_output@@@2@@__crt_stdio_output@@AEAA_NXZ 0000000180034c90     libucrt:output.obj
 0004:00000c90       $pdata$?type_case_s@?$output_processor@_WV?$stream_output_adapter@_W@__crt_stdio_output@@V?$standard_base@_WV?$stream_output_adapter@_W@__crt_stdio_output@@@2@@__crt_stdio_output@@AEAA_NXZ 0000000180034c90     libucrt:output.obj
 0004:00000c9c       $pdata$?write_stored_string_tchar@?$output_processor@DV?$string_output_adapter@D@__crt_stdio_output@@V?$format_validation_base@DV?$string_output_adapter@D@__crt_stdio_output@@@2@@__crt_stdio_output@@AEAA_ND@Z 0000000180034c9c     libucrt:output.obj
 0004:00000ca8       $pdata$?write_stored_string_tchar@?$output_processor@_WV?$stream_output_adapter@_W@__crt_stdio_output@@V?$standard_base@_WV?$stream_output_adapter@_W@__crt_stdio_output@@@2@@__crt_stdio_output@@AEAA_N_W@Z 0000000180034ca8     libucrt:output.obj
 0004:00000cb4       $pdata$?write_stored_string_tchar@?$output_processor@_WV?$string_output_adapter@_W@__crt_stdio_output@@V?$standard_base@_WV?$string_output_adapter@_W@__crt_stdio_output@@@2@@__crt_stdio_output@@AEAA_N_W@Z 0000000180034cb4     libucrt:output.obj
 0004:00000cc0       $pdata$?write_string@?$stream_output_adapter@_W@__crt_stdio_output@@QEBAXQEB_WHQEAH1@Z 0000000180034cc0     libucrt:output.obj
 0004:00000ccc       $pdata$?write_string@?$string_output_adapter@D@__crt_stdio_output@@QEBAXQEBDHQEAH1@Z 0000000180034ccc     libucrt:output.obj
 0004:00000cd8       $pdata$?write_string@?$string_output_adapter@_W@__crt_stdio_output@@QEBAXQEB_WHQEAH1@Z 0000000180034cd8     libucrt:output.obj
 0004:00000ce4       $pdata$__stdio_common_vfwprintf 0000000180034ce4     libucrt:output.obj
 0004:00000cf0       $pdata$__stdio_common_vsnprintf_s 0000000180034cf0     libucrt:output.obj
 0004:00000cfc       $pdata$__stdio_common_vswprintf 0000000180034cfc     libucrt:output.obj
 0004:00000d14       $pdata$??$common_mktime@_J@@YA_JQEAUtm@@_N@Z 0000000180034d14     libucrt:mktime.obj
 0004:00000d20       $pdata$??$common_gmtime_s@_J@@YAHQEAUtm@@QEB_J@Z 0000000180034d20     libucrt:gmtime.obj
 0004:00000d2c       $pdata$?compute_year@@YAHAEA_JAEA_N@Z 0000000180034d2c     libucrt:gmtime.obj
 0004:00000d38       $pdata$__getgmtimebuf      0000000180034d38     libucrt:gmtime.obj
 0004:00000d44       $pdata$_gmtime64           0000000180034d44     libucrt:gmtime.obj
 0004:00000d50       $pdata$??$common_localtime_s@_J@@YAHQEAUtm@@QEB_J@Z 0000000180034d50     libucrt:localtime.obj
 0004:00000d5c       $pdata$_localtime64        0000000180034d5c     libucrt:localtime.obj
 0004:00000d68       $pdata$_isleadbyte_l       0000000180034d68     libucrt:_wctype.obj
 0004:00000d74       $pdata$_strnicmp           0000000180034d74     libucrt:strnicmp.obj
 0004:00000d80       $pdata$_strnicmp_l         0000000180034d80     libucrt:strnicmp.obj
 0004:00000d8c       $pdata$??$parse_integer@KV?$c_string_character_source@D@__crt_strtox@@@__crt_strtox@@YAKQEAU__crt_locale_pointers@@V?$c_string_character_source@D@0@H_N@Z 0000000180034d8c     libucrt:atox.obj
 0004:00000d98       $pdata$??$parse_integer@KV?$c_string_character_source@_W@__crt_strtox@@@__crt_strtox@@YAKQEAU__crt_locale_pointers@@V?$c_string_character_source@_W@0@H_N@Z 0000000180034d98     libucrt:atox.obj
 0004:00000da4       $pdata$atol                0000000180034da4     libucrt:atox.obj
 0004:00000da4       $pdata$atoi                0000000180034da4     libucrt:atox.obj
 0004:00000db0       $pdata$isdigit             0000000180034db0     libucrt:_ctype.obj
 0004:00000dbc       $pdata$_stricmp            0000000180034dbc     libucrt:stricmp.obj
 0004:00000dc8       $pdata$_stricmp_l          0000000180034dc8     libucrt:stricmp.obj
 0004:00000dd4       $pdata$_callnewh           0000000180034dd4     libucrt:new_handler.obj
 0004:00000de0       $pdata$_query_new_handler  0000000180034de0     libucrt:new_handler.obj
 0004:00000dec       $pdata$_seh_filter_exe     0000000180034dec     libucrt:exception_filter.obj
 0004:00000df8       $pdata$?common_exit@@YAXHW4_crt_exit_cleanup_mode@@W4_crt_exit_return_mode@@@Z 0000000180034df8     libucrt:exit.obj
 0004:00000e04       $pdata$?exit_or_terminate_process@@YAXI@Z 0000000180034e04     libucrt:exit.obj
 0004:00000e10       $pdata$?try_cor_exit_process@@YAXI@Z 0000000180034e10     libucrt:exit.obj
 0004:00000e1c       $pdata$??$parse_command_line@D@@YAXPEADPEAPEAD0PEA_K2@Z 0000000180034e1c     libucrt:argv_parsing.obj
 0004:00000e28       $pdata$__acrt_allocate_buffer_for_argv 0000000180034e28     libucrt:argv_parsing.obj
 0004:00000e34       $pdata$_configure_narrow_argv 0000000180034e34     libucrt:argv_parsing.obj
 0004:00000e40       $pdata$??$common_get_or_create_environment_nolock@D@@YAPEAPEADXZ 0000000180034e40     libucrt:environment_initialization.obj
 0004:00000e4c       $pdata$??$common_initialize_environment_nolock@D@@YAHXZ 0000000180034e4c     libucrt:environment_initialization.obj
 0004:00000e58       $pdata$??$create_environment@D@@YAQEAPEADQEAD@Z 0000000180034e58     libucrt:environment_initialization.obj
 0004:00000e64       $pdata$??$free_environment@_W@@YAXQEAPEA_W@Z 0000000180034e64     libucrt:environment_initialization.obj
 0004:00000e64       $pdata$??$free_environment@D@@YAXQEAPEAD@Z 0000000180034e64     libucrt:environment_initialization.obj
 0004:00000e70       $pdata$??$initialize_environment_by_cloning_nolock@D@@YAHXZ 0000000180034e70     libucrt:environment_initialization.obj
 0004:00000e7c       $pdata$??$uninitialize_environment_internal@D@@YAXAEAPEAPEAD@Z 0000000180034e7c     libucrt:environment_initialization.obj
 0004:00000e88       $pdata$??$uninitialize_environment_internal@_W@@YAXAEAPEAPEA_W@Z 0000000180034e88     libucrt:environment_initialization.obj
 0004:00000e94       $pdata$__dcrt_uninitialize_environments_nolock 0000000180034e94     libucrt:environment_initialization.obj
 0004:00000ea0       $pdata$??$?RV<lambda_b8c45f8f788dd370798f47cfe8ac3a86>@@AEAV<lambda_4e60a939b0d047cfe11ddc22648dfba9>@@V<lambda_332c3edc96d0294ec56c57d38c1cdfd5>@@@?$__crt_seh_guarded_call@H@@QEAAH$$QEAV<lambda_b8c45f8f788dd370798f47cfe8ac3a86>@@AEAV<lambda_4e60a939b0d047cfe11ddc22648dfba9>@@$$QEAV<lambda_332c3edc96d0294ec56c57d38c1cdfd5>@@@Z 0000000180034ea0     libucrt:onexit.obj
 0004:00000eac       $pdata$??$?RV<lambda_e24bbb7b643b32fcea6fa61b31d4c984>@@AEAV<lambda_275893d493268fdec8709772e3fcec0e>@@V<lambda_9d71df4d7cf3f480f8d633942495c3b0>@@@?$__crt_seh_guarded_call@H@@QEAAH$$QEAV<lambda_e24bbb7b643b32fcea6fa61b31d4c984>@@AEAV<lambda_275893d493268fdec8709772e3fcec0e>@@$$QEAV<lambda_9d71df4d7cf3f480f8d633942495c3b0>@@@Z 0000000180034eac     libucrt:onexit.obj
 0004:00000eb8       $pdata$??R<lambda_4e60a939b0d047cfe11ddc22648dfba9>@@QEBAHXZ 0000000180034eb8     libucrt:onexit.obj
 0004:00000ec4       $pdata$_execute_onexit_table 0000000180034ec4     libucrt:onexit.obj
 0004:00000ed0       $pdata$_register_onexit_function 0000000180034ed0     libucrt:onexit.obj
 0004:00000edc       $pdata$initialize_c        0000000180034edc     libucrt:initialization.obj
 0004:00000ee8       $pdata$uninitialize_environment 0000000180034ee8     libucrt:initialization.obj
 0004:00000ef4       $pdata$initialize_pointers 0000000180034ef4     libucrt:initialization.obj
 0004:00000f00       $pdata$uninitialize_allocated_memory 0000000180034f00     libucrt:initialization.obj
 0004:00000f0c       $pdata$__acrt_thread_attach 0000000180034f0c     libucrt:initialization.obj
 0004:00000f18       $pdata$__acrt_thread_detach 0000000180034f18     libucrt:initialization.obj
 0004:00000f24       $pdata$__acrt_uninitialize_critical 0000000180034f24     libucrt:initialization.obj
 0004:00000f30       $pdata$_initterm           0000000180034f30     libucrt:initterm.obj
 0004:00000f3c       $pdata$_initterm_e         0000000180034f3c     libucrt:initterm.obj
 0004:00000f48       $pdata$terminate           0000000180034f48     libucrt:terminate.obj
 0004:00000f54       $pdata$strcpy_s            0000000180034f54     libucrt:strcpy_s.obj
 0004:00000f60       $pdata$_free_base          0000000180034f60     libucrt:free_base.obj
 0004:00000f6c       $pdata$_malloc_base        0000000180034f6c     libucrt:malloc_base.obj
 0004:00000f78       $pdata$abort               0000000180034f78     libucrt:abort.obj
 0004:00000f84       $pdata$_calloc_base        0000000180034f84     libucrt:calloc_base.obj
 0004:00000f90       $pdata$__acrt_errno_map_os_error 0000000180034f90     libucrt:errno.obj
 0004:00000f9c       $pdata$__doserrno          0000000180034f9c     libucrt:errno.obj
 0004:00000fa8       $pdata$_errno              0000000180034fa8     libucrt:errno.obj
 0004:00000fb4       $pdata$??$common_xtox@K_W@@YAHKQEA_W_KI_N@Z 0000000180034fb4     libucrt:xtoa.obj
 0004:00000fc0       $pdata$??$common_xtox_s@K_W@@YAHKQEA_W_KI_N@Z 0000000180034fc0     libucrt:xtoa.obj
 0004:00000fcc       $pdata$_itow_s             0000000180034fcc     libucrt:xtoa.obj
 0004:00000fd8       $pdata$_set_error_mode     0000000180034fd8     libucrt:set_error_mode.obj
 0004:00000fe4       $pdata$wcscat_s            0000000180034fe4     libucrt:wcscat_s.obj
 0004:00000ff0       $pdata$wcscpy_s            0000000180034ff0     libucrt:wcscpy_s.obj
 0004:00000ffc       $pdata$wcsncat_s           0000000180034ffc     libucrt:wcsncat_s.obj
 0004:00001008       $pdata$??$message_box_wait_thread@_W@@YAKQEAX@Z 0000000180035008     libucrt:crtmbox.obj
 0004:00001014       $pdata$__acrt_show_wide_message_box 0000000180035014     libucrt:crtmbox.obj
 0004:00001020       $pdata$__acrt_initialize_stdio 0000000180035020     libucrt:_file.obj
 0004:0000102c       $pdata$__acrt_uninitialize_stdio 000000018003502c     libucrt:_file.obj
 0004:00001038       $pdata$__acrt_stdio_flush_nolock 0000000180035038     libucrt:fflush.obj
 0004:00001044       $pdata$_fflush_nolock      0000000180035044     libucrt:fflush.obj
 0004:00001050       $pdata$common_flush_all    0000000180035050     libucrt:fflush.obj
 0004:0000105c       $pdata$fflush              000000018003505c     libucrt:fflush.obj
 0004:00001068       $pdata$??$?RV<lambda_7a5ef57ff966f610505f1d28a3d40618>@@AEAV<lambda_b721fa326cdb32351d23dfa67958c160>@@V<lambda_5e0fb27672408a07956fe59e48ccb2aa>@@@?$__crt_seh_guarded_call@H@@QEAAH$$QEAV<lambda_7a5ef57ff966f610505f1d28a3d40618>@@AEAV<lambda_b721fa326cdb32351d23dfa67958c160>@@$$QEAV<lambda_5e0fb27672408a07956fe59e48ccb2aa>@@@Z 0000000180035068     libucrt:setvbuf.obj
 0004:00001074       $pdata$??R<lambda_b721fa326cdb32351d23dfa67958c160>@@QEBAHXZ 0000000180035074     libucrt:setvbuf.obj
 0004:00001080       $pdata$setvbuf             0000000180035080     libucrt:setvbuf.obj
 0004:0000108c       $pdata$??$?RV<lambda_c36588078e9f5dfd39652860aa6b3aaf>@@AEAV<lambda_ec61778202f4f5fc7e7711acc23c3bca>@@V<lambda_dc9d2797ccde5d239b4a0efae8ebd7db>@@@?$__crt_seh_guarded_call@P6AXH@Z@@QEAAP6AXH@Z$$QEAV<lambda_c36588078e9f5dfd39652860aa6b3aaf>@@AEAV<lambda_ec61778202f4f5fc7e7711acc23c3bca>@@$$QEAV<lambda_dc9d2797ccde5d239b4a0efae8ebd7db>@@@Z 000000018003508c     libucrt:signal.obj
 0004:00001098       $pdata$__acrt_get_sigabrt_handler 0000000180035098     libucrt:signal.obj
 0004:000010a4       $pdata$raise               00000001800350a4     libucrt:signal.obj
 0004:000010b0       $pdata$??$?RV<lambda_46352004c1216016012b18bd6f87e700>@@AEAV<lambda_3bd07e1a1191394380780325891bf33f>@@V<lambda_334532d3f185bcaa59b5be82d7d22bff>@@@?$__crt_seh_guarded_call@X@@QEAAX$$QEAV<lambda_46352004c1216016012b18bd6f87e700>@@AEAV<lambda_3bd07e1a1191394380780325891bf33f>@@$$QEAV<lambda_334532d3f185bcaa59b5be82d7d22bff>@@@Z 00000001800350b0     libucrt:per_thread_data.obj
 0004:000010bc       $pdata$??$?RV<lambda_5e887d1dcbef67a5eb4283622ba103bf>@@AEAV<lambda_4466841279450cc726390878d4a41900>@@V<lambda_341c25c0346d94847f1f3c463c57e077>@@@?$__crt_seh_guarded_call@X@@QEAAX$$QEAV<lambda_5e887d1dcbef67a5eb4283622ba103bf>@@AEAV<lambda_4466841279450cc726390878d4a41900>@@$$QEAV<lambda_341c25c0346d94847f1f3c463c57e077>@@@Z 00000001800350bc     libucrt:per_thread_data.obj
 0004:000010c8       $pdata$??$?RV<lambda_72d1df2b273a38828b1ce30cbf4cdab5>@@AEAV<lambda_876a65b173b8412d3a47c70a915b0cf4>@@V<lambda_41932305e351933ebe8f8be3ed8bb5dc>@@@?$__crt_seh_guarded_call@X@@QEAAX$$QEAV<lambda_72d1df2b273a38828b1ce30cbf4cdab5>@@AEAV<lambda_876a65b173b8412d3a47c70a915b0cf4>@@$$QEAV<lambda_41932305e351933ebe8f8be3ed8bb5dc>@@@Z 00000001800350c8     libucrt:per_thread_data.obj
 0004:000010d4       $pdata$??$?RV<lambda_fb3a7dec4e47f37f22dae91bb15c9095>@@AEAV<lambda_698284760c8add0bfb0756c19673e34b>@@V<lambda_dfb8eca1e75fef3034a8fb18dd509707>@@@?$__crt_seh_guarded_call@X@@QEAAX$$QEAV<lambda_fb3a7dec4e47f37f22dae91bb15c9095>@@AEAV<lambda_698284760c8add0bfb0756c19673e34b>@@$$QEAV<lambda_dfb8eca1e75fef3034a8fb18dd509707>@@@Z 00000001800350d4     libucrt:per_thread_data.obj
 0004:000010e0       $pdata$?construct_ptd_array@@YAXQEAU__acrt_ptd@@@Z 00000001800350e0     libucrt:per_thread_data.obj
 0004:000010ec       $pdata$?destroy_fls@@YAXPEAX@Z 00000001800350ec     libucrt:per_thread_data.obj
 0004:000010f8       $pdata$?destroy_ptd_array@@YAXQEAU__acrt_ptd@@@Z 00000001800350f8     libucrt:per_thread_data.obj
 0004:00001104       $pdata$?replace_current_thread_locale_nolock@@YAXQEAU__acrt_ptd@@QEAU__crt_locale_data@@@Z 0000000180035104     libucrt:per_thread_data.obj
 0004:00001110       $pdata$__acrt_freeptd      0000000180035110     libucrt:per_thread_data.obj
 0004:0000111c       $pdata$__acrt_getptd       000000018003511c     libucrt:per_thread_data.obj
 0004:00001128       $pdata$__acrt_getptd_noexit 0000000180035128     libucrt:per_thread_data.obj
 0004:00001134       $pdata$__acrt_initialize_ptd 0000000180035134     libucrt:per_thread_data.obj
 0004:00001140       $pdata$__acrt_uninitialize_ptd 0000000180035140     libucrt:per_thread_data.obj
 0004:0000114c       $pdata$__acrt_strtok_s_novalidation 000000018003514c     libucrt:strtok_s.obj
 0004:00001158       $pdata$?internal_isupper_l@@YA_NHQEAU__crt_locale_pointers@@@Z 0000000180035158     libucrt:tolower_toupper.obj
 0004:00001164       $pdata$_tolower_l          0000000180035164     libucrt:tolower_toupper.obj
 0004:00001170       $pdata$tolower             0000000180035170     libucrt:tolower_toupper.obj
 0004:0000117c       $pdata$strtol              000000018003517c     libucrt:strtox.obj
 0004:00001188       $pdata$wcstol              0000000180035188     libucrt:strtox.obj
 0004:00001194       $pdata$_mbtowc_l           0000000180035194     libucrt:mbtowc.obj
 0004:000011a0       $pdata$_wctomb_s_l         00000001800351a0     libucrt:wctomb.obj
 0004:000011ac       $pdata$wctomb_s            00000001800351ac     libucrt:wctomb.obj
 0004:000011b8       $pdata$strnlen             00000001800351b8     libucrt:strnlen.obj
 0004:000011c4       $pdata$wcsnlen             00000001800351c4     libucrt:strnlen.obj
 0004:000011d0       $pdata$__acrt_update_locale_info 00000001800351d0     libucrt:locale_update.obj
 0004:000011dc       $pdata$__acrt_update_multibyte_info 00000001800351dc     libucrt:locale_update.obj
 0004:000011e8       $pdata$?fp_format_a@@YAHQEBNPEAD_KQEAD2H_NIQEAU__crt_locale_pointers@@@Z 00000001800351e8     libucrt:cvt.obj
 0004:000011f4       $pdata$?fp_format_e@@YAHQEBNQEAD_K12H_NIQEAU__crt_locale_pointers@@@Z 00000001800351f4     libucrt:cvt.obj
 0004:00001200       $pdata$?fp_format_e_internal@@YAHQEAD_KH_NIQEAU_strflt@@2QEAU__crt_locale_pointers@@@Z 0000000180035200     libucrt:cvt.obj
 0004:0000120c       $pdata$?fp_format_f_internal@@YAHQEAD_KHQEAU_strflt@@_NQEAU__crt_locale_pointers@@@Z 000000018003520c     libucrt:cvt.obj
 0004:00001218       $pdata$?fp_format_g@@YAHQEBNQEAD_K12H_NIQEAU__crt_locale_pointers@@@Z 0000000180035218     libucrt:cvt.obj
 0004:00001224       $pdata$?fp_format_nan_or_infinity@@YAHW4__acrt_fp_class@@_NPEAD_K1@Z 0000000180035224     libucrt:cvt.obj
 0004:00001230       $pdata$__acrt_fp_format    0000000180035230     libucrt:cvt.obj
 0004:0000123c       $pdata$_fputwc_nolock      000000018003523c     libucrt:fputwc.obj
 0004:00001248       $pdata$_fileno             0000000180035248     libucrt:fileno.obj
 0004:00001254       $pdata$__acrt_stdio_begin_temporary_buffering_nolock 0000000180035254     libucrt:_sftbuf.obj
 0004:00001260       $pdata$__acrt_stdio_end_temporary_buffering_nolock 0000000180035260     libucrt:_sftbuf.obj
 0004:0000126c       $pdata$__acrt_uninitialize_locale 000000018003526c     libucrt:wsetlocale.obj
 0004:00001278       $pdata$?initialize_inherited_file_handles_nolock@@YAXXZ 0000000180035278     libucrt:ioinit.obj
 0004:00001284       $pdata$?initialize_stdio_handles_nolock@@YAXXZ 0000000180035284     libucrt:ioinit.obj
 0004:00001290       $pdata$__acrt_initialize_lowio 0000000180035290     libucrt:ioinit.obj
 0004:0000129c       $pdata$__acrt_uninitialize_lowio 000000018003529c     libucrt:ioinit.obj
 0004:000012a8       $pdata$_get_daylight       00000001800352a8     libucrt:timeset.obj
 0004:000012b4       $pdata$_get_dstbias        00000001800352b4     libucrt:timeset.obj
 0004:000012c0       $pdata$_get_timezone       00000001800352c0     libucrt:timeset.obj
 0004:000012cc       $pdata$?_isindst_nolock@@YAHQEAUtm@@@Z 00000001800352cc     libucrt:tzset.obj
 0004:000012d8       $pdata$?cvtdate@@YAXW4transition_type@?A0x1b14ceb2@@W4date_type@2@HHHHHHHHH@Z 00000001800352d8     libucrt:tzset.obj
 0004:000012e4       $pdata$?tzset_from_environment_nolock@@YAXPEAD@Z 00000001800352e4     libucrt:tzset.obj
 0004:000012f0       $pdata$?tzset_from_system_nolock@@YAXXZ 00000001800352f0     libucrt:tzset.obj
 0004:000012fc       $pdata$?tzset_nolock@@YAXXZ 00000001800352fc     libucrt:tzset.obj
 0004:00001308       $pdata$__tzset             0000000180035308     libucrt:tzset.obj
 0004:00001314       $pdata$_isindst            0000000180035314     libucrt:tzset.obj
 0004:00001320       $pdata$iswctype            0000000180035320     libucrt:iswctype.obj
 0004:0000132c       $pdata$__pctype_func       000000018003532c     libucrt:ctype.obj
 0004:00001338       $pdata$_isctype_l          0000000180035338     libucrt:isctype.obj
 0004:00001344       $pdata$__acrt_initialize_locks 0000000180035344     libucrt:locks.obj
 0004:00001350       $pdata$__acrt_uninitialize_locks 0000000180035350     libucrt:locks.obj
 0004:0000135c       $pdata$?try_get_function@@YAPEAXW4function_id@?A0x63058377@@QEBDQEBW4module_id@2@2@Z 000000018003535c     libucrt:winapi_thunks.obj
 0004:00001368       $pdata$__acrt_CompareStringEx 0000000180035368     libucrt:winapi_thunks.obj
 0004:00001374       $pdata$__acrt_FlsAlloc     0000000180035374     libucrt:winapi_thunks.obj
 0004:00001380       $pdata$__acrt_FlsFree      0000000180035380     libucrt:winapi_thunks.obj
 0004:0000138c       $pdata$__acrt_FlsGetValue  000000018003538c     libucrt:winapi_thunks.obj
 0004:00001398       $pdata$__acrt_FlsSetValue  0000000180035398     libucrt:winapi_thunks.obj
 0004:000013a4       $pdata$__acrt_InitializeCriticalSectionEx 00000001800353a4     libucrt:winapi_thunks.obj
 0004:000013b0       $pdata$__acrt_LCMapStringEx 00000001800353b0     libucrt:winapi_thunks.obj
 0004:000013bc       $pdata$__acrt_LocaleNameToLCID 00000001800353bc     libucrt:winapi_thunks.obj
 0004:000013c8       $pdata$__acrt_MessageBoxW  00000001800353c8     libucrt:winapi_thunks.obj
 0004:000013d4       $pdata$__acrt_can_show_message_box 00000001800353d4     libucrt:winapi_thunks.obj
 0004:000013e0       $pdata$__acrt_get_parent_window 00000001800353e0     libucrt:winapi_thunks.obj
 0004:000013ec       $pdata$__acrt_initialize_winapi_thunks 00000001800353ec     libucrt:winapi_thunks.obj
 0004:000013f8       $pdata$__acrt_is_interactive 00000001800353f8     libucrt:winapi_thunks.obj
 0004:00001404       $pdata$__acrt_is_packaged_app 0000000180035404     libucrt:winapi_thunks.obj
 0004:00001410       $pdata$__acrt_uninitialize_winapi_thunks 0000000180035410     libucrt:winapi_thunks.obj
 0004:0000141c       $pdata$??$common_expand_argv_wildcards@D@@YAHQEAPEADQEAPEAPEAD@Z 000000018003541c     libucrt:argv_wildcards.obj
 0004:00001428       $pdata$??$copy_and_add_argument_to_buffer@D@@YAHQEBD0_KAEAV?$argument_list@D@?A0xca0879c4@@@Z 0000000180035428     libucrt:argv_wildcards.obj
 0004:00001434       $pdata$??$expand_argument_wildcards@D@@YAHQEAD0AEAV?$argument_list@D@?A0xca0879c4@@@Z 0000000180035434     libucrt:argv_wildcards.obj
 0004:00001440       $pdata$?expand_if_necessary@?$argument_list@D@?A0xca0879c4@@AEAAHXZ 0000000180035440     libucrt:argv_wildcards.obj
 0004:0000144c       $pdata$??$?RV<lambda_99476a1ad63dd22509b5d3e65b0ffc95>@@AEAV<lambda_ad1ced32f4ac17aa236e5ef05d6b3b7c>@@V<lambda_f7424dd8d45958661754dc4f2697e9c3>@@@?$__crt_seh_guarded_call@X@@QEAAX$$QEAV<lambda_99476a1ad63dd22509b5d3e65b0ffc95>@@AEAV<lambda_ad1ced32f4ac17aa236e5ef05d6b3b7c>@@$$QEAV<lambda_f7424dd8d45958661754dc4f2697e9c3>@@@Z 000000018003544c     libucrt:mbctype.obj
 0004:00001458       $pdata$??R<lambda_ad1ced32f4ac17aa236e5ef05d6b3b7c>@@QEBAXXZ 0000000180035458     libucrt:mbctype.obj
 0004:00001464       $pdata$?getSystemCP@@YAHH@Z 0000000180035464     libucrt:mbctype.obj
 0004:00001470       $pdata$?setSBCS@@YAXPEAU__crt_multibyte_data@@@Z 0000000180035470     libucrt:mbctype.obj
 0004:0000147c       $pdata$?setSBUpLow@@YAXPEAU__crt_multibyte_data@@@Z 000000018003547c     libucrt:mbctype.obj
 0004:00001488       $pdata$?setmbcp_internal@@YAHH_N@Z 0000000180035488     libucrt:mbctype.obj
 0004:00001494       $pdata$__acrt_initialize_multibyte 0000000180035494     libucrt:mbctype.obj
 0004:000014a0       $pdata$__acrt_update_thread_multibyte_data 00000001800354a0     libucrt:mbctype.obj
 0004:000014ac       $pdata$_setmbcp_nolock     00000001800354ac     libucrt:mbctype.obj
 0004:000014b8       $pdata$?x_ismbbtype_l@@YAHPEAU__crt_locale_pointers@@IHH@Z 00000001800354b8     libucrt:ismbbyte.obj
 0004:000014c4       $pdata$__acrt_initialize_command_line 00000001800354c4     libucrt:argv_data.obj
 0004:000014d0       $pdata$__dcrt_get_narrow_environment_from_os 00000001800354d0     libucrt:get_environment_from_os.obj
 0004:000014dc       $pdata$??$common_set_variable_in_environment_nolock@D@@YAHQEADH@Z 00000001800354dc     libucrt:setenv.obj
 0004:000014e8       $pdata$??$copy_environment@D@@YAPEAPEADQEAPEAD@Z 00000001800354e8     libucrt:setenv.obj
 0004:000014f4       $pdata$_recalloc_base      00000001800354f4     libucrt:recalloc.obj
 0004:00001500       $pdata$__acrt_initialize_heap 0000000180035500     libucrt:heap_handle.obj
 0004:0000150c       $pdata$__acrt_execute_initializers 000000018003550c     libucrt:shared_initialization.obj
 0004:00001518       $pdata$__acrt_execute_uninitializers 0000000180035518     libucrt:shared_initialization.obj
 0004:00001524       $pdata$__acrt_invoke_user_matherr 0000000180035524     libucrt:matherr.obj
 0004:00001530       $pdata$_fcloseall          0000000180035530     libucrt:closeall.obj
 0004:0000153c       $pdata$__acrt_stdio_free_buffer_nolock 000000018003553c     libucrt:_freebuf.obj
 0004:00001548       $pdata$??$?RV<lambda_b521505b218e5242e90febf6bfebc422>@@AEAV<lambda_6978c1fb23f02e42e1d9e99668cc68aa>@@V<lambda_314360699dd331753a4119843814e9a7>@@@?$__crt_seh_guarded_call@H@@QEAAH$$QEAV<lambda_b521505b218e5242e90febf6bfebc422>@@AEAV<lambda_6978c1fb23f02e42e1d9e99668cc68aa>@@$$QEAV<lambda_314360699dd331753a4119843814e9a7>@@@Z 0000000180035548     libucrt:commit.obj
 0004:00001554       $pdata$_commit             0000000180035554     libucrt:commit.obj
 0004:00001560       $pdata$?write_double_translated_ansi_nolock@@YA?AUwrite_result@?A0x9c548279@@HQEBDI@Z 0000000180035560     libucrt:write.obj
 0004:0000156c       $pdata$?write_text_ansi_nolock@@YA?AUwrite_result@?A0x9c548279@@HQEBDI@Z 000000018003556c     libucrt:write.obj
 0004:00001578       $pdata$?write_text_utf16le_nolock@@YA?AUwrite_result@?A0x9c548279@@HQEBDI@Z 0000000180035578     libucrt:write.obj
 0004:00001584       $pdata$?write_text_utf8_nolock@@YA?AUwrite_result@?A0x9c548279@@HQEBDI@Z 0000000180035584     libucrt:write.obj
 0004:00001590       $pdata$_write              0000000180035590     libucrt:write.obj
 0004:0000159c       $pdata$_write_nolock       000000018003559c     libucrt:write.obj
 0004:000015a8       $pdata$__acrt_free_locale  00000001800355a8     libucrt:locale_refcounting.obj
 0004:000015b4       $pdata$__acrt_locale_free_lc_time_if_unreferenced 00000001800355b4     libucrt:locale_refcounting.obj
 0004:000015c0       $pdata$__acrt_release_locale_ref 00000001800355c0     libucrt:locale_refcounting.obj
 0004:000015cc       $pdata$__acrt_update_thread_locale_data 00000001800355cc     libucrt:locale_refcounting.obj
 0004:000015d8       $pdata$_updatetlocinfoEx_nolock 00000001800355d8     libucrt:locale_refcounting.obj
 0004:000015e4       $pdata$?__acrt_LCMapStringA_stat@@YAHPEAU__crt_locale_pointers@@PEB_WKPEBDHPEADHHH@Z 00000001800355e4     libucrt:lcmapstringa.obj
 0004:000015f0       $pdata$__acrt_LCMapStringA 00000001800355f0     libucrt:lcmapstringa.obj
 0004:000015fc       $pdata$___lc_codepage_func 00000001800355fc     libucrt:initctype.obj
 0004:00001608       $pdata$__acrt_fp_strflt_to_string 0000000180035608     libucrt:_fptostr.obj
 0004:00001614       $pdata$?divide@__crt_strtox@@YA_KAEAUbig_integer@1@AEBU21@@Z 0000000180035614     libucrt:cfout.obj
 0004:00001620       $pdata$5$?divide@__crt_strtox@@YA_KAEAUbig_integer@1@AEBU21@@Z 0000000180035620     libucrt:cfout.obj
 0004:0000162c       $pdata$6$?divide@__crt_strtox@@YA_KAEAUbig_integer@1@AEBU21@@Z 000000018003562c     libucrt:cfout.obj
 0004:00001638       $pdata$__acrt_fltout       0000000180035638     libucrt:cfout.obj
 0004:00001644       $pdata$memcpy_s            0000000180035644     libucrt:cfout.obj
 0004:00001650       $pdata$??$write_buffer_nolock@D@@YA_NDV__crt_stdio_stream@@@Z 0000000180035650     libucrt:_flsbuf.obj
 0004:0000165c       $pdata$??$write_buffer_nolock@_W@@YA_N_WV__crt_stdio_stream@@@Z 000000018003565c     libucrt:_flsbuf.obj
 0004:00001668       $pdata$__acrt_stdio_flush_and_write_narrow_nolock 0000000180035668     libucrt:_flsbuf.obj
 0004:00001674       $pdata$__acrt_stdio_flush_and_write_wide_nolock 0000000180035674     libucrt:_flsbuf.obj
 0004:00001680       $pdata$_isatty             0000000180035680     libucrt:isatty.obj
 0004:0000168c       $pdata$__acrt_locale_free_monetary 000000018003568c     libucrt:initmon.obj
 0004:00001698       $pdata$__acrt_locale_free_numeric 0000000180035698     libucrt:initnum.obj
 0004:000016a4       $pdata$?free_crt_array_internal@@YAXQEAPEBX_K@Z 00000001800356a4     libucrt:inittime.obj
 0004:000016b0       $pdata$__acrt_locale_free_time 00000001800356b0     libucrt:inittime.obj
 0004:000016bc       $pdata$__acrt_GetStringTypeA 00000001800356bc     libucrt:getstringtypea.obj
 0004:000016c8       $pdata$__acrt_lowio_create_handle_array 00000001800356c8     libucrt:osfinfo.obj
 0004:000016d4       $pdata$__acrt_lowio_destroy_handle_array 00000001800356d4     libucrt:osfinfo.obj
 0004:000016e0       $pdata$__acrt_lowio_ensure_fh_exists 00000001800356e0     libucrt:osfinfo.obj
 0004:000016ec       $pdata$_free_osfhnd        00000001800356ec     libucrt:osfinfo.obj
 0004:000016f8       $pdata$_get_osfhandle      00000001800356f8     libucrt:osfinfo.obj
 0004:00001704       $pdata$??$common_getenv_nolock@D@@YAPEADQEBD@Z 0000000180035704     libucrt:getenv.obj
 0004:00001710       $pdata$??$common_getenv_s@D@@YAHQEA_KQEAD_KQEBD@Z 0000000180035710     libucrt:getenv.obj
 0004:0000171c       $pdata$?GetTableIndexFromLocaleName@@YAHPEB_W@Z 000000018003571c     libucrt:lcidtoname_downlevel.obj
 0004:00001728       $pdata$__acrt_DownlevelLocaleNameToLCID 0000000180035728     libucrt:lcidtoname_downlevel.obj
 0004:00001734       $pdata$?shortsort@@YAXPEAD0_KP6AHPEBX2@Z@Z 0000000180035734     libucrt:qsort.obj
 0004:00001740       $pdata$2$?shortsort@@YAXPEAD0_KP6AHPEBX2@Z@Z 0000000180035740     libucrt:qsort.obj
 0004:0000174c       $pdata$3$?shortsort@@YAXPEAD0_KP6AHPEBX2@Z@Z 000000018003574c     libucrt:qsort.obj
 0004:00001758       $pdata$qsort               0000000180035758     libucrt:qsort.obj
 0004:00001764       $pdata$4$qsort             0000000180035764     libucrt:qsort.obj
 0004:00001770       $pdata$5$qsort             0000000180035770     libucrt:qsort.obj
 0004:0000177c       $pdata$strpbrk             000000018003577c     libucrt:strpbrk.obj
 0004:00001788       $pdata$_mbsdec_l           0000000180035788     libucrt:mbsdec.obj
 0004:00001794       $pdata$?initialize_multibyte@@YAHXZ 0000000180035794     libucrt:multibyte_initializer.obj
 0004:000017a0       $pdata$_strnicoll_l        00000001800357a0     libucrt:strnicol.obj
 0004:000017ac       $pdata$_msize              00000001800357ac     libucrt:msize.obj
 0004:000017b8       $pdata$_realloc_base       00000001800357b8     libucrt:realloc_base.obj
 0004:000017c4       $pdata$_fclose_nolock      00000001800357c4     libucrt:fclose.obj
 0004:000017d0       $pdata$fclose              00000001800357d0     libucrt:fclose.obj
 0004:000017dc       $pdata$??$common_lseek@_J@@YA_JH_JH@Z 00000001800357dc     libucrt:lseek.obj
 0004:000017e8       $pdata$??$common_lseek_nolock@_J@@YA_JH_JH@Z 00000001800357e8     libucrt:lseek.obj
 0004:000017f4       $pdata$_putwch_nolock      00000001800357f4     libucrt:putwch.obj
 0004:00001800       $pdata$fegetenv            0000000180035800     libucrt:fegetenv.obj
 0004:0000180c       $pdata$fesetenv            000000018003580c     libucrt:fesetenv.obj
 0004:00001818       $pdata$feholdexcept        0000000180035818     libucrt:feholdexcept.obj
 0004:00001830       $pdata$__acrt_stdio_allocate_buffer_nolock 0000000180035830     libucrt:_getbuf.obj
 0004:0000183c       $pdata$?InternalCompareStringA@@YAHPEAU__crt_locale_pointers@@PEB_WKPEBDH2HH@Z 000000018003583c     libucrt:comparestringa.obj
 0004:00001848       $pdata$__acrt_CompareStringA 0000000180035848     libucrt:comparestringa.obj
 0004:00001854       $pdata$??$?RV<lambda_bfedae4ebbf01fab1bb6dcc6a9e276e0>@@AEAV<lambda_2fe9b910cf3cbf4a0ab98a02ba45b3ec>@@V<lambda_237c231691f317818eb88cc1d5d642d6>@@@?$__crt_seh_guarded_call@H@@QEAAH$$QEAV<lambda_bfedae4ebbf01fab1bb6dcc6a9e276e0>@@AEAV<lambda_2fe9b910cf3cbf4a0ab98a02ba45b3ec>@@$$QEAV<lambda_237c231691f317818eb88cc1d5d642d6>@@@Z 0000000180035854     libucrt:close.obj
 0004:00001860       $pdata$_close              0000000180035860     libucrt:close.obj
 0004:0000186c       $pdata$_close_nolock       000000018003586c     libucrt:close.obj
 0004:00001878       $pdata$__dcrt_lowio_initialize_console_output 0000000180035878     libucrt:initcon.obj
 0004:00001884       $pdata$__dcrt_terminate_console_output 0000000180035884     libucrt:initcon.obj
 0004:00001890       $pdata$_getfpcontrolword   0000000180035890     libucrt:_fenvutils.obj
 0004:0000189c       $pdata$_getfpstatusword    000000018003589c     libucrt:_fenvutils.obj
 0004:000018a8       $pdata$_setfpstatusword    00000001800358a8     libucrt:_fenvutils.obj
 0004:000018b4       $pdata$_clearfp            00000001800358b4     libucrt:ieee.obj
 0004:000018c0       $pdata$common_control87    00000001800358c0     libucrt:ieee.obj
 0004:000018cc       $pdata$_call_matherr       00000001800358cc     libucrt:libm_error.obj
 0004:000018d8       $pdata$_exception_enabled  00000001800358d8     libucrt:libm_error.obj
 0004:000018e4       $pdata$_handle_error       00000001800358e4     libucrt:libm_error.obj
 0004:000018f0       $pdata$__acrt_initialize_fma3 00000001800358f0     libucrt:fma3_available.obj
 0004:000018fc       $pdata$_log10_special      00000001800358fc     libucrt:log_special.obj
 0004:00001908       $pdata$_log_special_common 0000000180035908     libucrt:log_special.obj
 0004:00001920       $pdata$_raise_exc          0000000180035920     libucrt:fpexcept.obj
 0004:0000192c       $pdata$_raise_exc_ex       000000018003592c     libucrt:fpexcept.obj
 0004:00001938       $pdata$_set_errno_from_matherr 0000000180035938     libucrt:fpexcept.obj
 0004:00001944       $pdata$_clrfp              0000000180035944     libucrt:fpctrl.obj
 0004:00001950       $pdata$_ctrlfp             0000000180035950     libucrt:fpctrl.obj
 0004:0000195c       $pdata$_set_statfp         000000018003595c     libucrt:fpctrl.obj
 0004:00001968       $pdata$_statfp             0000000180035968     libucrt:fpctrl.obj
 0004:00001974       $pdata$_IsNonwritableInCurrentImage 0000000180035974     LIBCMT:pesect.obj
 0004:00001980       $pdata$__GSHandlerCheck    0000000180035980     LIBCMT:_gshandler_.obj
 0004:0000198c       $pdata$__GSHandlerCheckCommon 000000018003598c     LIBCMT:_gshandler_.obj
 0004:000019a4       $pdata$strrchr             00000001800359a4     libvcruntime:strrchr.obj
 0004:000019bc       $pdata$strchr              00000001800359bc     libvcruntime:strchr.obj
 0004:000019c8       $pdata$__GSHandlerCheck_EH 00000001800359c8     LIBCMT:gshandlereh.obj
 0004:000019d4       $pdata$?_GetEstablisherFrame@@YAPEA_KPEA_KPEAU_xDISPATCHER_CONTEXT@@PEBU_s_FuncInfo@@0@Z 00000001800359d4     libvcruntime:trnsctrl.obj
 0004:000019e0       $pdata$?_GetRangeOfTrysToCheck@@YAPEBU_s_TryBlockMapEntry@@PEA_KPEBU_s_FuncInfo@@HHPEAI2PEAU_xDISPATCHER_CONTEXT@@@Z 00000001800359e0     libvcruntime:trnsctrl.obj
 0004:000019ec       $pdata$?__FrameUnwindToEmptyState@@YAXPEA_KPEAU_xDISPATCHER_CONTEXT@@PEBU_s_FuncInfo@@@Z 00000001800359ec     libvcruntime:trnsctrl.obj
 0004:000019f8       $pdata$?__SehTransFilter@@YAHPEAU_EXCEPTION_POINTERS@@PEAUEHExceptionRecord@@PEA_KPEAU_CONTEXT@@PEAU_xDISPATCHER_CONTEXT@@PEBU_s_FuncInfo@@PEAH@Z 00000001800359f8     libvcruntime:trnsctrl.obj
 0004:00001a04       $pdata$_CallSETranslator   0000000180035a04     libvcruntime:trnsctrl.obj
 0004:00001a10       $pdata$_CreateFrameInfo    0000000180035a10     libvcruntime:trnsctrl.obj
 0004:00001a1c       $pdata$_FindAndUnlinkFrame 0000000180035a1c     libvcruntime:trnsctrl.obj
 0004:00001a28       $pdata$_GetImageBase       0000000180035a28     libvcruntime:trnsctrl.obj
 0004:00001a34       $pdata$_GetThrowImageBase  0000000180035a34     libvcruntime:trnsctrl.obj
 0004:00001a40       $pdata$_IsExceptionObjectToBeDestroyed 0000000180035a40     libvcruntime:trnsctrl.obj
 0004:00001a4c       $pdata$_SetImageBase       0000000180035a4c     libvcruntime:trnsctrl.obj
 0004:00001a58       $pdata$_SetThrowImageBase  0000000180035a58     libvcruntime:trnsctrl.obj
 0004:00001a64       $pdata$_UnwindNestedFrames 0000000180035a64     libvcruntime:trnsctrl.obj
 0004:00001a70       $pdata$__CxxFrameHandler3  0000000180035a70     libvcruntime:trnsctrl.obj
 0004:00001a7c       $pdata$?__GetCurrentState@@YAHPEA_KPEAU_xDISPATCHER_CONTEXT@@PEBU_s_FuncInfo@@@Z 0000000180035a7c     libvcruntime:ehstate.obj
 0004:00001a88       $pdata$?__GetUnwindTryBlock@@YAHPEA_KPEAU_xDISPATCHER_CONTEXT@@PEBU_s_FuncInfo@@@Z 0000000180035a88     libvcruntime:ehstate.obj
 0004:00001a94       $pdata$?__SetUnwindTryBlock@@YAXPEA_KPEAU_xDISPATCHER_CONTEXT@@PEBU_s_FuncInfo@@H@Z 0000000180035a94     libvcruntime:ehstate.obj
 0004:00001aa0       $pdata$?__StateFromIp@@YAHPEBU_s_FuncInfo@@PEAU_xDISPATCHER_CONTEXT@@_J@Z 0000000180035aa0     libvcruntime:ehstate.obj
 0004:00001aac       $pdata$__DestructExceptionObject 0000000180035aac     libvcruntime:frame.obj
 0004:00001ab8       $pdata$??0bad_exception@std@@QEAA@AEBV01@@Z 0000000180035ab8     libvcruntime:frame.obj
 0004:00001ac4       $pdata$?CatchIt@@YAXPEAUEHExceptionRecord@@PEA_KPEAU_CONTEXT@@PEAU_xDISPATCHER_CONTEXT@@PEBU_s_FuncInfo@@PEBU_s_HandlerType@@PEBU_s_CatchableType@@PEBU_s_TryBlockMapEntry@@H1EE@Z 0000000180035ac4     libvcruntime:frame.obj
 0004:00001ad0       $pdata$?ExFilterRethrow@@YAHPEAU_EXCEPTION_POINTERS@@PEAUEHExceptionRecord@@PEAH@Z 0000000180035ad0     libvcruntime:frame.obj
 0004:00001adc       $pdata$?FindHandler@@YAXPEAUEHExceptionRecord@@PEA_KPEAU_CONTEXT@@PEAU_xDISPATCHER_CONTEXT@@PEBU_s_FuncInfo@@EH1@Z 0000000180035adc     libvcruntime:frame.obj
 0004:00001ae8       $pdata$?FindHandlerForForeignException@@YAXPEAUEHExceptionRecord@@PEA_KPEAU_CONTEXT@@PEAU_xDISPATCHER_CONTEXT@@PEBU_s_FuncInfo@@HH1@Z 0000000180035ae8     libvcruntime:frame.obj
 0004:00001af4       $pdata$?IsInExceptionSpec@@YAEPEAUEHExceptionRecord@@PEBU_s_ESTypeList@@@Z 0000000180035af4     libvcruntime:frame.obj
 0004:00001b00       $pdata$__BuildCatchObject  0000000180035b00     libvcruntime:frame.obj
 0004:00001b0c       $pdata$__BuildCatchObjectHelper 0000000180035b0c     libvcruntime:frame.obj
 0004:00001b18       $pdata$__CxxCallCatchBlock 0000000180035b18     libvcruntime:frame.obj
 0004:00001b24       $pdata$__FrameUnwindFilter 0000000180035b24     libvcruntime:frame.obj
 0004:00001b30       $pdata$__FrameUnwindToState 0000000180035b30     libvcruntime:frame.obj
 0004:00001b3c       $pdata$__InternalCxxFrameHandler 0000000180035b3c     libvcruntime:frame.obj
 0004:00001b48       $pdata$__TypeMatch         0000000180035b48     libvcruntime:frame.obj
 0004:00001b6c       $pdata$?dtor$0@?0??newQForFD@@YAPEAU_WriteQueue@@H@Z@4HA 0000000180035b6c     serialport.obj
 0004:00001b78       $pdata$?dtor$1@?0??newQForFD@@YAPEAU_WriteQueue@@H@Z@4HA 0000000180035b78     serialport.obj
 0004:00001b84       $pdata$?dtor$13@?0??Open@@YAXAEBV?$FunctionCallbackInfo@VValue@v8@@@Nan@@@Z@4HA 0000000180035b84     serialport.obj
 0004:00001b90       $pdata$?dtor$14@?0??Open@@YAXAEBV?$FunctionCallbackInfo@VValue@v8@@@Nan@@@Z@4HA 0000000180035b90     serialport.obj
 0004:00001b9c       $pdata$?dtor$16@?0??Open@@YAXAEBV?$FunctionCallbackInfo@VValue@v8@@@Nan@@@Z@4HA 0000000180035b9c     serialport.obj
 0004:00001ba8       $pdata$?dtor$18@?0??Open@@YAXAEBV?$FunctionCallbackInfo@VValue@v8@@@Nan@@@Z@4HA 0000000180035ba8     serialport.obj
 0004:00001bb4       $pdata$?dtor$0@?0??Update@@YAXAEBV?$FunctionCallbackInfo@VValue@v8@@@Nan@@@Z@4HA 0000000180035bb4     serialport.obj
 0004:00001bc0       $pdata$?dtor$0@?0??Write@@YAXAEBV?$FunctionCallbackInfo@VValue@v8@@@Nan@@@Z@4HA 0000000180035bc0     serialport.obj
 0004:00001bcc       $pdata$?dtor$1@?0??Write@@YAXAEBV?$FunctionCallbackInfo@VValue@v8@@@Nan@@@Z@4HA 0000000180035bcc     serialport.obj
 0004:00001bd8       $pdata$?dtor$2@?0??Write@@YAXAEBV?$FunctionCallbackInfo@VValue@v8@@@Nan@@@Z@4HA 0000000180035bd8     serialport.obj
 0004:00001be4       $pdata$?dtor$0@?0??Drain@@YAXAEBV?$FunctionCallbackInfo@VValue@v8@@@Nan@@@Z@4HA 0000000180035be4     serialport.obj
 0004:00001be4       $pdata$?dtor$0@?0??Flush@@YAXAEBV?$FunctionCallbackInfo@VValue@v8@@@Nan@@@Z@4HA 0000000180035be4     serialport.obj
 0004:00001be4       $pdata$?dtor$0@?0??Close@@YAXAEBV?$FunctionCallbackInfo@VValue@v8@@@Nan@@@Z@4HA 0000000180035be4     serialport.obj
 0004:00001bf0       $pdata$?dtor$0@?0??List@@YAXAEBV?$FunctionCallbackInfo@VValue@v8@@@Nan@@@Z@4HA 0000000180035bf0     serialport.obj
 0004:00001bfc       $pdata$?dtor$1@?0??List@@YAXAEBV?$FunctionCallbackInfo@VValue@v8@@@Nan@@@Z@4HA 0000000180035bfc     serialport.obj
 0004:00001c08       $pdata$?dtor$0@?0??Set@@YAXAEBV?$FunctionCallbackInfo@VValue@v8@@@Nan@@@Z@4HA 0000000180035c08     serialport.obj
 0004:00001c14       $pdata$?dtor$1@?0??ToParityEnum@@YA?AW4SerialPortParity@@AEBV?$Local@VString@v8@@@v8@@@Z@4HA 0000000180035c14     serialport.obj
 0004:00001c20       $pdata$?dtor$2@?0??EIO_List@@YAXPEAUuv_work_s@@@Z@4HA 0000000180035c20     serialport_win.obj
 0004:00001c2c       $pdata$?dtor$4@?0??EIO_List@@YAXPEAUuv_work_s@@@Z@4HA 0000000180035c2c     serialport_win.obj
 0004:00001c38       $pdata$__scrt_is_nonwritable_in_current_image$filt$0 0000000180035c38     LIBCMT:utility.obj
 0004:00001c44       $pdata$?fin$0@?0??dllmain_crt_process_attach@@YAHQEAUHINSTANCE__@@QEAX@Z@4HA 0000000180035c44     LIBCMT:dll_dllmain.obj
 0004:00001c50       $pdata$?fin$0@?0??dllmain_crt_process_detach@@YAH_N@Z@4HA 0000000180035c50     LIBCMT:dll_dllmain.obj
 0004:00001c5c       $pdata$?filt$0@?0??dllmain_dispatch@@YAHQEAUHINSTANCE__@@KQEAX@Z@4HA 0000000180035c5c     LIBCMT:dll_dllmain.obj
 0004:00001c68       $pdata$?fin$0@?0???$?RV<lambda_7b91131dde12e1c3dfc74ff76b3f2eac>@@AEAV<lambda_dd75445284c072d0bd3768540cc698fa>@@V<lambda_16bc4ecb55b4718497c16bceaea2ceaf>@@@?$__crt_seh_guarded_call@H@@QEAAH$$QEAV<lambda_7b91131dde12e1c3dfc74ff76b3f2eac>@@AEAV<lambda_dd75445284c072d0bd3768540cc698fa>@@$$QEAV<lambda_16bc4ecb55b4718497c16bceaea2ceaf>@@@Z@4HA 0000000180035c68     libucrt:output.obj
 0004:00001c68       $pdata$?fin$0@?0???$?RV<lambda_7a5ef57ff966f610505f1d28a3d40618>@@AEAV<lambda_b721fa326cdb32351d23dfa67958c160>@@V<lambda_5e0fb27672408a07956fe59e48ccb2aa>@@@?$__crt_seh_guarded_call@H@@QEAAH$$QEAV<lambda_7a5ef57ff966f610505f1d28a3d40618>@@AEAV<lambda_b721fa326cdb32351d23dfa67958c160>@@$$QEAV<lambda_5e0fb27672408a07956fe59e48ccb2aa>@@@Z@4HA 0000000180035c68     libucrt:setvbuf.obj
 0004:00001c74       $pdata$_query_new_handler$fin$0 0000000180035c74     libucrt:new_handler.obj
 0004:00001c80       $pdata$?filt$0@?0??common_exit@@YAXHW4_crt_exit_cleanup_mode@@W4_crt_exit_return_mode@@@Z@4HA 0000000180035c80     libucrt:exit.obj
 0004:00001c8c       $pdata$?fin$1@?0??common_exit@@YAXHW4_crt_exit_cleanup_mode@@W4_crt_exit_return_mode@@@Z@4HA 0000000180035c8c     libucrt:exit.obj
 0004:00001c98       $pdata$?fin$0@?0???$?RV<lambda_5e887d1dcbef67a5eb4283622ba103bf>@@AEAV<lambda_4466841279450cc726390878d4a41900>@@V<lambda_341c25c0346d94847f1f3c463c57e077>@@@?$__crt_seh_guarded_call@X@@QEAAX$$QEAV<lambda_5e887d1dcbef67a5eb4283622ba103bf>@@AEAV<lambda_4466841279450cc726390878d4a41900>@@$$QEAV<lambda_341c25c0346d94847f1f3c463c57e077>@@@Z@4HA 0000000180035c98     libucrt:per_thread_data.obj
 0004:00001c98       $pdata$?fin$0@?0???$?RV<lambda_fb3a7dec4e47f37f22dae91bb15c9095>@@AEAV<lambda_698284760c8add0bfb0756c19673e34b>@@V<lambda_dfb8eca1e75fef3034a8fb18dd509707>@@@?$__crt_seh_guarded_call@X@@QEAAX$$QEAV<lambda_fb3a7dec4e47f37f22dae91bb15c9095>@@AEAV<lambda_698284760c8add0bfb0756c19673e34b>@@$$QEAV<lambda_dfb8eca1e75fef3034a8fb18dd509707>@@@Z@4HA 0000000180035c98     libucrt:per_thread_data.obj
 0004:00001c98       $pdata$?fin$0@?0???$?RV<lambda_72d1df2b273a38828b1ce30cbf4cdab5>@@AEAV<lambda_876a65b173b8412d3a47c70a915b0cf4>@@V<lambda_41932305e351933ebe8f8be3ed8bb5dc>@@@?$__crt_seh_guarded_call@X@@QEAAX$$QEAV<lambda_72d1df2b273a38828b1ce30cbf4cdab5>@@AEAV<lambda_876a65b173b8412d3a47c70a915b0cf4>@@$$QEAV<lambda_41932305e351933ebe8f8be3ed8bb5dc>@@@Z@4HA 0000000180035c98     libucrt:per_thread_data.obj
 0004:00001c98       $pdata$?fin$0@?0???$?RV<lambda_b8c45f8f788dd370798f47cfe8ac3a86>@@AEAV<lambda_4e60a939b0d047cfe11ddc22648dfba9>@@V<lambda_332c3edc96d0294ec56c57d38c1cdfd5>@@@?$__crt_seh_guarded_call@H@@QEAAH$$QEAV<lambda_b8c45f8f788dd370798f47cfe8ac3a86>@@AEAV<lambda_4e60a939b0d047cfe11ddc22648dfba9>@@$$QEAV<lambda_332c3edc96d0294ec56c57d38c1cdfd5>@@@Z@4HA 0000000180035c98     libucrt:onexit.obj
 0004:00001c98       $pdata$?fin$0@?0???$?RV<lambda_46352004c1216016012b18bd6f87e700>@@AEAV<lambda_3bd07e1a1191394380780325891bf33f>@@V<lambda_334532d3f185bcaa59b5be82d7d22bff>@@@?$__crt_seh_guarded_call@X@@QEAAX$$QEAV<lambda_46352004c1216016012b18bd6f87e700>@@AEAV<lambda_3bd07e1a1191394380780325891bf33f>@@$$QEAV<lambda_334532d3f185bcaa59b5be82d7d22bff>@@@Z@4HA 0000000180035c98     libucrt:per_thread_data.obj
 0004:00001c98       $pdata$?fin$0@?0???$?RV<lambda_99476a1ad63dd22509b5d3e65b0ffc95>@@AEAV<lambda_ad1ced32f4ac17aa236e5ef05d6b3b7c>@@V<lambda_f7424dd8d45958661754dc4f2697e9c3>@@@?$__crt_seh_guarded_call@X@@QEAAX$$QEAV<lambda_99476a1ad63dd22509b5d3e65b0ffc95>@@AEAV<lambda_ad1ced32f4ac17aa236e5ef05d6b3b7c>@@$$QEAV<lambda_f7424dd8d45958661754dc4f2697e9c3>@@@Z@4HA 0000000180035c98     libucrt:mbctype.obj
 0004:00001c98       $pdata$?fin$0@?0???$?RV<lambda_c36588078e9f5dfd39652860aa6b3aaf>@@AEAV<lambda_ec61778202f4f5fc7e7711acc23c3bca>@@V<lambda_dc9d2797ccde5d239b4a0efae8ebd7db>@@@?$__crt_seh_guarded_call@P6AXH@Z@@QEAAP6AXH@Z$$QEAV<lambda_c36588078e9f5dfd39652860aa6b3aaf>@@AEAV<lambda_ec61778202f4f5fc7e7711acc23c3bca>@@$$QEAV<lambda_dc9d2797ccde5d239b4a0efae8ebd7db>@@@Z@4HA 0000000180035c98     libucrt:signal.obj
 0004:00001ca4       $pdata$?fin$0@?0???$?RV<lambda_e24bbb7b643b32fcea6fa61b31d4c984>@@AEAV<lambda_275893d493268fdec8709772e3fcec0e>@@V<lambda_9d71df4d7cf3f480f8d633942495c3b0>@@@?$__crt_seh_guarded_call@H@@QEAAH$$QEAV<lambda_e24bbb7b643b32fcea6fa61b31d4c984>@@AEAV<lambda_275893d493268fdec8709772e3fcec0e>@@$$QEAV<lambda_9d71df4d7cf3f480f8d633942495c3b0>@@@Z@4HA 0000000180035ca4     libucrt:onexit.obj
 0004:00001cb0       $pdata$common_flush_all$fin$0 0000000180035cb0     libucrt:fflush.obj
 0004:00001cbc       $pdata$common_flush_all$fin$1 0000000180035cbc     libucrt:fflush.obj
 0004:00001cc8       $pdata$fclose$fin$0        0000000180035cc8     libucrt:fclose.obj
 0004:00001cc8       $pdata$fflush$fin$0        0000000180035cc8     libucrt:fflush.obj
 0004:00001cd4       $pdata$raise$fin$0         0000000180035cd4     libucrt:signal.obj
 0004:00001ce0       $pdata$__acrt_initialize_lowio$fin$0 0000000180035ce0     libucrt:ioinit.obj
 0004:00001ce0       $pdata$__acrt_lowio_ensure_fh_exists$fin$0 0000000180035ce0     libucrt:osfinfo.obj
 0004:00001cec       $pdata$__tzset$fin$0       0000000180035cec     libucrt:tzset.obj
 0004:00001cec       $pdata$_isindst$fin$0      0000000180035cec     libucrt:tzset.obj
 0004:00001cf8       $pdata$__acrt_update_thread_multibyte_data$fin$0 0000000180035cf8     libucrt:mbctype.obj
 0004:00001d04       $pdata$_fcloseall$fin$0    0000000180035d04     libucrt:closeall.obj
 0004:00001d10       $pdata$?fin$0@?0???$?RV<lambda_bfedae4ebbf01fab1bb6dcc6a9e276e0>@@AEAV<lambda_2fe9b910cf3cbf4a0ab98a02ba45b3ec>@@V<lambda_237c231691f317818eb88cc1d5d642d6>@@@?$__crt_seh_guarded_call@H@@QEAAH$$QEAV<lambda_bfedae4ebbf01fab1bb6dcc6a9e276e0>@@AEAV<lambda_2fe9b910cf3cbf4a0ab98a02ba45b3ec>@@$$QEAV<lambda_237c231691f317818eb88cc1d5d642d6>@@@Z@4HA 0000000180035d10     libucrt:close.obj
 0004:00001d10       $pdata$?fin$0@?0???$?RV<lambda_b521505b218e5242e90febf6bfebc422>@@AEAV<lambda_6978c1fb23f02e42e1d9e99668cc68aa>@@V<lambda_314360699dd331753a4119843814e9a7>@@@?$__crt_seh_guarded_call@H@@QEAAH$$QEAV<lambda_b521505b218e5242e90febf6bfebc422>@@AEAV<lambda_6978c1fb23f02e42e1d9e99668cc68aa>@@$$QEAV<lambda_314360699dd331753a4119843814e9a7>@@@Z@4HA 0000000180035d10     libucrt:commit.obj
 0004:00001d1c       $pdata$_write$fin$0        0000000180035d1c     libucrt:write.obj
 0004:00001d1c       $pdata$?fin$0@?0???$common_lseek@_J@@YA_JH_JH@Z@4HA 0000000180035d1c     libucrt:lseek.obj
 0004:00001d28       $pdata$__acrt_update_thread_locale_data$fin$0 0000000180035d28     libucrt:locale_refcounting.obj
 0004:00001d28       $pdata$__acrt_uninitialize_locale$fin$0 0000000180035d28     libucrt:wsetlocale.obj
 0004:00001d34       $pdata$?fin$0@?0???$common_getenv_s@D@@YAHQEA_KQEAD_KQEBD@Z@4HA 0000000180035d34     libucrt:getenv.obj
 0004:00001d40       $pdata$common_control87$filt$0 0000000180035d40     libucrt:ieee.obj
 0004:00001d40       $pdata$_ctrlfp$filt$0      0000000180035d40     libucrt:fpctrl.obj
 0004:00001d4c       $pdata$_IsNonwritableInCurrentImage$filt$0 0000000180035d4c     LIBCMT:pesect.obj
 0004:00001d58       $pdata$_CallSETranslator$filt$0 0000000180035d58     libvcruntime:trnsctrl.obj
 0004:00001d64       $pdata$__CxxCallCatchBlock$filt$0 0000000180035d64     libvcruntime:frame.obj
 0004:00001d70       $pdata$__CxxCallCatchBlock$fin$1 0000000180035d70     libvcruntime:frame.obj
 0004:00001d7c       $pdata$__DestructExceptionObject$filt$0 0000000180035d7c     libvcruntime:frame.obj
 0004:00001d88       $pdata$__FrameUnwindToState$filt$0 0000000180035d88     libvcruntime:frame.obj
 0004:00001d94       $pdata$__FrameUnwindToState$fin$1 0000000180035d94     libvcruntime:frame.obj
 0004:00001da0       $pdata$??__Fg_closingHandles@@YAXXZ 0000000180035da0     serialport_win.obj
 0005:00000000       __guard_fids__             0000000180036000     libucrt:initialization.obj
 0005:00000060       __guard_fids___acrt_show_wide_message_box 0000000180036060     libucrt:crtmbox.obj
 0005:00000064       __guard_fids___acrt_initialize_ptd 0000000180036064     libucrt:per_thread_data.obj
 0005:00000068       __guard_fids_??$expand_argument_wildcards@D@@YAHQEAD0AEAV?$argument_list@D@?A0xca0879c4@@@Z 0000000180036068     libucrt:argv_wildcards.obj
 0005:0000006c       __guard_fids__             000000018003606c     libucrt:stdio_initializer.obj
 0005:00000070       __guard_fids__             0000000180036070     libucrt:stdio_initializer.obj
 0005:00000074       __guard_fids__             0000000180036074     libucrt:locale_initializer.obj
 0005:00000078       __guard_fids__             0000000180036078     libucrt:timeset_initializer.obj
 0005:0000007c       __guard_fids__             000000018003607c     libucrt:multibyte_initializer.obj
 0005:00000080       __guard_fids__             0000000180036080     libucrt:console_output_initializer.obj
 0005:00000084       __guard_fids__             0000000180036084     libucrt:fma3_initializer.obj
 0005:00000088       __guard_fids__             0000000180036088     libcpmt:xthrow.obj
 0005:00000090       __guard_fids__             0000000180036090     libcpmt:xthrow.obj
 0005:00000098       __guard_fids__             0000000180036098     libcpmt:xthrow.obj
 0005:000000a0       __guard_fids__             00000001800360a0     libcpmt:xthrow.obj
 0005:000000a8       __guard_fids__             00000001800360a8     libcpmt:xthrow.obj
 0005:000000b0       __guard_fids_?dllmain_crt_process_attach@@YAHQEAUHINSTANCE__@@QEAX@Z 00000001800360b0     LIBCMT:dll_dllmain.obj
 0005:000000b8       __guard_fids_?dllmain_dispatch@@YAHQEAUHINSTANCE__@@KQEAX@Z 00000001800360b8     LIBCMT:dll_dllmain.obj
 0005:000000bc       __guard_fids__             00000001800360bc     LIBCMT:std_type_info_static.obj
 0005:000000c0       __guard_fids__             00000001800360c0     LIBCMT:throw_bad_alloc.obj
 0005:000000c8       __guard_fids__             00000001800360c8     LIBCMT:guard_support.obj
 0005:000000cc       __guard_fids__             00000001800360cc     libvcruntime:telemetry.obj
 0005:000000d0       __guard_fids_?TraceLoggingRegister@__vcrt_trace_logging_provider@@YAJPEBU_TlgProvider_t@1@PEBU_GUID@@P6AX1KE_K2PEAU_EVENT_FILTER_DESCRIPTOR@@PEAX@Z4@Z 00000001800360d0     libvcruntime:telemetry.obj
 0005:000000d4       __guard_fids___vcrt_initialize_ptd 00000001800360d4     libvcruntime:per_thread_data.obj
 0005:000000d8       __guard_fids__UnwindNestedFrames 00000001800360d8     libvcruntime:trnsctrl.obj
 0005:000000dc       __guard_fids__             00000001800360dc     libvcruntime:frame.obj
 0005:000000e0       __guard_fids__             00000001800360e0     libvcruntime:frame.obj
 0006:00000060       $R000000                   0000000180037060     * linker generated manifest res *

 Exports

  ordinal    name

        1    _register_serialport_
